TN:
SF:/mnt/c/users/t470/desktop/funda/lab11/project1/include/my_lib.hpp
FN:101,105,_ZN12my_container5ArrayIiLm3EE9RIteratorIiEppEi
FN:101,105,_ZN12my_container5ArrayIiLm5EE9RIteratorIiEppEi
FN:106,109,_ZN12my_container5ArrayIiLm3EE9RIteratorIiEmmEv
FN:110,114,_ZN12my_container5ArrayIiLm3EE9RIteratorIiEmmEi
FN:110,114,_ZN12my_container5ArrayIiLm5EE9RIteratorIKiEmmEi
FN:115,115,_ZN12my_container5ArrayIiLm4EE9RIteratorIiEplEi
FN:115,115,_ZN12my_container5ArrayIiLm5EE9RIteratorIiEplEi
FN:116,116,_ZN12my_container5ArrayIiLm5EE9RIteratorIKiEmiEi
FN:116,116,_ZN12my_container5ArrayIiLm5EE9RIteratorIiEmiEi
FN:117,117,_ZNK12my_container5ArrayIiLm1EE9RIteratorIiEeqERKS3_
FN:117,117,_ZNK12my_container5ArrayIiLm3EE9RIteratorIiEeqERKS3_
FN:117,117,_ZNK12my_container5ArrayIiLm4EE9RIteratorIiEeqERKS3_
FN:117,117,_ZNK12my_container5ArrayIiLm5EE9RIteratorIiEeqERKS3_
FN:118,118,_ZNK12my_container5ArrayIiLm3EE9RIteratorIKiEneERKS4_
FN:118,118,_ZNK12my_container5ArrayIiLm3EE9RIteratorIiEneERKS3_
FN:118,118,_ZNK12my_container5ArrayIiLm4EE9RIteratorIiEneERKS3_
FN:118,118,_ZNK12my_container5ArrayIiLm5EE9RIteratorIiEneERKS3_
FN:119,119,_ZNK12my_container5ArrayIiLm4EE9RIteratorIiEgtERKS3_
FN:120,120,_ZNK12my_container5ArrayIiLm4EE9RIteratorIiEgeERKS3_
FN:120,120,_ZNK12my_container5ArrayIiLm5EE9RIteratorIKiEgeERKS4_
FN:121,121,_ZNK12my_container5ArrayIiLm4EE9RIteratorIiEltERKS3_
FN:121,121,_ZNK12my_container5ArrayIiLm5EE9RIteratorIiEltERKS3_
FN:122,122,_ZNK12my_container5ArrayIiLm4EE9RIteratorIiEleERKS3_
FN:123,123,_ZN12my_container5ArrayIiLm1EE9RIteratorIiEdeEv
FN:123,123,_ZN12my_container5ArrayIiLm3EE9RIteratorIKiEdeEv
FN:123,123,_ZN12my_container5ArrayIiLm3EE9RIteratorIiEdeEv
FN:123,123,_ZN12my_container5ArrayIiLm5EE9RIteratorIKiEdeEv
FN:123,123,_ZN12my_container5ArrayIiLm5EE9RIteratorIiEdeEv
FN:137,137,_ZN12my_container5ArrayIiLm1EED0Ev
FN:137,137,_ZN12my_container5ArrayIiLm1EED2Ev
FN:137,137,_ZN12my_container5ArrayIiLm2EED0Ev
FN:137,137,_ZN12my_container5ArrayIiLm2EED2Ev
FN:137,137,_ZN12my_container5ArrayIiLm3EED0Ev
FN:137,137,_ZN12my_container5ArrayIiLm3EED2Ev
FN:137,137,_ZN12my_container5ArrayIiLm4EED0Ev
FN:137,137,_ZN12my_container5ArrayIiLm4EED2Ev
FN:137,137,_ZN12my_container5ArrayIiLm5EED0Ev
FN:137,137,_ZN12my_container5ArrayIiLm5EED2Ev
FN:138,138,_ZN12my_container5ArrayIiLm3EEC2Ev
FN:139,139,_ZNK12my_container5ArrayIiLm1EE4sizeEv
FN:139,139,_ZNK12my_container5ArrayIiLm2EE4sizeEv
FN:139,139,_ZNK12my_container5ArrayIiLm3EE4sizeEv
FN:139,139,_ZNK12my_container5ArrayIiLm4EE4sizeEv
FN:139,139,_ZNK12my_container5ArrayIiLm5EE4sizeEv
FN:140,140,_ZNK12my_container5ArrayIiLm1EE8max_sizeEv
FN:140,140,_ZNK12my_container5ArrayIiLm2EE8max_sizeEv
FN:140,140,_ZNK12my_container5ArrayIiLm3EE8max_sizeEv
FN:140,140,_ZNK12my_container5ArrayIiLm4EE8max_sizeEv
FN:140,140,_ZNK12my_container5ArrayIiLm5EE8max_sizeEv
FN:141,141,_ZNK12my_container5ArrayIiLm1EE5emptyEv
FN:141,141,_ZNK12my_container5ArrayIiLm2EE5emptyEv
FN:141,141,_ZNK12my_container5ArrayIiLm3EE5emptyEv
FN:141,141,_ZNK12my_container5ArrayIiLm4EE5emptyEv
FN:141,141,_ZNK12my_container5ArrayIiLm5EE5emptyEv
FN:142,145,_ZN12my_container5ArrayIiLm2EEixEm
FN:142,145,_ZN12my_container5ArrayIiLm3EEixEm
FN:142,145,_ZN12my_container5ArrayIiLm5EEixEm
FN:146,149,_ZNK12my_container5ArrayIiLm3EEixEm
FN:146,149,_ZNK12my_container5ArrayIiLm5EEixEm
FN:150,150,_ZN12my_container5ArrayIiLm5EE5frontEv
FN:152,152,_ZN12my_container5ArrayIiLm5EE4backEv
FN:154,156,_ZN12my_container5ArrayIiLm2EE2atEm
FN:154,156,_ZN12my_container5ArrayIiLm5EE2atEm
FN:162,168,_ZN12my_container5ArrayIiLm1EEC2ESt16initializer_listIiE
FN:162,168,_ZN12my_container5ArrayIiLm2EEC2ESt16initializer_listIiE
FN:162,168,_ZN12my_container5ArrayIiLm3EEC2ESt16initializer_listIiE
FN:162,168,_ZN12my_container5ArrayIiLm4EEC2ESt16initializer_listIiE
FN:162,168,_ZN12my_container5ArrayIiLm5EEC2ESt16initializer_listIiE
FN:169,172,_ZN12my_container5ArrayIiLm3EEC2ERKS1_
FN:169,172,_ZN12my_container5ArrayIiLm5EEC2ERKS1_
FN:173,173,_ZN12my_container5ArrayIiLm3EEC2EOS1_
FN:182,182,_ZN12my_container5ArrayIiLm5EE4dataEv
FN:183,186,_ZN12my_container5ArrayIiLm5EE4fillERKi
FN:187,193,_ZN12my_container5ArrayIiLm3EE4swapERS1_
FN:195,201,_ZNK12my_container5ArrayIiLm1EEssERKS1_
FN:195,201,_ZNK12my_container5ArrayIiLm2EEssERKS1_
FN:195,201,_ZNK12my_container5ArrayIiLm3EEssERKS1_
FN:195,201,_ZNK12my_container5ArrayIiLm4EEssERKS1_
FN:195,201,_ZNK12my_container5ArrayIiLm5EEssERKS1_
FN:202,207,_ZNK12my_container5ArrayIiLm1EEeqERK9ContainerIiE
FN:202,207,_ZNK12my_container5ArrayIiLm2EEeqERK9ContainerIiE
FN:202,207,_ZNK12my_container5ArrayIiLm3EEeqERK9ContainerIiE
FN:202,207,_ZNK12my_container5ArrayIiLm4EEeqERK9ContainerIiE
FN:202,207,_ZNK12my_container5ArrayIiLm5EEeqERK9ContainerIiE
FN:208,213,_ZNK12my_container5ArrayIiLm1EEneERK9ContainerIiE
FN:208,213,_ZNK12my_container5ArrayIiLm2EEneERK9ContainerIiE
FN:208,213,_ZNK12my_container5ArrayIiLm3EEneERK9ContainerIiE
FN:208,213,_ZNK12my_container5ArrayIiLm4EEneERK9ContainerIiE
FN:208,213,_ZNK12my_container5ArrayIiLm5EEneERK9ContainerIiE
FN:214,214,_ZNK12my_container5ArrayIiLm3EEltERKS1_
FN:215,215,_ZNK12my_container5ArrayIiLm3EEleERKS1_
FN:216,216,_ZNK12my_container5ArrayIiLm3EEgtERKS1_
FN:217,217,_ZNK12my_container5ArrayIiLm3EEgeERKS1_
FN:219,219,_ZN12my_container5ArrayIiLm1EE5beginEv
FN:219,219,_ZN12my_container5ArrayIiLm3EE5beginEv
FN:219,219,_ZN12my_container5ArrayIiLm4EE5beginEv
FN:219,219,_ZN12my_container5ArrayIiLm5EE5beginEv
FN:220,220,_ZN12my_container5ArrayIiLm1EE3endEv
FN:220,220,_ZN12my_container5ArrayIiLm3EE3endEv
FN:220,220,_ZN12my_container5ArrayIiLm5EE3endEv
FN:221,221,_ZNK12my_container5ArrayIiLm3EE6cbeginEv
FN:221,221,_ZNK12my_container5ArrayIiLm5EE6cbeginEv
FN:222,222,_ZNK12my_container5ArrayIiLm3EE4cendEv
FN:222,222,_ZNK12my_container5ArrayIiLm5EE4cendEv
FN:223,223,_ZN12my_container5ArrayIiLm1EE6rbeginEv
FN:223,223,_ZN12my_container5ArrayIiLm3EE6rbeginEv
FN:223,223,_ZN12my_container5ArrayIiLm4EE6rbeginEv
FN:223,223,_ZN12my_container5ArrayIiLm5EE6rbeginEv
FN:224,224,_ZN12my_container5ArrayIiLm1EE4rendEv
FN:224,224,_ZN12my_container5ArrayIiLm5EE4rendEv
FN:225,225,_ZNK12my_container5ArrayIiLm3EE7crbeginEv
FN:225,225,_ZNK12my_container5ArrayIiLm5EE7crbeginEv
FN:226,226,_ZNK12my_container5ArrayIiLm3EE5crendEv
FN:226,226,_ZNK12my_container5ArrayIiLm5EE5crendEv
FN:30,30,_ZN9ContainerIiEC2Ev
FN:36,36,_ZN9ContainerIiED0Ev
FN:36,36,_ZN9ContainerIiED2Ev
FN:52,52,_ZN12my_container5ArrayIiLm1EE8IteratorIiEC2EPi
FN:52,52,_ZN12my_container5ArrayIiLm3EE8IteratorIKiEC2EPS3_
FN:52,52,_ZN12my_container5ArrayIiLm3EE8IteratorIiEC2EPi
FN:52,52,_ZN12my_container5ArrayIiLm4EE8IteratorIiEC2EPi
FN:52,52,_ZN12my_container5ArrayIiLm5EE8IteratorIKiEC2EPS3_
FN:52,52,_ZN12my_container5ArrayIiLm5EE8IteratorIiEC2EPi
FN:57,60,_ZN12my_container5ArrayIiLm1EE8IteratorIiEppEv
FN:57,60,_ZN12my_container5ArrayIiLm3EE8IteratorIKiEppEv
FN:57,60,_ZN12my_container5ArrayIiLm3EE8IteratorIiEppEv
FN:57,60,_ZN12my_container5ArrayIiLm4EE8IteratorIiEppEv
FN:57,60,_ZN12my_container5ArrayIiLm5EE8IteratorIiEppEv
FN:61,65,_ZN12my_container5ArrayIiLm3EE8IteratorIiEppEi
FN:61,65,_ZN12my_container5ArrayIiLm5EE8IteratorIiEppEi
FN:66,69,_ZN12my_container5ArrayIiLm3EE8IteratorIiEmmEv
FN:70,74,_ZN12my_container5ArrayIiLm3EE8IteratorIiEmmEi
FN:70,74,_ZN12my_container5ArrayIiLm5EE8IteratorIKiEmmEi
FN:75,75,_ZN12my_container5ArrayIiLm4EE8IteratorIiEplEi
FN:75,75,_ZN12my_container5ArrayIiLm5EE8IteratorIiEplEi
FN:76,76,_ZN12my_container5ArrayIiLm5EE8IteratorIKiEmiEi
FN:76,76,_ZN12my_container5ArrayIiLm5EE8IteratorIiEmiEi
FN:77,77,_ZNK12my_container5ArrayIiLm1EE8IteratorIiEeqERKS3_
FN:77,77,_ZNK12my_container5ArrayIiLm3EE8IteratorIiEeqERKS3_
FN:77,77,_ZNK12my_container5ArrayIiLm4EE8IteratorIiEeqERKS3_
FN:77,77,_ZNK12my_container5ArrayIiLm5EE8IteratorIiEeqERKS3_
FN:78,78,_ZNK12my_container5ArrayIiLm3EE8IteratorIKiEneERKS4_
FN:78,78,_ZNK12my_container5ArrayIiLm3EE8IteratorIiEneERKS3_
FN:78,78,_ZNK12my_container5ArrayIiLm4EE8IteratorIiEneERKS3_
FN:78,78,_ZNK12my_container5ArrayIiLm5EE8IteratorIiEneERKS3_
FN:79,79,_ZNK12my_container5ArrayIiLm4EE8IteratorIiEgtERKS3_
FN:80,80,_ZNK12my_container5ArrayIiLm4EE8IteratorIiEgeERKS3_
FN:80,80,_ZNK12my_container5ArrayIiLm5EE8IteratorIKiEgeERKS4_
FN:81,81,_ZNK12my_container5ArrayIiLm4EE8IteratorIiEltERKS3_
FN:81,81,_ZNK12my_container5ArrayIiLm5EE8IteratorIiEltERKS3_
FN:82,82,_ZNK12my_container5ArrayIiLm4EE8IteratorIiEleERKS3_
FN:83,83,_ZN12my_container5ArrayIiLm1EE8IteratorIiEdeEv
FN:83,83,_ZN12my_container5ArrayIiLm3EE8IteratorIKiEdeEv
FN:83,83,_ZN12my_container5ArrayIiLm3EE8IteratorIiEdeEv
FN:83,83,_ZN12my_container5ArrayIiLm5EE8IteratorIKiEdeEv
FN:83,83,_ZN12my_container5ArrayIiLm5EE8IteratorIiEdeEv
FN:92,92,_ZN12my_container5ArrayIiLm1EE9RIteratorIiEC2EPi
FN:92,92,_ZN12my_container5ArrayIiLm3EE9RIteratorIKiEC2EPS3_
FN:92,92,_ZN12my_container5ArrayIiLm3EE9RIteratorIiEC2EPi
FN:92,92,_ZN12my_container5ArrayIiLm4EE9RIteratorIiEC2EPi
FN:92,92,_ZN12my_container5ArrayIiLm5EE9RIteratorIKiEC2EPS3_
FN:92,92,_ZN12my_container5ArrayIiLm5EE9RIteratorIiEC2EPi
FN:97,100,_ZN12my_container5ArrayIiLm1EE9RIteratorIiEppEv
FN:97,100,_ZN12my_container5ArrayIiLm3EE9RIteratorIKiEppEv
FN:97,100,_ZN12my_container5ArrayIiLm3EE9RIteratorIiEppEv
FN:97,100,_ZN12my_container5ArrayIiLm4EE9RIteratorIiEppEv
FN:97,100,_ZN12my_container5ArrayIiLm5EE9RIteratorIiEppEv
FNDA:3,_ZN12my_container5ArrayIiLm3EE9RIteratorIiEppEi
FNDA:3,_ZN12my_container5ArrayIiLm5EE9RIteratorIiEppEi
FNDA:3,_ZN12my_container5ArrayIiLm3EE9RIteratorIiEmmEv
FNDA:3,_ZN12my_container5ArrayIiLm3EE9RIteratorIiEmmEi
FNDA:0,_ZN12my_container5ArrayIiLm5EE9RIteratorIKiEmmEi
FNDA:3,_ZN12my_container5ArrayIiLm4EE9RIteratorIiEplEi
FNDA:9,_ZN12my_container5ArrayIiLm5EE9RIteratorIiEplEi
FNDA:3,_ZN12my_container5ArrayIiLm5EE9RIteratorIKiEmiEi
FNDA:3,_ZN12my_container5ArrayIiLm5EE9RIteratorIiEmiEi
FNDA:3,_ZNK12my_container5ArrayIiLm1EE9RIteratorIiEeqERKS3_
FNDA:3,_ZNK12my_container5ArrayIiLm3EE9RIteratorIiEeqERKS3_
FNDA:6,_ZNK12my_container5ArrayIiLm4EE9RIteratorIiEeqERKS3_
FNDA:3,_ZNK12my_container5ArrayIiLm5EE9RIteratorIiEeqERKS3_
FNDA:12,_ZNK12my_container5ArrayIiLm3EE9RIteratorIKiEneERKS4_
FNDA:6,_ZNK12my_container5ArrayIiLm3EE9RIteratorIiEneERKS3_
FNDA:6,_ZNK12my_container5ArrayIiLm4EE9RIteratorIiEneERKS3_
FNDA:18,_ZNK12my_container5ArrayIiLm5EE9RIteratorIiEneERKS3_
FNDA:3,_ZNK12my_container5ArrayIiLm4EE9RIteratorIiEgtERKS3_
FNDA:3,_ZNK12my_container5ArrayIiLm4EE9RIteratorIiEgeERKS3_
FNDA:3,_ZNK12my_container5ArrayIiLm5EE9RIteratorIKiEgeERKS4_
FNDA:3,_ZNK12my_container5ArrayIiLm4EE9RIteratorIiEltERKS3_
FNDA:3,_ZNK12my_container5ArrayIiLm5EE9RIteratorIiEltERKS3_
FNDA:3,_ZNK12my_container5ArrayIiLm4EE9RIteratorIiEleERKS3_
FNDA:3,_ZN12my_container5ArrayIiLm1EE9RIteratorIiEdeEv
FNDA:9,_ZN12my_container5ArrayIiLm3EE9RIteratorIKiEdeEv
FNDA:18,_ZN12my_container5ArrayIiLm3EE9RIteratorIiEdeEv
FNDA:0,_ZN12my_container5ArrayIiLm5EE9RIteratorIKiEdeEv
FNDA:24,_ZN12my_container5ArrayIiLm5EE9RIteratorIiEdeEv
FNDA:0,_ZN12my_container5ArrayIiLm1EED0Ev
FNDA:3,_ZN12my_container5ArrayIiLm1EED2Ev
FNDA:0,_ZN12my_container5ArrayIiLm2EED0Ev
FNDA:3,_ZN12my_container5ArrayIiLm2EED2Ev
FNDA:0,_ZN12my_container5ArrayIiLm3EED0Ev
FNDA:72,_ZN12my_container5ArrayIiLm3EED2Ev
FNDA:0,_ZN12my_container5ArrayIiLm4EED0Ev
FNDA:6,_ZN12my_container5ArrayIiLm4EED2Ev
FNDA:0,_ZN12my_container5ArrayIiLm5EED0Ev
FNDA:39,_ZN12my_container5ArrayIiLm5EED2Ev
FNDA:3,_ZN12my_container5ArrayIiLm3EEC2Ev
FNDA:0,_ZNK12my_container5ArrayIiLm1EE4sizeEv
FNDA:0,_ZNK12my_container5ArrayIiLm2EE4sizeEv
FNDA:63,_ZNK12my_container5ArrayIiLm3EE4sizeEv
FNDA:0,_ZNK12my_container5ArrayIiLm4EE4sizeEv
FNDA:27,_ZNK12my_container5ArrayIiLm5EE4sizeEv
FNDA:0,_ZNK12my_container5ArrayIiLm1EE8max_sizeEv
FNDA:0,_ZNK12my_container5ArrayIiLm2EE8max_sizeEv
FNDA:3,_ZNK12my_container5ArrayIiLm3EE8max_sizeEv
FNDA:0,_ZNK12my_container5ArrayIiLm4EE8max_sizeEv
FNDA:0,_ZNK12my_container5ArrayIiLm5EE8max_sizeEv
FNDA:0,_ZNK12my_container5ArrayIiLm1EE5emptyEv
FNDA:0,_ZNK12my_container5ArrayIiLm2EE5emptyEv
FNDA:0,_ZNK12my_container5ArrayIiLm3EE5emptyEv
FNDA:3,_ZNK12my_container5ArrayIiLm4EE5emptyEv
FNDA:0,_ZNK12my_container5ArrayIiLm5EE5emptyEv
FNDA:12,_ZN12my_container5ArrayIiLm2EEixEm
FNDA:90,_ZN12my_container5ArrayIiLm3EEixEm
FNDA:57,_ZN12my_container5ArrayIiLm5EEixEm
FNDA:27,_ZNK12my_container5ArrayIiLm3EEixEm
FNDA:30,_ZNK12my_container5ArrayIiLm5EEixEm
FNDA:9,_ZN12my_container5ArrayIiLm5EE5frontEv
FNDA:6,_ZN12my_container5ArrayIiLm5EE4backEv
FNDA:6,_ZN12my_container5ArrayIiLm2EE2atEm
FNDA:6,_ZN12my_container5ArrayIiLm5EE2atEm
FNDA:3,_ZN12my_container5ArrayIiLm1EEC2ESt16initializer_listIiE
FNDA:3,_ZN12my_container5ArrayIiLm2EEC2ESt16initializer_listIiE
FNDA:54,_ZN12my_container5ArrayIiLm3EEC2ESt16initializer_listIiE
FNDA:6,_ZN12my_container5ArrayIiLm4EEC2ESt16initializer_listIiE
FNDA:33,_ZN12my_container5ArrayIiLm5EEC2ESt16initializer_listIiE
FNDA:9,_ZN12my_container5ArrayIiLm3EEC2ERKS1_
FNDA:6,_ZN12my_container5ArrayIiLm5EEC2ERKS1_
FNDA:6,_ZN12my_container5ArrayIiLm3EEC2EOS1_
FNDA:3,_ZN12my_container5ArrayIiLm5EE4dataEv
FNDA:3,_ZN12my_container5ArrayIiLm5EE4fillERKi
FNDA:3,_ZN12my_container5ArrayIiLm3EE4swapERS1_
FNDA:0,_ZNK12my_container5ArrayIiLm1EEssERKS1_
FNDA:0,_ZNK12my_container5ArrayIiLm2EEssERKS1_
FNDA:57,_ZNK12my_container5ArrayIiLm3EEssERKS1_
FNDA:0,_ZNK12my_container5ArrayIiLm4EEssERKS1_
FNDA:3,_ZNK12my_container5ArrayIiLm5EEssERKS1_
FNDA:0,_ZNK12my_container5ArrayIiLm1EEeqERK9ContainerIiE
FNDA:0,_ZNK12my_container5ArrayIiLm2EEeqERK9ContainerIiE
FNDA:12,_ZNK12my_container5ArrayIiLm3EEeqERK9ContainerIiE
FNDA:0,_ZNK12my_container5ArrayIiLm4EEeqERK9ContainerIiE
FNDA:3,_ZNK12my_container5ArrayIiLm5EEeqERK9ContainerIiE
FNDA:0,_ZNK12my_container5ArrayIiLm1EEneERK9ContainerIiE
FNDA:0,_ZNK12my_container5ArrayIiLm2EEneERK9ContainerIiE
FNDA:9,_ZNK12my_container5ArrayIiLm3EEneERK9ContainerIiE
FNDA:0,_ZNK12my_container5ArrayIiLm4EEneERK9ContainerIiE
FNDA:0,_ZNK12my_container5ArrayIiLm5EEneERK9ContainerIiE
FNDA:6,_ZNK12my_container5ArrayIiLm3EEltERKS1_
FNDA:9,_ZNK12my_container5ArrayIiLm3EEleERKS1_
FNDA:6,_ZNK12my_container5ArrayIiLm3EEgtERKS1_
FNDA:9,_ZNK12my_container5ArrayIiLm3EEgeERKS1_
FNDA:3,_ZN12my_container5ArrayIiLm1EE5beginEv
FNDA:12,_ZN12my_container5ArrayIiLm3EE5beginEv
FNDA:6,_ZN12my_container5ArrayIiLm4EE5beginEv
FNDA:9,_ZN12my_container5ArrayIiLm5EE5beginEv
FNDA:3,_ZN12my_container5ArrayIiLm1EE3endEv
FNDA:6,_ZN12my_container5ArrayIiLm3EE3endEv
FNDA:39,_ZN12my_container5ArrayIiLm5EE3endEv
FNDA:3,_ZNK12my_container5ArrayIiLm3EE6cbeginEv
FNDA:18,_ZNK12my_container5ArrayIiLm5EE6cbeginEv
FNDA:12,_ZNK12my_container5ArrayIiLm3EE4cendEv
FNDA:3,_ZNK12my_container5ArrayIiLm5EE4cendEv
FNDA:3,_ZN12my_container5ArrayIiLm1EE6rbeginEv
FNDA:6,_ZN12my_container5ArrayIiLm3EE6rbeginEv
FNDA:6,_ZN12my_container5ArrayIiLm4EE6rbeginEv
FNDA:9,_ZN12my_container5ArrayIiLm5EE6rbeginEv
FNDA:3,_ZN12my_container5ArrayIiLm1EE4rendEv
FNDA:24,_ZN12my_container5ArrayIiLm5EE4rendEv
FNDA:3,_ZNK12my_container5ArrayIiLm3EE7crbeginEv
FNDA:3,_ZNK12my_container5ArrayIiLm5EE7crbeginEv
FNDA:12,_ZNK12my_container5ArrayIiLm3EE5crendEv
FNDA:3,_ZNK12my_container5ArrayIiLm5EE5crendEv
FNDA:123,_ZN9ContainerIiEC2Ev
FNDA:0,_ZN9ContainerIiED0Ev
FNDA:123,_ZN9ContainerIiED2Ev
FNDA:6,_ZN12my_container5ArrayIiLm1EE8IteratorIiEC2EPi
FNDA:15,_ZN12my_container5ArrayIiLm3EE8IteratorIKiEC2EPS3_
FNDA:18,_ZN12my_container5ArrayIiLm3EE8IteratorIiEC2EPi
FNDA:9,_ZN12my_container5ArrayIiLm4EE8IteratorIiEC2EPi
FNDA:24,_ZN12my_container5ArrayIiLm5EE8IteratorIKiEC2EPS3_
FNDA:60,_ZN12my_container5ArrayIiLm5EE8IteratorIiEC2EPi
FNDA:3,_ZN12my_container5ArrayIiLm1EE8IteratorIiEppEv
FNDA:9,_ZN12my_container5ArrayIiLm3EE8IteratorIKiEppEv
FNDA:21,_ZN12my_container5ArrayIiLm3EE8IteratorIiEppEv
FNDA:3,_ZN12my_container5ArrayIiLm4EE8IteratorIiEppEv
FNDA:15,_ZN12my_container5ArrayIiLm5EE8IteratorIiEppEv
FNDA:3,_ZN12my_container5ArrayIiLm3EE8IteratorIiEppEi
FNDA:18,_ZN12my_container5ArrayIiLm5EE8IteratorIiEppEi
FNDA:3,_ZN12my_container5ArrayIiLm3EE8IteratorIiEmmEv
FNDA:3,_ZN12my_container5ArrayIiLm3EE8IteratorIiEmmEi
FNDA:15,_ZN12my_container5ArrayIiLm5EE8IteratorIKiEmmEi
FNDA:3,_ZN12my_container5ArrayIiLm4EE8IteratorIiEplEi
FNDA:9,_ZN12my_container5ArrayIiLm5EE8IteratorIiEplEi
FNDA:3,_ZN12my_container5ArrayIiLm5EE8IteratorIKiEmiEi
FNDA:3,_ZN12my_container5ArrayIiLm5EE8IteratorIiEmiEi
FNDA:3,_ZNK12my_container5ArrayIiLm1EE8IteratorIiEeqERKS3_
FNDA:3,_ZNK12my_container5ArrayIiLm3EE8IteratorIiEeqERKS3_
FNDA:6,_ZNK12my_container5ArrayIiLm4EE8IteratorIiEeqERKS3_
FNDA:3,_ZNK12my_container5ArrayIiLm5EE8IteratorIiEeqERKS3_
FNDA:12,_ZNK12my_container5ArrayIiLm3EE8IteratorIKiEneERKS4_
FNDA:30,_ZNK12my_container5ArrayIiLm3EE8IteratorIiEneERKS3_
FNDA:6,_ZNK12my_container5ArrayIiLm4EE8IteratorIiEneERKS3_
FNDA:18,_ZNK12my_container5ArrayIiLm5EE8IteratorIiEneERKS3_
FNDA:3,_ZNK12my_container5ArrayIiLm4EE8IteratorIiEgtERKS3_
FNDA:6,_ZNK12my_container5ArrayIiLm4EE8IteratorIiEgeERKS3_
FNDA:18,_ZNK12my_container5ArrayIiLm5EE8IteratorIKiEgeERKS4_
FNDA:3,_ZNK12my_container5ArrayIiLm4EE8IteratorIiEltERKS3_
FNDA:18,_ZNK12my_container5ArrayIiLm5EE8IteratorIiEltERKS3_
FNDA:6,_ZNK12my_container5ArrayIiLm4EE8IteratorIiEleERKS3_
FNDA:3,_ZN12my_container5ArrayIiLm1EE8IteratorIiEdeEv
FNDA:9,_ZN12my_container5ArrayIiLm3EE8IteratorIKiEdeEv
FNDA:36,_ZN12my_container5ArrayIiLm3EE8IteratorIiEdeEv
FNDA:15,_ZN12my_container5ArrayIiLm5EE8IteratorIKiEdeEv
FNDA:39,_ZN12my_container5ArrayIiLm5EE8IteratorIiEdeEv
FNDA:6,_ZN12my_container5ArrayIiLm1EE9RIteratorIiEC2EPi
FNDA:15,_ZN12my_container5ArrayIiLm3EE9RIteratorIKiEC2EPS3_
FNDA:6,_ZN12my_container5ArrayIiLm3EE9RIteratorIiEC2EPi
FNDA:9,_ZN12my_container5ArrayIiLm4EE9RIteratorIiEC2EPi
FNDA:9,_ZN12my_container5ArrayIiLm5EE9RIteratorIKiEC2EPS3_
FNDA:45,_ZN12my_container5ArrayIiLm5EE9RIteratorIiEC2EPi
FNDA:3,_ZN12my_container5ArrayIiLm1EE9RIteratorIiEppEv
FNDA:9,_ZN12my_container5ArrayIiLm3EE9RIteratorIKiEppEv
FNDA:3,_ZN12my_container5ArrayIiLm3EE9RIteratorIiEppEv
FNDA:3,_ZN12my_container5ArrayIiLm4EE9RIteratorIiEppEv
FNDA:15,_ZN12my_container5ArrayIiLm5EE9RIteratorIiEppEv
FNF:167
FNH:138
DA:30,123
DA:36,123
DA:52,132
DA:57,51
DA:58,51
DA:59,51
DA:61,21
DA:62,21
DA:63,21
DA:64,21
DA:66,3
DA:67,3
DA:68,3
DA:70,18
DA:71,18
DA:72,18
DA:73,18
DA:75,12
DA:76,6
DA:77,15
DA:78,66
DA:79,3
DA:80,24
DA:81,21
DA:82,6
DA:83,102
DA:92,90
DA:97,33
DA:98,33
DA:99,33
DA:101,6
DA:102,6
DA:103,6
DA:104,6
DA:106,3
DA:107,3
DA:108,3
DA:110,3
DA:111,3
DA:112,3
DA:113,3
DA:115,12
DA:116,6
DA:117,15
DA:118,42
DA:119,3
DA:120,6
DA:121,6
DA:122,3
DA:123,54
DA:137,123
DA:138,3
DA:139,90
DA:140,3
DA:141,3
DA:142,159
DA:143,159
DA:144,153
DA:146,57
DA:147,57
DA:148,57
DA:150,9
DA:152,6
DA:154,12
DA:155,12
DA:162,99
DA:163,99
DA:164,0
DA:165,99
DA:166,453
DA:167,354
DA:168,99
DA:169,15
DA:170,72
DA:171,57
DA:172,15
DA:173,6
DA:182,3
DA:183,3
DA:184,18
DA:185,15
DA:186,3
DA:187,3
DA:188,12
DA:189,9
DA:190,9
DA:191,9
DA:193,3
DA:195,60
DA:196,168
DA:197,138
DA:198,30
DA:200,30
DA:202,15
DA:203,15
DA:204,15
DA:205,0
DA:206,15
DA:208,9
DA:209,9
DA:210,9
DA:211,0
DA:212,9
DA:214,6
DA:215,9
DA:216,6
DA:217,9
DA:219,30
DA:220,48
DA:221,21
DA:222,15
DA:223,24
DA:224,27
DA:225,6
DA:226,15
LF:115
LH:112
end_of_record
TN:
SF:/mnt/c/users/t470/desktop/funda/lab11/project1/src/my_lib.cpp
FN:1,3,main
FNDA:3,main
FNF:1
FNH:1
DA:1,3
DA:2,3
LF:2
LH:2
end_of_record
