TN:
SF:/mnt/c/users/t470/desktop/funda/lab11/project5/include/my_lib.hpp
FN:113,117,_ZN12my_container6VectorIiEC2ESt16initializer_listIiE
FN:124,129,_ZN12my_container6VectorIiEC2ERKS1_
FN:130,134,_ZN12my_container6VectorIiEC2EOS1_
FN:149,155,_ZN12my_container6VectorIiED0Ev
FN:149,155,_ZN12my_container6VectorIiED2Ev
FN:157,157,_ZN12my_container6VectorIiEixEm
FN:159,163,_ZN12my_container6VectorIiE2atEm
FN:169,169,_ZN12my_container6VectorIiE5frontEv
FN:171,171,_ZN12my_container6VectorIiE4backEv
FN:173,173,_ZN12my_container6VectorIiE4dataEv
FN:176,176,_ZNK12my_container6VectorIiE5emptyEv
FN:177,177,_ZNK12my_container6VectorIiE4sizeEv
FN:178,178,_ZNK12my_container6VectorIiE8max_sizeEv
FN:179,179,_ZNK12my_container6VectorIiE8capacityEv
FN:180,185,_ZN12my_container6VectorIiE7reserveEm
FN:186,189,_ZN12my_container6VectorIiE13shrink_to_fitEv
FN:191,195,_ZN12my_container6VectorIiE5clearEv
FN:205,213,_ZN12my_container6VectorIiE9push_backEOi
FN:214,219,_ZN12my_container6VectorIiE8pop_backEv
FN:220,228,_ZN12my_container6VectorIiE6resizeEm
FN:241,245,_ZN12my_container6VectorIiE4swapERS1_
FN:246,259,_ZN12my_container6VectorIiE6insertENS1_8IteratorIKiEERS3_
FN:260,267,_ZN12my_container6VectorIiE6insertENS1_8IteratorIKiEEmRS3_
FN:268,275,_ZN12my_container6VectorIiE5eraseENS1_8IteratorIiEE
FN:276,281,_ZN12my_container6VectorIiE5eraseENS1_8IteratorIiEES3_
FN:282,289,_ZN12my_container6VectorIiE5eraseENS1_8IteratorIKiEE
FN:297,305,_ZNK12my_container6VectorIiEssERKS1_
FN:306,311,_ZNK12my_container6VectorIiEeqERK9ContainerIiE
FN:31,31,_ZN9ContainerIiEC2Ev
FN:312,314,_ZNK12my_container6VectorIiEneERK9ContainerIiE
FN:315,315,_ZNK12my_container6VectorIiEltERKS1_
FN:316,316,_ZNK12my_container6VectorIiEleERKS1_
FN:317,317,_ZNK12my_container6VectorIiEgtERKS1_
FN:318,318,_ZNK12my_container6VectorIiEgeERKS1_
FN:320,320,_ZN12my_container6VectorIiE5beginEv
FN:322,322,_ZNK12my_container6VectorIiE6cbeginEv
FN:37,37,_ZN9ContainerIiED0Ev
FN:37,37,_ZN9ContainerIiED2Ev
FN:48,60,_ZN12my_container6VectorIiE10reallocateEm
FN:70,70,_ZN12my_container6VectorIiE8IteratorIKiEC2EPS3_
FN:70,70,_ZN12my_container6VectorIiE8IteratorIiEC2EPi
FN:94,94,_ZNK12my_container6VectorIiE8IteratorIKiEplEi
FN:94,94,_ZNK12my_container6VectorIiE8IteratorIiEplEi
FN:96,96,_ZNK12my_container6VectorIiE8IteratorIKiEmiERKS4_
FN:96,96,_ZNK12my_container6VectorIiE8IteratorIiEmiERKS3_
FNDA:22,_ZN12my_container6VectorIiEC2ESt16initializer_listIiE
FNDA:2,_ZN12my_container6VectorIiEC2ERKS1_
FNDA:1,_ZN12my_container6VectorIiEC2EOS1_
FNDA:0,_ZN12my_container6VectorIiED0Ev
FNDA:26,_ZN12my_container6VectorIiED2Ev
FNDA:25,_ZN12my_container6VectorIiEixEm
FNDA:2,_ZN12my_container6VectorIiE2atEm
FNDA:2,_ZN12my_container6VectorIiE5frontEv
FNDA:3,_ZN12my_container6VectorIiE4backEv
FNDA:2,_ZN12my_container6VectorIiE4dataEv
FNDA:0,_ZNK12my_container6VectorIiE5emptyEv
FNDA:42,_ZNK12my_container6VectorIiE4sizeEv
FNDA:58,_ZNK12my_container6VectorIiE8max_sizeEv
FNDA:10,_ZNK12my_container6VectorIiE8capacityEv
FNDA:28,_ZN12my_container6VectorIiE7reserveEm
FNDA:1,_ZN12my_container6VectorIiE13shrink_to_fitEv
FNDA:1,_ZN12my_container6VectorIiE5clearEv
FNDA:3,_ZN12my_container6VectorIiE9push_backEOi
FNDA:4,_ZN12my_container6VectorIiE8pop_backEv
FNDA:2,_ZN12my_container6VectorIiE6resizeEm
FNDA:1,_ZN12my_container6VectorIiE4swapERS1_
FNDA:3,_ZN12my_container6VectorIiE6insertENS1_8IteratorIKiEERS3_
FNDA:1,_ZN12my_container6VectorIiE6insertENS1_8IteratorIKiEEmRS3_
FNDA:2,_ZN12my_container6VectorIiE5eraseENS1_8IteratorIiEE
FNDA:1,_ZN12my_container6VectorIiE5eraseENS1_8IteratorIiEES3_
FNDA:1,_ZN12my_container6VectorIiE5eraseENS1_8IteratorIKiEE
FNDA:17,_ZNK12my_container6VectorIiEssERKS1_
FNDA:11,_ZNK12my_container6VectorIiEeqERK9ContainerIiE
FNDA:25,_ZN9ContainerIiEC2Ev
FNDA:2,_ZNK12my_container6VectorIiEneERK9ContainerIiE
FNDA:1,_ZNK12my_container6VectorIiEltERKS1_
FNDA:1,_ZNK12my_container6VectorIiEleERKS1_
FNDA:1,_ZNK12my_container6VectorIiEgtERKS1_
FNDA:1,_ZNK12my_container6VectorIiEgeERKS1_
FNDA:3,_ZN12my_container6VectorIiE5beginEv
FNDA:10,_ZNK12my_container6VectorIiE6cbeginEv
FNDA:0,_ZN9ContainerIiED0Ev
FNDA:26,_ZN9ContainerIiED2Ev
FNDA:30,_ZN12my_container6VectorIiE10reallocateEm
FNDA:14,_ZN12my_container6VectorIiE8IteratorIKiEC2EPS3_
FNDA:11,_ZN12my_container6VectorIiE8IteratorIiEC2EPi
FNDA:4,_ZNK12my_container6VectorIiE8IteratorIKiEplEi
FNDA:1,_ZNK12my_container6VectorIiE8IteratorIiEplEi
FNDA:5,_ZNK12my_container6VectorIiE8IteratorIKiEmiERKS4_
FNDA:3,_ZNK12my_container6VectorIiE8IteratorIiEmiERKS3_
FNF:45
FNH:42
DA:31,25
DA:37,26
DA:48,30
DA:49,30
DA:50,0
DA:52,30
DA:53,0
DA:54,30
DA:55,48
DA:56,18
DA:57,30
DA:58,6
DA:59,30
DA:60,30
DA:70,25
DA:94,5
DA:96,8
DA:113,22
DA:114,22
DA:115,96
DA:116,74
DA:117,22
DA:124,2
DA:125,2
DA:126,8
DA:127,6
DA:128,2
DA:129,2
DA:130,1
DA:131,1
DA:132,1
DA:133,1
DA:134,1
DA:149,26
DA:150,26
DA:151,26
DA:152,26
DA:153,24
DA:154,26
DA:155,50
DA:157,25
DA:159,2
DA:160,2
DA:161,1
DA:162,1
DA:169,2
DA:171,3
DA:173,2
DA:176,0
DA:177,42
DA:178,58
DA:179,10
DA:180,28
DA:181,28
DA:182,0
DA:183,28
DA:184,27
DA:185,28
DA:186,1
DA:187,1
DA:188,1
DA:189,1
DA:191,1
DA:192,4
DA:193,3
DA:194,1
DA:195,1
DA:205,3
DA:206,3
DA:207,1
DA:208,0
DA:210,1
DA:212,3
DA:213,3
DA:214,4
DA:215,4
DA:216,2
DA:217,2
DA:219,4
DA:220,2
DA:221,2
DA:222,1
DA:224,5
DA:225,4
DA:227,2
DA:228,2
DA:241,1
DA:242,1
DA:243,1
DA:244,1
DA:245,1
DA:246,3
DA:247,3
DA:248,3
DA:249,1
DA:250,0
DA:252,1
DA:254,14
DA:255,11
DA:256,3
DA:257,3
DA:258,3
DA:260,1
DA:261,1
DA:262,3
DA:263,2
DA:264,2
DA:266,1
DA:268,2
DA:269,2
DA:270,2
DA:271,9
DA:272,7
DA:273,2
DA:274,2
DA:276,1
DA:277,1
DA:278,3
DA:279,2
DA:280,1
DA:282,1
DA:283,1
DA:284,1
DA:285,3
DA:286,2
DA:287,1
DA:288,1
DA:297,17
DA:298,17
DA:299,0
DA:300,52
DA:301,42
DA:302,7
DA:304,10
DA:306,11
DA:307,11
DA:308,11
DA:309,0
DA:310,11
DA:312,2
DA:313,2
DA:315,1
DA:316,1
DA:317,1
DA:318,1
DA:320,3
DA:322,10
LF:147
LH:139
end_of_record
