TN:
SF:/mnt/c/users/t470/desktop/funda/lab1/project6/include/my_lib.hpp
FN:17,17,_ZN12my_smart_ptr9UniquePtrIZN25PtrTest_test_pointer_Test8TestBodyEvE9my_structEC2EPS2_
FN:17,17,_ZN12my_smart_ptr9UniquePtrIiEC2EPi
FN:18,18,_ZN12my_smart_ptr9UniquePtrIiEC2EOS1_
FN:19,19,_ZN12my_smart_ptr9UniquePtrIZN25PtrTest_test_pointer_Test8TestBodyEvE9my_structED2Ev
FN:19,19,_ZN12my_smart_ptr9UniquePtrIiED2Ev
FN:30,30,_ZNK12my_smart_ptr9UniquePtrIiE3getEv
FN:31,31,_ZNK12my_smart_ptr9UniquePtrIZN25PtrTest_test_pointer_Test8TestBodyEvE9my_structEptEv
FN:32,32,_ZNK12my_smart_ptr9UniquePtrIiEdeEv
FN:33,33,_ZNK12my_smart_ptr9UniquePtrIiEcvbEv
FN:35,39,_ZN12my_smart_ptr9UniquePtrIiE7releaseEv
FN:40,47,_ZN12my_smart_ptr9UniquePtrIZN25PtrTest_test_pointer_Test8TestBodyEvE9my_structE5resetEPS2_
FN:40,47,_ZN12my_smart_ptr9UniquePtrIiE5resetEPi
FN:48,48,_ZN12my_smart_ptr9UniquePtrIiE4swapERS1_
FN:57,57,_ZN12my_smart_ptr9UniquePtrIA_iEC2EPi
FN:58,58,_ZN12my_smart_ptr9UniquePtrIA_iEC2EOS2_
FN:59,59,_ZN12my_smart_ptr9UniquePtrIA_iED2Ev
FN:70,70,_ZNK12my_smart_ptr9UniquePtrIA_iE3getEv
FN:72,72,_ZNK12my_smart_ptr9UniquePtrIA_iEdeEv
FN:73,73,_ZNK12my_smart_ptr9UniquePtrIA_iEixEm
FN:74,74,_ZNK12my_smart_ptr9UniquePtrIA_iEcvbEv
FN:76,80,_ZN12my_smart_ptr9UniquePtrIA_iE7releaseEv
FN:81,88,_ZN12my_smart_ptr9UniquePtrIA_iE5resetEPi
FN:89,89,_ZN12my_smart_ptr9UniquePtrIA_iE4swapERS2_
FNDA:1,_ZN12my_smart_ptr9UniquePtrIZN25PtrTest_test_pointer_Test8TestBodyEvE9my_structEC2EPS2_
FNDA:7,_ZN12my_smart_ptr9UniquePtrIiEC2EPi
FNDA:2,_ZN12my_smart_ptr9UniquePtrIiEC2EOS1_
FNDA:1,_ZN12my_smart_ptr9UniquePtrIZN25PtrTest_test_pointer_Test8TestBodyEvE9my_structED2Ev
FNDA:10,_ZN12my_smart_ptr9UniquePtrIiED2Ev
FNDA:4,_ZNK12my_smart_ptr9UniquePtrIiE3getEv
FNDA:2,_ZNK12my_smart_ptr9UniquePtrIZN25PtrTest_test_pointer_Test8TestBodyEvE9my_structEptEv
FNDA:6,_ZNK12my_smart_ptr9UniquePtrIiEdeEv
FNDA:1,_ZNK12my_smart_ptr9UniquePtrIiEcvbEv
FNDA:3,_ZN12my_smart_ptr9UniquePtrIiE7releaseEv
FNDA:1,_ZN12my_smart_ptr9UniquePtrIZN25PtrTest_test_pointer_Test8TestBodyEvE9my_structE5resetEPS2_
FNDA:11,_ZN12my_smart_ptr9UniquePtrIiE5resetEPi
FNDA:1,_ZN12my_smart_ptr9UniquePtrIiE4swapERS1_
FNDA:6,_ZN12my_smart_ptr9UniquePtrIA_iEC2EPi
FNDA:2,_ZN12my_smart_ptr9UniquePtrIA_iEC2EOS2_
FNDA:10,_ZN12my_smart_ptr9UniquePtrIA_iED2Ev
FNDA:5,_ZNK12my_smart_ptr9UniquePtrIA_iE3getEv
FNDA:5,_ZNK12my_smart_ptr9UniquePtrIA_iEdeEv
FNDA:3,_ZNK12my_smart_ptr9UniquePtrIA_iEixEm
FNDA:1,_ZNK12my_smart_ptr9UniquePtrIA_iEcvbEv
FNDA:3,_ZN12my_smart_ptr9UniquePtrIA_iE7releaseEv
FNDA:11,_ZN12my_smart_ptr9UniquePtrIA_iE5resetEPi
FNDA:1,_ZN12my_smart_ptr9UniquePtrIA_iE4swapERS2_
FNF:23
FNH:23
DA:17,8
DA:18,2
DA:19,11
DA:30,4
DA:31,2
DA:32,6
DA:33,1
DA:35,3
DA:36,3
DA:37,3
DA:38,3
DA:40,12
DA:41,12
DA:42,4
DA:43,8
DA:44,8
DA:45,8
DA:46,8
DA:48,1
DA:57,6
DA:58,2
DA:59,10
DA:70,5
DA:72,5
DA:73,3
DA:74,1
DA:76,3
DA:77,3
DA:78,3
DA:79,3
DA:81,11
DA:82,11
DA:83,6
DA:84,5
DA:85,5
DA:86,5
DA:87,5
DA:89,1
LF:38
LH:38
end_of_record
