TN:
SF:/mnt/c/users/t470/desktop/funda/lab3/project1/include/my_lib.hpp
FN:103,117,_ZNK3BSTIiNSt7__cxx1112basic_stringIcSt11char_traitsIcESaIcEEE17DefaultComparatorE4findERKi
FN:118,154,_ZN3BSTIiNSt7__cxx1112basic_stringIcSt11char_traitsIcESaIcEEE17DefaultComparatorE6removeERKi
FN:167,167,_ZNK3BSTIiNSt7__cxx1112basic_stringIcSt11char_traitsIcESaIcEEE17DefaultComparatorE4sizeEv
FN:168,168,_ZNK3BSTIiNSt7__cxx1112basic_stringIcSt11char_traitsIcESaIcEEE17DefaultComparatorE8containsERKi
FN:169,169,_ZN3BSTIiNSt7__cxx1112basic_stringIcSt11char_traitsIcESaIcEEE17DefaultComparatorED2Ev
FN:169,169,_ZN3BSTIiNSt7__cxx1112basic_stringIcSt11char_traitsIcESaIcEEE17GreaterComparatorED2Ev
FN:170,175,_ZN3BSTIiNSt7__cxx1112basic_stringIcSt11char_traitsIcESaIcEEE17DefaultComparatorE7inorderEPNS7_4NodeESt8functionIFvRKiRKS5_EE
FN:170,175,_ZN3BSTIiNSt7__cxx1112basic_stringIcSt11char_traitsIcESaIcEEE17GreaterComparatorE7inorderEPNS7_4NodeESt8functionIFvRKiRKS5_EE
FN:176,176,_ZN3BSTIiNSt7__cxx1112basic_stringIcSt11char_traitsIcESaIcEEE17DefaultComparatorE7inorderESt8functionIFvRKiRKS5_EE
FN:176,176,_ZN3BSTIiNSt7__cxx1112basic_stringIcSt11char_traitsIcESaIcEEE17GreaterComparatorE7inorderESt8functionIFvRKiRKS5_EE
FN:177,182,_ZN3BSTIiNSt7__cxx1112basic_stringIcSt11char_traitsIcESaIcEEE17DefaultComparatorE9postorderEPNS7_4NodeESt8functionIFvRKiRKS5_EE
FN:183,183,_ZN3BSTIiNSt7__cxx1112basic_stringIcSt11char_traitsIcESaIcEEE17DefaultComparatorE9postorderESt8functionIFvRKiRKS5_EE
FN:184,189,_ZN3BSTIiNSt7__cxx1112basic_stringIcSt11char_traitsIcESaIcEEE17DefaultComparatorE6prefixEPNS7_4NodeESt8functionIFvRKiRKS5_EE
FN:190,190,_ZN3BSTIiNSt7__cxx1112basic_stringIcSt11char_traitsIcESaIcEEE17DefaultComparatorE6prefixESt8functionIFvRKiRKS5_EE
FN:191,195,_ZN3BSTIiNSt7__cxx1112basic_stringIcSt11char_traitsIcESaIcEEE17DefaultComparatorEC2EOS7_
FN:196,202,_ZN3BSTIiNSt7__cxx1112basic_stringIcSt11char_traitsIcESaIcEEE17DefaultComparatorE4copyEPKNS7_4NodeE
FN:20,20,_ZN10ComparatorIiED0Ev
FN:20,20,_ZN10ComparatorIiED2Ev
FN:203,205,_ZN3BSTIiNSt7__cxx1112basic_stringIcSt11char_traitsIcESaIcEEE17DefaultComparatorEC2ERKS7_
FN:224,224,_ZN3BSTIiNSt7__cxx1112basic_stringIcSt11char_traitsIcESaIcEEE17DefaultComparatorE8IteratorINS7_4NodeEEC2EPS9_
FN:224,224,_ZN3BSTIiNSt7__cxx1112basic_stringIcSt11char_traitsIcESaIcEEE17GreaterComparatorE8IteratorINS7_4NodeEEC2EPS9_
FN:225,225,_ZN3BSTIiNSt7__cxx1112basic_stringIcSt11char_traitsIcESaIcEEE17DefaultComparatorE8IteratorINS7_4NodeEEC2EPS9_RKSt5stackISB_St5dequeISB_SaISB_EEE
FN:225,225,_ZN3BSTIiNSt7__cxx1112basic_stringIcSt11char_traitsIcESaIcEEE17GreaterComparatorE8IteratorINS7_4NodeEEC2EPS9_RKSt5stackISB_St5dequeISB_SaISB_EEE
FN:226,243,_ZN3BSTIiNSt7__cxx1112basic_stringIcSt11char_traitsIcESaIcEEE17DefaultComparatorE8IteratorINS7_4NodeEEppEv
FN:226,243,_ZN3BSTIiNSt7__cxx1112basic_stringIcSt11char_traitsIcESaIcEEE17GreaterComparatorE8IteratorINS7_4NodeEEppEv
FN:249,249,_ZNK3BSTIiNSt7__cxx1112basic_stringIcSt11char_traitsIcESaIcEEE17DefaultComparatorE8IteratorINS7_4NodeEEeqERKSA_
FN:249,249,_ZNK3BSTIiNSt7__cxx1112basic_stringIcSt11char_traitsIcESaIcEEE17GreaterComparatorE8IteratorINS7_4NodeEEeqERKSA_
FN:250,250,_ZNK3BSTIiNSt7__cxx1112basic_stringIcSt11char_traitsIcESaIcEEE17DefaultComparatorE8IteratorINS7_4NodeEEneERKSA_
FN:250,250,_ZNK3BSTIiNSt7__cxx1112basic_stringIcSt11char_traitsIcESaIcEEE17GreaterComparatorE8IteratorINS7_4NodeEEneERKSA_
FN:251,254,_ZN3BSTIiNSt7__cxx1112basic_stringIcSt11char_traitsIcESaIcEEE17DefaultComparatorE8IteratorINS7_4NodeEEdeEv
FN:251,254,_ZN3BSTIiNSt7__cxx1112basic_stringIcSt11char_traitsIcESaIcEEE17GreaterComparatorE8IteratorINS7_4NodeEEdeEv
FN:263,263,_ZN3BSTIiNSt7__cxx1112basic_stringIcSt11char_traitsIcESaIcEEE17DefaultComparatorE3endEv
FN:263,263,_ZN3BSTIiNSt7__cxx1112basic_stringIcSt11char_traitsIcESaIcEEE17GreaterComparatorE3endEv
FN:264,273,_ZN3BSTIiNSt7__cxx1112basic_stringIcSt11char_traitsIcESaIcEEE17DefaultComparatorE5beginEv
FN:264,273,_ZN3BSTIiNSt7__cxx1112basic_stringIcSt11char_traitsIcESaIcEEE17GreaterComparatorE5beginEv
FN:27,27,_ZNK17DefaultComparatorIiE7compareERKiS2_
FN:293,293,_ZN5MyMapIiNSt7__cxx1112basic_stringIcSt11char_traitsIcESaIcEEE3BST17DefaultComparatorEC2Ev
FN:293,293,_ZN5MyMapIiNSt7__cxx1112basic_stringIcSt11char_traitsIcESaIcEEE3BST17GreaterComparatorEC2Ev
FN:294,294,_ZN5MyMapIiNSt7__cxx1112basic_stringIcSt11char_traitsIcESaIcEEE3BST17DefaultComparatorEC2ERKS8_
FN:295,295,_ZN5MyMapIiNSt7__cxx1112basic_stringIcSt11char_traitsIcESaIcEEE3BST17DefaultComparatorEC2EOS8_
FN:300,300,_ZN5MyMapIiNSt7__cxx1112basic_stringIcSt11char_traitsIcESaIcEEE3BST17DefaultComparatorED2Ev
FN:300,300,_ZN5MyMapIiNSt7__cxx1112basic_stringIcSt11char_traitsIcESaIcEEE3BST17GreaterComparatorED2Ev
FN:302,302,_ZN5MyMapIiNSt7__cxx1112basic_stringIcSt11char_traitsIcESaIcEEE3BST17DefaultComparatorE6insertERKiRKS5_
FN:302,302,_ZN5MyMapIiNSt7__cxx1112basic_stringIcSt11char_traitsIcESaIcEEE3BST17GreaterComparatorE6insertERKiRKS5_
FN:303,303,_ZNK5MyMapIiNSt7__cxx1112basic_stringIcSt11char_traitsIcESaIcEEE3BST17DefaultComparatorE4findERKi
FN:304,304,_ZN5MyMapIiNSt7__cxx1112basic_stringIcSt11char_traitsIcESaIcEEE3BST17DefaultComparatorE6removeERKi
FN:305,305,_ZNK5MyMapIiNSt7__cxx1112basic_stringIcSt11char_traitsIcESaIcEEE3BST17DefaultComparatorE8containsERKi
FN:307,307,_ZNK5MyMapIiNSt7__cxx1112basic_stringIcSt11char_traitsIcESaIcEEE3BST17DefaultComparatorE4sizeEv
FN:309,309,_ZN5MyMapIiNSt7__cxx1112basic_stringIcSt11char_traitsIcESaIcEEE3BST17DefaultComparatorE5beginEv
FN:310,310,_ZN5MyMapIiNSt7__cxx1112basic_stringIcSt11char_traitsIcESaIcEEE3BST17DefaultComparatorE3endEv
FN:314,314,_ZN5MyMapIiNSt7__cxx1112basic_stringIcSt11char_traitsIcESaIcEEE3BST17DefaultComparatorE7inorderESt8functionIFvRKiRKS5_EE
FN:314,314,_ZN5MyMapIiNSt7__cxx1112basic_stringIcSt11char_traitsIcESaIcEEE3BST17GreaterComparatorE7inorderESt8functionIFvRKiRKS5_EE
FN:33,33,_ZNK17GreaterComparatorIiE7compareERKiS2_
FN:45,45,_ZN3BSTIiNSt7__cxx1112basic_stringIcSt11char_traitsIcESaIcEEE17DefaultComparatorE4NodeC2ERKiRKS5_
FN:45,45,_ZN3BSTIiNSt7__cxx1112basic_stringIcSt11char_traitsIcESaIcEEE17GreaterComparatorE4NodeC2ERKiRKS5_
FN:46,46,_ZN3BSTIiNSt7__cxx1112basic_stringIcSt11char_traitsIcESaIcEEE17DefaultComparatorE4NodeD2Ev
FN:46,46,_ZN3BSTIiNSt7__cxx1112basic_stringIcSt11char_traitsIcESaIcEEE17GreaterComparatorE4NodeD2Ev
FN:47,47,_ZNK3BSTIiNSt7__cxx1112basic_stringIcSt11char_traitsIcESaIcEEE17DefaultComparatorE4Node7get_keyEv
FN:47,47,_ZNK3BSTIiNSt7__cxx1112basic_stringIcSt11char_traitsIcESaIcEEE17GreaterComparatorE4Node7get_keyEv
FN:48,48,_ZNK3BSTIiNSt7__cxx1112basic_stringIcSt11char_traitsIcESaIcEEE17DefaultComparatorE4Node7get_valEv
FN:48,48,_ZNK3BSTIiNSt7__cxx1112basic_stringIcSt11char_traitsIcESaIcEEE17GreaterComparatorE4Node7get_valEv
FN:57,57,_ZN3BSTIiNSt7__cxx1112basic_stringIcSt11char_traitsIcESaIcEEE17DefaultComparatorEC2Ev
FN:57,57,_ZN3BSTIiNSt7__cxx1112basic_stringIcSt11char_traitsIcESaIcEEE17GreaterComparatorEC2Ev
FN:60,68,_ZN3BSTIiNSt7__cxx1112basic_stringIcSt11char_traitsIcESaIcEEE17DefaultComparatorE16delete_all_nodesERPNS7_4NodeE
FN:60,68,_ZN3BSTIiNSt7__cxx1112basic_stringIcSt11char_traitsIcESaIcEEE17GreaterComparatorE16delete_all_nodesERPNS7_4NodeE
FN:69,72,_ZN3BSTIiNSt7__cxx1112basic_stringIcSt11char_traitsIcESaIcEEE17DefaultComparatorE5clearEv
FN:69,72,_ZN3BSTIiNSt7__cxx1112basic_stringIcSt11char_traitsIcESaIcEEE17GreaterComparatorE5clearEv
FN:73,102,_ZN3BSTIiNSt7__cxx1112basic_stringIcSt11char_traitsIcESaIcEEE17DefaultComparatorE6insertERKiRKS5_
FN:73,102,_ZN3BSTIiNSt7__cxx1112basic_stringIcSt11char_traitsIcESaIcEEE17GreaterComparatorE6insertERKiRKS5_
FNDA:96,_ZNK3BSTIiNSt7__cxx1112basic_stringIcSt11char_traitsIcESaIcEEE17DefaultComparatorE4findERKi
FNDA:15,_ZN3BSTIiNSt7__cxx1112basic_stringIcSt11char_traitsIcESaIcEEE17DefaultComparatorE6removeERKi
FNDA:69,_ZNK3BSTIiNSt7__cxx1112basic_stringIcSt11char_traitsIcESaIcEEE17DefaultComparatorE4sizeEv
FNDA:78,_ZNK3BSTIiNSt7__cxx1112basic_stringIcSt11char_traitsIcESaIcEEE17DefaultComparatorE8containsERKi
FNDA:51,_ZN3BSTIiNSt7__cxx1112basic_stringIcSt11char_traitsIcESaIcEEE17DefaultComparatorED2Ev
FNDA:6,_ZN3BSTIiNSt7__cxx1112basic_stringIcSt11char_traitsIcESaIcEEE17GreaterComparatorED2Ev
FNDA:66,_ZN3BSTIiNSt7__cxx1112basic_stringIcSt11char_traitsIcESaIcEEE17DefaultComparatorE7inorderEPNS7_4NodeESt8functionIFvRKiRKS5_EE
FNDA:21,_ZN3BSTIiNSt7__cxx1112basic_stringIcSt11char_traitsIcESaIcEEE17GreaterComparatorE7inorderEPNS7_4NodeESt8functionIFvRKiRKS5_EE
FNDA:6,_ZN3BSTIiNSt7__cxx1112basic_stringIcSt11char_traitsIcESaIcEEE17DefaultComparatorE7inorderESt8functionIFvRKiRKS5_EE
FNDA:3,_ZN3BSTIiNSt7__cxx1112basic_stringIcSt11char_traitsIcESaIcEEE17GreaterComparatorE7inorderESt8functionIFvRKiRKS5_EE
FNDA:45,_ZN3BSTIiNSt7__cxx1112basic_stringIcSt11char_traitsIcESaIcEEE17DefaultComparatorE9postorderEPNS7_4NodeESt8functionIFvRKiRKS5_EE
FNDA:3,_ZN3BSTIiNSt7__cxx1112basic_stringIcSt11char_traitsIcESaIcEEE17DefaultComparatorE9postorderESt8functionIFvRKiRKS5_EE
FNDA:45,_ZN3BSTIiNSt7__cxx1112basic_stringIcSt11char_traitsIcESaIcEEE17DefaultComparatorE6prefixEPNS7_4NodeESt8functionIFvRKiRKS5_EE
FNDA:3,_ZN3BSTIiNSt7__cxx1112basic_stringIcSt11char_traitsIcESaIcEEE17DefaultComparatorE6prefixESt8functionIFvRKiRKS5_EE
FNDA:6,_ZN3BSTIiNSt7__cxx1112basic_stringIcSt11char_traitsIcESaIcEEE17DefaultComparatorEC2EOS7_
FNDA:36,_ZN3BSTIiNSt7__cxx1112basic_stringIcSt11char_traitsIcESaIcEEE17DefaultComparatorE4copyEPKNS7_4NodeE
FNDA:0,_ZN10ComparatorIiED0Ev
FNDA:51,_ZN10ComparatorIiED2Ev
FNDA:6,_ZN3BSTIiNSt7__cxx1112basic_stringIcSt11char_traitsIcESaIcEEE17DefaultComparatorEC2ERKS7_
FNDA:54,_ZN3BSTIiNSt7__cxx1112basic_stringIcSt11char_traitsIcESaIcEEE17DefaultComparatorE8IteratorINS7_4NodeEEC2EPS9_
FNDA:12,_ZN3BSTIiNSt7__cxx1112basic_stringIcSt11char_traitsIcESaIcEEE17GreaterComparatorE8IteratorINS7_4NodeEEC2EPS9_
FNDA:6,_ZN3BSTIiNSt7__cxx1112basic_stringIcSt11char_traitsIcESaIcEEE17DefaultComparatorE8IteratorINS7_4NodeEEC2EPS9_RKSt5stackISB_St5dequeISB_SaISB_EEE
FNDA:3,_ZN3BSTIiNSt7__cxx1112basic_stringIcSt11char_traitsIcESaIcEEE17GreaterComparatorE8IteratorINS7_4NodeEEC2EPS9_RKSt5stackISB_St5dequeISB_SaISB_EEE
FNDA:30,_ZN3BSTIiNSt7__cxx1112basic_stringIcSt11char_traitsIcESaIcEEE17DefaultComparatorE8IteratorINS7_4NodeEEppEv
FNDA:9,_ZN3BSTIiNSt7__cxx1112basic_stringIcSt11char_traitsIcESaIcEEE17GreaterComparatorE8IteratorINS7_4NodeEEppEv
FNDA:45,_ZNK3BSTIiNSt7__cxx1112basic_stringIcSt11char_traitsIcESaIcEEE17DefaultComparatorE8IteratorINS7_4NodeEEeqERKSA_
FNDA:12,_ZNK3BSTIiNSt7__cxx1112basic_stringIcSt11char_traitsIcESaIcEEE17GreaterComparatorE8IteratorINS7_4NodeEEeqERKSA_
FNDA:36,_ZNK3BSTIiNSt7__cxx1112basic_stringIcSt11char_traitsIcESaIcEEE17DefaultComparatorE8IteratorINS7_4NodeEEneERKSA_
FNDA:12,_ZNK3BSTIiNSt7__cxx1112basic_stringIcSt11char_traitsIcESaIcEEE17GreaterComparatorE8IteratorINS7_4NodeEEneERKSA_
FNDA:60,_ZN3BSTIiNSt7__cxx1112basic_stringIcSt11char_traitsIcESaIcEEE17DefaultComparatorE8IteratorINS7_4NodeEEdeEv
FNDA:18,_ZN3BSTIiNSt7__cxx1112basic_stringIcSt11char_traitsIcESaIcEEE17GreaterComparatorE8IteratorINS7_4NodeEEdeEv
FNDA:45,_ZN3BSTIiNSt7__cxx1112basic_stringIcSt11char_traitsIcESaIcEEE17DefaultComparatorE3endEv
FNDA:12,_ZN3BSTIiNSt7__cxx1112basic_stringIcSt11char_traitsIcESaIcEEE17GreaterComparatorE3endEv
FNDA:15,_ZN3BSTIiNSt7__cxx1112basic_stringIcSt11char_traitsIcESaIcEEE17DefaultComparatorE5beginEv
FNDA:3,_ZN3BSTIiNSt7__cxx1112basic_stringIcSt11char_traitsIcESaIcEEE17GreaterComparatorE5beginEv
FNDA:585,_ZNK17DefaultComparatorIiE7compareERKiS2_
FNDA:12,_ZN5MyMapIiNSt7__cxx1112basic_stringIcSt11char_traitsIcESaIcEEE3BST17DefaultComparatorEC2Ev
FNDA:3,_ZN5MyMapIiNSt7__cxx1112basic_stringIcSt11char_traitsIcESaIcEEE3BST17GreaterComparatorEC2Ev
FNDA:3,_ZN5MyMapIiNSt7__cxx1112basic_stringIcSt11char_traitsIcESaIcEEE3BST17DefaultComparatorEC2ERKS8_
FNDA:3,_ZN5MyMapIiNSt7__cxx1112basic_stringIcSt11char_traitsIcESaIcEEE3BST17DefaultComparatorEC2EOS8_
FNDA:18,_ZN5MyMapIiNSt7__cxx1112basic_stringIcSt11char_traitsIcESaIcEEE3BST17DefaultComparatorED2Ev
FNDA:3,_ZN5MyMapIiNSt7__cxx1112basic_stringIcSt11char_traitsIcESaIcEEE3BST17GreaterComparatorED2Ev
FNDA:36,_ZN5MyMapIiNSt7__cxx1112basic_stringIcSt11char_traitsIcESaIcEEE3BST17DefaultComparatorE6insertERKiRKS5_
FNDA:9,_ZN5MyMapIiNSt7__cxx1112basic_stringIcSt11char_traitsIcESaIcEEE3BST17GreaterComparatorE6insertERKiRKS5_
FNDA:3,_ZNK5MyMapIiNSt7__cxx1112basic_stringIcSt11char_traitsIcESaIcEEE3BST17DefaultComparatorE4findERKi
FNDA:3,_ZN5MyMapIiNSt7__cxx1112basic_stringIcSt11char_traitsIcESaIcEEE3BST17DefaultComparatorE6removeERKi
FNDA:27,_ZNK5MyMapIiNSt7__cxx1112basic_stringIcSt11char_traitsIcESaIcEEE3BST17DefaultComparatorE8containsERKi
FNDA:21,_ZNK5MyMapIiNSt7__cxx1112basic_stringIcSt11char_traitsIcESaIcEEE3BST17DefaultComparatorE4sizeEv
FNDA:6,_ZN5MyMapIiNSt7__cxx1112basic_stringIcSt11char_traitsIcESaIcEEE3BST17DefaultComparatorE5beginEv
FNDA:15,_ZN5MyMapIiNSt7__cxx1112basic_stringIcSt11char_traitsIcESaIcEEE3BST17DefaultComparatorE3endEv
FNDA:3,_ZN5MyMapIiNSt7__cxx1112basic_stringIcSt11char_traitsIcESaIcEEE3BST17DefaultComparatorE7inorderESt8functionIFvRKiRKS5_EE
FNDA:3,_ZN5MyMapIiNSt7__cxx1112basic_stringIcSt11char_traitsIcESaIcEEE3BST17GreaterComparatorE7inorderESt8functionIFvRKiRKS5_EE
FNDA:21,_ZNK17GreaterComparatorIiE7compareERKiS2_
FNDA:147,_ZN3BSTIiNSt7__cxx1112basic_stringIcSt11char_traitsIcESaIcEEE17DefaultComparatorE4NodeC2ERKiRKS5_
FNDA:18,_ZN3BSTIiNSt7__cxx1112basic_stringIcSt11char_traitsIcESaIcEEE17GreaterComparatorE4NodeC2ERKiRKS5_
FNDA:147,_ZN3BSTIiNSt7__cxx1112basic_stringIcSt11char_traitsIcESaIcEEE17DefaultComparatorE4NodeD2Ev
FNDA:18,_ZN3BSTIiNSt7__cxx1112basic_stringIcSt11char_traitsIcESaIcEEE17GreaterComparatorE4NodeD2Ev
FNDA:30,_ZNK3BSTIiNSt7__cxx1112basic_stringIcSt11char_traitsIcESaIcEEE17DefaultComparatorE4Node7get_keyEv
FNDA:9,_ZNK3BSTIiNSt7__cxx1112basic_stringIcSt11char_traitsIcESaIcEEE17GreaterComparatorE4Node7get_keyEv
FNDA:30,_ZNK3BSTIiNSt7__cxx1112basic_stringIcSt11char_traitsIcESaIcEEE17DefaultComparatorE4Node7get_valEv
FNDA:9,_ZNK3BSTIiNSt7__cxx1112basic_stringIcSt11char_traitsIcESaIcEEE17GreaterComparatorE4Node7get_valEv
FNDA:39,_ZN3BSTIiNSt7__cxx1112basic_stringIcSt11char_traitsIcESaIcEEE17DefaultComparatorEC2Ev
FNDA:6,_ZN3BSTIiNSt7__cxx1112basic_stringIcSt11char_traitsIcESaIcEEE17GreaterComparatorEC2Ev
FNDA:324,_ZN3BSTIiNSt7__cxx1112basic_stringIcSt11char_traitsIcESaIcEEE17DefaultComparatorE16delete_all_nodesERPNS7_4NodeE
FNDA:42,_ZN3BSTIiNSt7__cxx1112basic_stringIcSt11char_traitsIcESaIcEEE17GreaterComparatorE16delete_all_nodesERPNS7_4NodeE
FNDA:54,_ZN3BSTIiNSt7__cxx1112basic_stringIcSt11char_traitsIcESaIcEEE17DefaultComparatorE5clearEv
FNDA:6,_ZN3BSTIiNSt7__cxx1112basic_stringIcSt11char_traitsIcESaIcEEE17GreaterComparatorE5clearEv
FNDA:135,_ZN3BSTIiNSt7__cxx1112basic_stringIcSt11char_traitsIcESaIcEEE17DefaultComparatorE6insertERKiRKS5_
FNDA:18,_ZN3BSTIiNSt7__cxx1112basic_stringIcSt11char_traitsIcESaIcEEE17GreaterComparatorE6insertERKiRKS5_
FNF:69
FNH:68
DA:20,51
DA:27,585
DA:33,21
DA:45,165
DA:46,165
DA:47,39
DA:48,39
DA:57,45
DA:60,366
DA:61,366
DA:62,213
DA:64,153
DA:65,153
DA:66,153
DA:67,153
DA:69,60
DA:70,60
DA:71,60
DA:72,60
DA:73,153
DA:74,153
DA:75,39
DA:76,39
DA:77,39
DA:79,114
DA:81,165
DA:82,75
DA:83,51
DA:84,51
DA:85,51
DA:87,24
DA:89,90
DA:90,87
DA:91,60
DA:92,60
DA:93,60
DA:95,27
DA:98,3
DA:99,3
DA:103,96
DA:104,96
DA:105,201
DA:106,165
DA:107,36
DA:109,129
DA:110,69
DA:113,60
DA:116,36
DA:118,15
DA:119,15
DA:120,15
DA:121,36
DA:122,33
DA:123,9
DA:124,9
DA:126,24
DA:127,12
DA:128,12
DA:131,12
DA:134,15
DA:135,12
DA:136,9
DA:137,9
DA:138,9
DA:139,9
DA:141,3
DA:142,3
DA:143,6
DA:144,3
DA:145,3
DA:147,3
DA:148,3
DA:149,3
DA:150,3
DA:151,3
DA:153,12
DA:167,69
DA:168,78
DA:169,57
DA:170,87
DA:171,87
DA:172,39
DA:173,39
DA:174,39
DA:176,9
DA:177,45
DA:178,45
DA:179,21
DA:180,21
DA:181,21
DA:183,3
DA:184,45
DA:185,45
DA:186,21
DA:187,21
DA:188,21
DA:190,3
DA:191,6
DA:192,6
DA:193,6
DA:194,6
DA:195,6
DA:196,36
DA:197,36
DA:198,15
DA:199,15
DA:200,15
DA:201,15
DA:203,6
DA:204,6
DA:205,6
DA:224,66
DA:225,9
DA:226,39
DA:227,39
DA:228,39
DA:229,15
DA:230,18
DA:231,3
DA:232,3
DA:236,24
DA:238,15
DA:239,15
DA:242,39
DA:249,57
DA:250,48
DA:251,78
DA:252,78
DA:253,78
DA:263,57
DA:264,18
DA:265,18
DA:266,18
DA:267,9
DA:268,21
DA:269,12
DA:270,12
DA:272,9
DA:273,9
DA:293,15
DA:294,3
DA:295,3
DA:300,21
DA:302,45
DA:303,3
DA:304,3
DA:305,27
DA:307,21
DA:309,6
DA:310,15
DA:314,6
LF:151
LH:151
end_of_record
