TN:
SF:/mnt/c/users/t470/desktop/funda/lab11/project2/build/_deps/googletest-src/googletest/include/gtest/gtest-assertion-result.h
FN:155,161,_ZN7testing15AssertionResultC2IbEERKT_PNSt9enable_ifIXntsrSt14is_convertibleIS2_S0_E5valueEvE4typeE
FN:174,174,_ZNK7testing15AssertionResultcvbEv
FN:183,185,_ZNK7testing15AssertionResult7messageEv
FN:187,187,_ZNK7testing15AssertionResult15failure_messageEv
FN:191,194,_ZN7testing15AssertionResultlsIA100_cEERS0_RKT_
FN:191,194,_ZN7testing15AssertionResultlsIA106_cEERS0_RKT_
FN:191,194,_ZN7testing15AssertionResultlsIA11_cEERS0_RKT_
FN:191,194,_ZN7testing15AssertionResultlsIA12_cEERS0_RKT_
FN:191,194,_ZN7testing15AssertionResultlsIA13_cEERS0_RKT_
FN:191,194,_ZN7testing15AssertionResultlsIA14_cEERS0_RKT_
FN:191,194,_ZN7testing15AssertionResultlsIA15_cEERS0_RKT_
FN:191,194,_ZN7testing15AssertionResultlsIA16_cEERS0_RKT_
FN:191,194,_ZN7testing15AssertionResultlsIA17_cEERS0_RKT_
FN:191,194,_ZN7testing15AssertionResultlsIA24_cEERS0_RKT_
FN:191,194,_ZN7testing15AssertionResultlsIA27_cEERS0_RKT_
FN:191,194,_ZN7testing15AssertionResultlsIA29_cEERS0_RKT_
FN:191,194,_ZN7testing15AssertionResultlsIA2_cEERS0_RKT_
FN:191,194,_ZN7testing15AssertionResultlsIA3_cEERS0_RKT_
FN:191,194,_ZN7testing15AssertionResultlsIA5_cEERS0_RKT_
FN:191,194,_ZN7testing15AssertionResultlsIA6_cEERS0_RKT_
FN:191,194,_ZN7testing15AssertionResultlsIA7_cEERS0_RKT_
FN:191,194,_ZN7testing15AssertionResultlsIA9_cEERS0_RKT_
FN:191,194,_ZN7testing15AssertionResultlsINS_14TestPartResultEEERS0_RKT_
FN:191,194,_ZN7testing15AssertionResultlsINS_7MessageEEERS0_RKT_
FN:191,194,_ZN7testing15AssertionResultlsINSt7__cxx1112basic_stringIcSt11char_traitsIcESaIcEEEEERS0_RKT_
FN:191,194,_ZN7testing15AssertionResultlsINSt7__cxx1112basic_stringIwSt11char_traitsIwESaIwEEEEERS0_RKT_
FN:191,194,_ZN7testing15AssertionResultlsIPKcEERS0_RKT_
FN:191,194,_ZN7testing15AssertionResultlsIPKwEERS0_RKT_
FN:191,194,_ZN7testing15AssertionResultlsIdEERS0_RKT_
FN:206,209,_ZN7testing15AssertionResult13AppendMessageERKNS_7MessageE
FNDA:52,_ZN7testing15AssertionResultC2IbEERKT_PNSt9enable_ifIXntsrSt14is_convertibleIS2_S0_E5valueEvE4typeE
FNDA:52,_ZNK7testing15AssertionResultcvbEv
FNDA:0,_ZNK7testing15AssertionResult7messageEv
FNDA:0,_ZNK7testing15AssertionResult15failure_messageEv
FNDA:0,_ZN7testing15AssertionResultlsIA100_cEERS0_RKT_
FNDA:0,_ZN7testing15AssertionResultlsIA106_cEERS0_RKT_
FNDA:0,_ZN7testing15AssertionResultlsIA11_cEERS0_RKT_
FNDA:0,_ZN7testing15AssertionResultlsIA12_cEERS0_RKT_
FNDA:0,_ZN7testing15AssertionResultlsIA13_cEERS0_RKT_
FNDA:0,_ZN7testing15AssertionResultlsIA14_cEERS0_RKT_
FNDA:0,_ZN7testing15AssertionResultlsIA15_cEERS0_RKT_
FNDA:0,_ZN7testing15AssertionResultlsIA16_cEERS0_RKT_
FNDA:0,_ZN7testing15AssertionResultlsIA17_cEERS0_RKT_
FNDA:0,_ZN7testing15AssertionResultlsIA24_cEERS0_RKT_
FNDA:0,_ZN7testing15AssertionResultlsIA27_cEERS0_RKT_
FNDA:0,_ZN7testing15AssertionResultlsIA29_cEERS0_RKT_
FNDA:0,_ZN7testing15AssertionResultlsIA2_cEERS0_RKT_
FNDA:0,_ZN7testing15AssertionResultlsIA3_cEERS0_RKT_
FNDA:0,_ZN7testing15AssertionResultlsIA5_cEERS0_RKT_
FNDA:0,_ZN7testing15AssertionResultlsIA6_cEERS0_RKT_
FNDA:0,_ZN7testing15AssertionResultlsIA7_cEERS0_RKT_
FNDA:0,_ZN7testing15AssertionResultlsIA9_cEERS0_RKT_
FNDA:0,_ZN7testing15AssertionResultlsINS_14TestPartResultEEERS0_RKT_
FNDA:0,_ZN7testing15AssertionResultlsINS_7MessageEEERS0_RKT_
FNDA:0,_ZN7testing15AssertionResultlsINSt7__cxx1112basic_stringIcSt11char_traitsIcESaIcEEEEERS0_RKT_
FNDA:0,_ZN7testing15AssertionResultlsINSt7__cxx1112basic_stringIwSt11char_traitsIwESaIwEEEEERS0_RKT_
FNDA:0,_ZN7testing15AssertionResultlsIPKcEERS0_RKT_
FNDA:0,_ZN7testing15AssertionResultlsIPKwEERS0_RKT_
FNDA:0,_ZN7testing15AssertionResultlsIdEERS0_RKT_
FNDA:0,_ZN7testing15AssertionResult13AppendMessageERKNS_7MessageE
FNF:30
FNH:2
DA:155,52
DA:161,52
DA:174,52
DA:183,0
DA:184,0
DA:187,0
DA:191,0
DA:192,0
DA:193,0
DA:206,0
DA:207,0
DA:208,0
DA:209,0
LF:13
LH:3
end_of_record
TN:
SF:/mnt/c/users/t470/desktop/funda/lab11/project2/build/_deps/googletest-src/googletest/include/gtest/gtest-matchers.h
FN:110,110,_ZN7testing19MatchResultListenerD0Ev
FN:110,110,_ZN7testing19MatchResultListenerD2Ev
FN:116,116,_ZN7testing25MatcherDescriberInterfaceD0Ev
FN:116,116,_ZN7testing25MatcherDescriberInterfaceD2Ev
FN:131,135,_ZNK7testing25MatcherDescriberInterface18DescribeNegationToEPSo
FN:185,185,_ZN7testing8internal24DummyMatchResultListenerC2Ev
FN:209,209,_ZN7testing8internal17SharedPayloadBase5UnrefEv
FN:215,215,_ZN7testing8internal13SharedPayloadINS0_9EqMatcherINSt7__cxx1112basic_stringIcSt11char_traitsIcESaIcEEEEEEC2EOS9_
FN:217,219,_ZN7testing8internal13SharedPayloadINS0_9EqMatcherINSt7__cxx1112basic_stringIcSt11char_traitsIcESaIcEEEEEE7DestroyEPNS0_17SharedPayloadBaseE
FN:232,235,_ZNK7testing8internal11MatcherBaseIRKNSt7__cxx1112basic_stringIcSt11char_traitsIcESaIcEEEE15MatchAndExplainES9_PNS_19MatchResultListenerE
FN:238,241,_ZNK7testing8internal11MatcherBaseIRKNSt7__cxx1112basic_stringIcSt11char_traitsIcESaIcEEEE7MatchesES9_
FN:244,247,_ZNK7testing8internal11MatcherBaseINSt7__cxx1112basic_stringIcSt11char_traitsIcESaIcEEEE10DescribeToEPSo
FN:244,247,_ZNK7testing8internal11MatcherBaseIRKNSt7__cxx1112basic_stringIcSt11char_traitsIcESaIcEEEE10DescribeToEPSo
FN:244,247,_ZNK7testing8internal11MatcherBaseIRKSt17basic_string_viewIcSt11char_traitsIcEEE10DescribeToEPSo
FN:244,247,_ZNK7testing8internal11MatcherBaseISt17basic_string_viewIcSt11char_traitsIcEEE10DescribeToEPSo
FN:250,253,_ZNK7testing8internal11MatcherBaseINSt7__cxx1112basic_stringIcSt11char_traitsIcESaIcEEEE18DescribeNegationToEPSo
FN:250,253,_ZNK7testing8internal11MatcherBaseIRKNSt7__cxx1112basic_stringIcSt11char_traitsIcESaIcEEEE18DescribeNegationToEPSo
FN:250,253,_ZNK7testing8internal11MatcherBaseIRKSt17basic_string_viewIcSt11char_traitsIcEEE18DescribeNegationToEPSo
FN:250,253,_ZNK7testing8internal11MatcherBaseISt17basic_string_viewIcSt11char_traitsIcEEE18DescribeNegationToEPSo
FN:270,270,_ZN7testing8internal11MatcherBaseINSt7__cxx1112basic_stringIcSt11char_traitsIcESaIcEEEEC2Ev
FN:270,270,_ZN7testing8internal11MatcherBaseIRKNSt7__cxx1112basic_stringIcSt11char_traitsIcESaIcEEEEC2Ev
FN:270,270,_ZN7testing8internal11MatcherBaseIRKSt17basic_string_viewIcSt11char_traitsIcEEEC2Ev
FN:270,270,_ZN7testing8internal11MatcherBaseISt17basic_string_viewIcSt11char_traitsIcEEEC2Ev
FN:281,283,_ZN7testing8internal11MatcherBaseINSt7__cxx1112basic_stringIcSt11char_traitsIcESaIcEEEEC2INS0_9EqMatcherIS7_EEvEEOT_
FN:281,283,_ZN7testing8internal11MatcherBaseIRKNSt7__cxx1112basic_stringIcSt11char_traitsIcESaIcEEEEC2INS0_9EqMatcherIS7_EEvEEOT_
FN:281,283,_ZN7testing8internal11MatcherBaseIRKSt17basic_string_viewIcSt11char_traitsIcEEEC2INS0_9EqMatcherINSt7__cxx1112basic_stringIcS4_SaIcEEEEEvEEOT_
FN:281,283,_ZN7testing8internal11MatcherBaseISt17basic_string_viewIcSt11char_traitsIcEEEC2INS0_9EqMatcherINSt7__cxx1112basic_stringIcS4_SaIcEEEEEvEEOT_
FN:299,302,_ZN7testing8internal11MatcherBaseIRKNSt7__cxx1112basic_stringIcSt11char_traitsIcESaIcEEEEC2EOSA_
FN:304,311,_ZN7testing8internal11MatcherBaseINSt7__cxx1112basic_stringIcSt11char_traitsIcESaIcEEEEaSEOS8_
FN:304,311,_ZN7testing8internal11MatcherBaseIRKNSt7__cxx1112basic_stringIcSt11char_traitsIcESaIcEEEEaSEOSA_
FN:304,311,_ZN7testing8internal11MatcherBaseIRKSt17basic_string_viewIcSt11char_traitsIcEEEaSEOS8_
FN:304,311,_ZN7testing8internal11MatcherBaseISt17basic_string_viewIcSt11char_traitsIcEEEaSEOS6_
FN:313,313,_ZN7testing8internal11MatcherBaseINSt7__cxx1112basic_stringIcSt11char_traitsIcESaIcEEEED0Ev
FN:313,313,_ZN7testing8internal11MatcherBaseINSt7__cxx1112basic_stringIcSt11char_traitsIcESaIcEEEED2Ev
FN:313,313,_ZN7testing8internal11MatcherBaseIRKNSt7__cxx1112basic_stringIcSt11char_traitsIcESaIcEEEED0Ev
FN:313,313,_ZN7testing8internal11MatcherBaseIRKNSt7__cxx1112basic_stringIcSt11char_traitsIcESaIcEEEED2Ev
FN:313,313,_ZN7testing8internal11MatcherBaseIRKSt17basic_string_viewIcSt11char_traitsIcEEED0Ev
FN:313,313,_ZN7testing8internal11MatcherBaseIRKSt17basic_string_viewIcSt11char_traitsIcEEED2Ev
FN:313,313,_ZN7testing8internal11MatcherBaseISt17basic_string_viewIcSt11char_traitsIcEEED0Ev
FN:313,313,_ZN7testing8internal11MatcherBaseISt17basic_string_viewIcSt11char_traitsIcEEED2Ev
FN:327,329,_ZNK7testing8internal11MatcherBaseINSt7__cxx1112basic_stringIcSt11char_traitsIcESaIcEEEE8IsSharedEv
FN:327,329,_ZNK7testing8internal11MatcherBaseIRKNSt7__cxx1112basic_stringIcSt11char_traitsIcESaIcEEEE8IsSharedEv
FN:327,329,_ZNK7testing8internal11MatcherBaseIRKSt17basic_string_viewIcSt11char_traitsIcEEE8IsSharedEv
FN:327,329,_ZNK7testing8internal11MatcherBaseISt17basic_string_viewIcSt11char_traitsIcEEE8IsSharedEv
FN:333,337,_ZN7testing8internal11MatcherBaseINSt7__cxx1112basic_stringIcSt11char_traitsIcESaIcEEEE19MatchAndExplainImplINS8_11ValuePolicyINS0_9EqMatcherIS7_EELb0EEEEEDTcldtclsrT_3Getfp_E15MatchAndExplainfp0_clptfp1_L_ZNS_19MatchResultListener6streamEvEEEERKS8_RKS7_PSF_
FN:333,337,_ZN7testing8internal11MatcherBaseIRKNSt7__cxx1112basic_stringIcSt11char_traitsIcESaIcEEEE19MatchAndExplainImplINSA_11ValuePolicyINS0_9EqMatcherIS7_EELb0EEEEEDTcldtclsrT_3Getfp_E15MatchAndExplainfp0_clptfp1_L_ZNS_19MatchResultListener6streamEvEEEERKSA_S9_PSH_
FN:333,337,_ZN7testing8internal11MatcherBaseIRKSt17basic_string_viewIcSt11char_traitsIcEEE19MatchAndExplainImplINS8_11ValuePolicyINS0_9EqMatcherINSt7__cxx1112basic_stringIcS4_SaIcEEEEELb0EEEEEDTcldtclsrT_3Getfp_E15MatchAndExplainfp0_clptfp1_L_ZNS_19MatchResultListener6streamEvEEEERKS8_S7_PSJ_
FN:333,337,_ZN7testing8internal11MatcherBaseISt17basic_string_viewIcSt11char_traitsIcEEE19MatchAndExplainImplINS6_11ValuePolicyINS0_9EqMatcherINSt7__cxx1112basic_stringIcS4_SaIcEEEEELb0EEEEEDTcldtclsrT_3Getfp_E15MatchAndExplainfp0_clptfp1_L_ZNS_19MatchResultListener6streamEvEEEERKS6_RKS5_PSH_
FN:347,354,_ZN7testing8internal11MatcherBaseINSt7__cxx1112basic_stringIcSt11char_traitsIcESaIcEEEE12DescribeImplINS8_11ValuePolicyINS0_9EqMatcherIS7_EELb0EEEEEvRKS8_PSob
FN:347,354,_ZN7testing8internal11MatcherBaseIRKNSt7__cxx1112basic_stringIcSt11char_traitsIcESaIcEEEE12DescribeImplINSA_11ValuePolicyINS0_9EqMatcherIS7_EELb0EEEEEvRKSA_PSob
FN:347,354,_ZN7testing8internal11MatcherBaseIRKSt17basic_string_viewIcSt11char_traitsIcEEE12DescribeImplINS8_11ValuePolicyINS0_9EqMatcherINSt7__cxx1112basic_stringIcS4_SaIcEEEEELb0EEEEEvRKS8_PSob
FN:347,354,_ZN7testing8internal11MatcherBaseISt17basic_string_viewIcSt11char_traitsIcEEE12DescribeImplINS6_11ValuePolicyINS0_9EqMatcherINSt7__cxx1112basic_stringIcS4_SaIcEEEEELb0EEEEEvRKS6_PSob
FN:357,370,_ZN7testing8internal11MatcherBaseINSt7__cxx1112basic_stringIcSt11char_traitsIcESaIcEEEE16GetDescriberImplINS8_11ValuePolicyINS0_9EqMatcherIS7_EELb0EEEEEPKNS_25MatcherDescriberInterfaceERKS8_
FN:357,370,_ZN7testing8internal11MatcherBaseIRKNSt7__cxx1112basic_stringIcSt11char_traitsIcESaIcEEEE16GetDescriberImplINSA_11ValuePolicyINS0_9EqMatcherIS7_EELb0EEEEEPKNS_25MatcherDescriberInterfaceERKSA_
FN:357,370,_ZN7testing8internal11MatcherBaseIRKSt17basic_string_viewIcSt11char_traitsIcEEE16GetDescriberImplINS8_11ValuePolicyINS0_9EqMatcherINSt7__cxx1112basic_stringIcS4_SaIcEEEEELb0EEEEEPKNS_25MatcherDescriberInterfaceERKS8_
FN:357,370,_ZN7testing8internal11MatcherBaseISt17basic_string_viewIcSt11char_traitsIcEEE16GetDescriberImplINS6_11ValuePolicyINS0_9EqMatcherINSt7__cxx1112basic_stringIcS4_SaIcEEEEELb0EEEEEPKNS_25MatcherDescriberInterfaceERKS6_
FN:373,378,_ZN7testing8internal11MatcherBaseINSt7__cxx1112basic_stringIcSt11char_traitsIcESaIcEEEE9GetVTableINS8_11ValuePolicyINS0_9EqMatcherIS7_EELb0EEEEEPKNS8_6VTableEv
FN:373,378,_ZN7testing8internal11MatcherBaseIRKNSt7__cxx1112basic_stringIcSt11char_traitsIcESaIcEEEE9GetVTableINSA_11ValuePolicyINS0_9EqMatcherIS7_EELb0EEEEEPKNSA_6VTableEv
FN:373,378,_ZN7testing8internal11MatcherBaseIRKSt17basic_string_viewIcSt11char_traitsIcEEE9GetVTableINS8_11ValuePolicyINS0_9EqMatcherINSt7__cxx1112basic_stringIcS4_SaIcEEEEELb0EEEEEPKNS8_6VTableEv
FN:373,378,_ZN7testing8internal11MatcherBaseISt17basic_string_viewIcSt11char_traitsIcEEE9GetVTableINS6_11ValuePolicyINS0_9EqMatcherINSt7__cxx1112basic_stringIcS4_SaIcEEEEELb0EEEEEPKNS6_6VTableEv
FN:389,393,_ZN7testing8internal11MatcherBaseINSt7__cxx1112basic_stringIcSt11char_traitsIcESaIcEEEE7DestroyEv
FN:389,393,_ZN7testing8internal11MatcherBaseIRKNSt7__cxx1112basic_stringIcSt11char_traitsIcESaIcEEEE7DestroyEv
FN:389,393,_ZN7testing8internal11MatcherBaseIRKSt17basic_string_viewIcSt11char_traitsIcEEE7DestroyEv
FN:389,393,_ZN7testing8internal11MatcherBaseISt17basic_string_viewIcSt11char_traitsIcEEE7DestroyEv
FN:420,422,_ZN7testing8internal11MatcherBaseINSt7__cxx1112basic_stringIcSt11char_traitsIcESaIcEEEE11ValuePolicyINS0_9EqMatcherIS7_EELb0EE3GetERKS8_
FN:420,422,_ZN7testing8internal11MatcherBaseIRKNSt7__cxx1112basic_stringIcSt11char_traitsIcESaIcEEEE11ValuePolicyINS0_9EqMatcherIS7_EELb0EE3GetERKSA_
FN:420,422,_ZN7testing8internal11MatcherBaseIRKSt17basic_string_viewIcSt11char_traitsIcEEE11ValuePolicyINS0_9EqMatcherINSt7__cxx1112basic_stringIcS4_SaIcEEEEELb0EE3GetERKS8_
FN:420,422,_ZN7testing8internal11MatcherBaseISt17basic_string_viewIcSt11char_traitsIcEEE11ValuePolicyINS0_9EqMatcherINSt7__cxx1112basic_stringIcS4_SaIcEEEEELb0EE3GetERKS6_
FN:424,426,_ZN7testing8internal11MatcherBaseINSt7__cxx1112basic_stringIcSt11char_traitsIcESaIcEEEE11ValuePolicyINS0_9EqMatcherIS7_EELb0EE4InitISB_EEvRS8_OT_
FN:424,426,_ZN7testing8internal11MatcherBaseIRKNSt7__cxx1112basic_stringIcSt11char_traitsIcESaIcEEEE11ValuePolicyINS0_9EqMatcherIS7_EELb0EE4InitISD_EEvRSA_OT_
FN:424,426,_ZN7testing8internal11MatcherBaseIRKSt17basic_string_viewIcSt11char_traitsIcEEE11ValuePolicyINS0_9EqMatcherINSt7__cxx1112basic_stringIcS4_SaIcEEEEELb0EE4InitISF_EEvRS8_OT_
FN:424,426,_ZN7testing8internal11MatcherBaseISt17basic_string_viewIcSt11char_traitsIcEEE11ValuePolicyINS0_9EqMatcherINSt7__cxx1112basic_stringIcS4_SaIcEEEEELb0EE4InitISD_EEvRS6_OT_
FN:445,450,_ZN7testing8internal11MatcherBaseINSt7__cxx1112basic_stringIcSt11char_traitsIcESaIcEEEE4InitINS0_9EqMatcherIS7_EEEEvOT_
FN:445,450,_ZN7testing8internal11MatcherBaseIRKNSt7__cxx1112basic_stringIcSt11char_traitsIcESaIcEEEE4InitINS0_9EqMatcherIS7_EEEEvOT_
FN:445,450,_ZN7testing8internal11MatcherBaseIRKSt17basic_string_viewIcSt11char_traitsIcEEE4InitINS0_9EqMatcherINSt7__cxx1112basic_stringIcS4_SaIcEEEEEEEvOT_
FN:445,450,_ZN7testing8internal11MatcherBaseISt17basic_string_viewIcSt11char_traitsIcEEE4InitINS0_9EqMatcherINSt7__cxx1112basic_stringIcS4_SaIcEEEEEEEvOT_
FN:504,505,_ZN7testing7MatcherIRKNSt7__cxx1112basic_stringIcSt11char_traitsIcESaIcEEEEC2INS_8internal9EqMatcherIS6_EEvEEOT_
FN:528,529,_ZN7testing7MatcherINSt7__cxx1112basic_stringIcSt11char_traitsIcESaIcEEEEC2INS_8internal9EqMatcherIS6_EEvEEOT_
FN:554,556,_ZN7testing7MatcherIRKSt17basic_string_viewIcSt11char_traitsIcEEEC2INS_8internal9EqMatcherINSt7__cxx1112basic_stringIcS3_SaIcEEEEEvEEOT_
FN:582,583,_ZN7testing7MatcherISt17basic_string_viewIcSt11char_traitsIcEEEC2INS_8internal9EqMatcherINSt7__cxx1112basic_stringIcS3_SaIcEEEEEvEEOT_
FN:694,694,_ZN7testing8internal14ComparisonBaseINS0_9EqMatcherINSt7__cxx1112basic_stringIcSt11char_traitsIcESaIcEEEEES8_St8equal_toIvEEC2ERKS8_
FN:699,701,_ZNK7testing8internal14ComparisonBaseINS0_9EqMatcherINSt7__cxx1112basic_stringIcSt11char_traitsIcESaIcEEEEES8_St8equal_toIvEE15MatchAndExplainIS8_EEbRKT_PSo
FN:699,701,_ZNK7testing8internal14ComparisonBaseINS0_9EqMatcherINSt7__cxx1112basic_stringIcSt11char_traitsIcESaIcEEEEES8_St8equal_toIvEE15MatchAndExplainISt17basic_string_viewIcS6_EEEbRKT_PSo
FN:702,705,_ZNK7testing8internal14ComparisonBaseINS0_9EqMatcherINSt7__cxx1112basic_stringIcSt11char_traitsIcESaIcEEEEES8_St8equal_toIvEE10DescribeToEPSo
FN:706,709,_ZNK7testing8internal14ComparisonBaseINS0_9EqMatcherINSt7__cxx1112basic_stringIcSt11char_traitsIcESaIcEEEEES8_St8equal_toIvEE18DescribeNegationToEPSo
FN:713,715,_ZN7testing8internal14ComparisonBaseINS0_9EqMatcherINSt7__cxx1112basic_stringIcSt11char_traitsIcESaIcEEEEES8_St8equal_toIvEE6UnwrapIS8_EERKT_SG_
FN:727,728,_ZN7testing8internal9EqMatcherINSt7__cxx1112basic_stringIcSt11char_traitsIcESaIcEEEEC2ERKS7_
FN:729,729,_ZN7testing8internal9EqMatcherINSt7__cxx1112basic_stringIcSt11char_traitsIcESaIcEEEE4DescEv
FN:730,730,_ZN7testing8internal9EqMatcherINSt7__cxx1112basic_stringIcSt11char_traitsIcESaIcEEEE11NegatedDescEv
FN:83,83,_ZN7testing19MatchResultListenerC2EPSo
FN:862,864,_ZN7testing2EqINSt7__cxx1112basic_stringIcSt11char_traitsIcESaIcEEEEENS_8internal9EqMatcherIT_EES9_
FN:95,95,_ZN7testing19MatchResultListener6streamEv
FNDA:0,_ZN7testing19MatchResultListenerD0Ev
FNDA:0,_ZN7testing19MatchResultListenerD2Ev
FNDA:0,_ZN7testing25MatcherDescriberInterfaceD0Ev
FNDA:0,_ZN7testing25MatcherDescriberInterfaceD2Ev
FNDA:0,_ZNK7testing25MatcherDescriberInterface18DescribeNegationToEPSo
FNDA:0,_ZN7testing8internal24DummyMatchResultListenerC2Ev
FNDA:0,_ZN7testing8internal17SharedPayloadBase5UnrefEv
FNDA:0,_ZN7testing8internal13SharedPayloadINS0_9EqMatcherINSt7__cxx1112basic_stringIcSt11char_traitsIcESaIcEEEEEEC2EOS9_
FNDA:0,_ZN7testing8internal13SharedPayloadINS0_9EqMatcherINSt7__cxx1112basic_stringIcSt11char_traitsIcESaIcEEEEEE7DestroyEPNS0_17SharedPayloadBaseE
FNDA:0,_ZNK7testing8internal11MatcherBaseIRKNSt7__cxx1112basic_stringIcSt11char_traitsIcESaIcEEEE15MatchAndExplainES9_PNS_19MatchResultListenerE
FNDA:0,_ZNK7testing8internal11MatcherBaseIRKNSt7__cxx1112basic_stringIcSt11char_traitsIcESaIcEEEE7MatchesES9_
FNDA:0,_ZNK7testing8internal11MatcherBaseINSt7__cxx1112basic_stringIcSt11char_traitsIcESaIcEEEE10DescribeToEPSo
FNDA:0,_ZNK7testing8internal11MatcherBaseIRKNSt7__cxx1112basic_stringIcSt11char_traitsIcESaIcEEEE10DescribeToEPSo
FNDA:0,_ZNK7testing8internal11MatcherBaseIRKSt17basic_string_viewIcSt11char_traitsIcEEE10DescribeToEPSo
FNDA:0,_ZNK7testing8internal11MatcherBaseISt17basic_string_viewIcSt11char_traitsIcEEE10DescribeToEPSo
FNDA:0,_ZNK7testing8internal11MatcherBaseINSt7__cxx1112basic_stringIcSt11char_traitsIcESaIcEEEE18DescribeNegationToEPSo
FNDA:0,_ZNK7testing8internal11MatcherBaseIRKNSt7__cxx1112basic_stringIcSt11char_traitsIcESaIcEEEE18DescribeNegationToEPSo
FNDA:0,_ZNK7testing8internal11MatcherBaseIRKSt17basic_string_viewIcSt11char_traitsIcEEE18DescribeNegationToEPSo
FNDA:0,_ZNK7testing8internal11MatcherBaseISt17basic_string_viewIcSt11char_traitsIcEEE18DescribeNegationToEPSo
FNDA:0,_ZN7testing8internal11MatcherBaseINSt7__cxx1112basic_stringIcSt11char_traitsIcESaIcEEEEC2Ev
FNDA:0,_ZN7testing8internal11MatcherBaseIRKNSt7__cxx1112basic_stringIcSt11char_traitsIcESaIcEEEEC2Ev
FNDA:0,_ZN7testing8internal11MatcherBaseIRKSt17basic_string_viewIcSt11char_traitsIcEEEC2Ev
FNDA:0,_ZN7testing8internal11MatcherBaseISt17basic_string_viewIcSt11char_traitsIcEEEC2Ev
FNDA:0,_ZN7testing8internal11MatcherBaseINSt7__cxx1112basic_stringIcSt11char_traitsIcESaIcEEEEC2INS0_9EqMatcherIS7_EEvEEOT_
FNDA:0,_ZN7testing8internal11MatcherBaseIRKNSt7__cxx1112basic_stringIcSt11char_traitsIcESaIcEEEEC2INS0_9EqMatcherIS7_EEvEEOT_
FNDA:0,_ZN7testing8internal11MatcherBaseIRKSt17basic_string_viewIcSt11char_traitsIcEEEC2INS0_9EqMatcherINSt7__cxx1112basic_stringIcS4_SaIcEEEEEvEEOT_
FNDA:0,_ZN7testing8internal11MatcherBaseISt17basic_string_viewIcSt11char_traitsIcEEEC2INS0_9EqMatcherINSt7__cxx1112basic_stringIcS4_SaIcEEEEEvEEOT_
FNDA:0,_ZN7testing8internal11MatcherBaseIRKNSt7__cxx1112basic_stringIcSt11char_traitsIcESaIcEEEEC2EOSA_
FNDA:0,_ZN7testing8internal11MatcherBaseINSt7__cxx1112basic_stringIcSt11char_traitsIcESaIcEEEEaSEOS8_
FNDA:0,_ZN7testing8internal11MatcherBaseIRKNSt7__cxx1112basic_stringIcSt11char_traitsIcESaIcEEEEaSEOSA_
FNDA:0,_ZN7testing8internal11MatcherBaseIRKSt17basic_string_viewIcSt11char_traitsIcEEEaSEOS8_
FNDA:0,_ZN7testing8internal11MatcherBaseISt17basic_string_viewIcSt11char_traitsIcEEEaSEOS6_
FNDA:0,_ZN7testing8internal11MatcherBaseINSt7__cxx1112basic_stringIcSt11char_traitsIcESaIcEEEED0Ev
FNDA:0,_ZN7testing8internal11MatcherBaseINSt7__cxx1112basic_stringIcSt11char_traitsIcESaIcEEEED2Ev
FNDA:0,_ZN7testing8internal11MatcherBaseIRKNSt7__cxx1112basic_stringIcSt11char_traitsIcESaIcEEEED0Ev
FNDA:0,_ZN7testing8internal11MatcherBaseIRKNSt7__cxx1112basic_stringIcSt11char_traitsIcESaIcEEEED2Ev
FNDA:0,_ZN7testing8internal11MatcherBaseIRKSt17basic_string_viewIcSt11char_traitsIcEEED0Ev
FNDA:0,_ZN7testing8internal11MatcherBaseIRKSt17basic_string_viewIcSt11char_traitsIcEEED2Ev
FNDA:0,_ZN7testing8internal11MatcherBaseISt17basic_string_viewIcSt11char_traitsIcEEED0Ev
FNDA:0,_ZN7testing8internal11MatcherBaseISt17basic_string_viewIcSt11char_traitsIcEEED2Ev
FNDA:0,_ZNK7testing8internal11MatcherBaseINSt7__cxx1112basic_stringIcSt11char_traitsIcESaIcEEEE8IsSharedEv
FNDA:0,_ZNK7testing8internal11MatcherBaseIRKNSt7__cxx1112basic_stringIcSt11char_traitsIcESaIcEEEE8IsSharedEv
FNDA:0,_ZNK7testing8internal11MatcherBaseIRKSt17basic_string_viewIcSt11char_traitsIcEEE8IsSharedEv
FNDA:0,_ZNK7testing8internal11MatcherBaseISt17basic_string_viewIcSt11char_traitsIcEEE8IsSharedEv
FNDA:0,_ZN7testing8internal11MatcherBaseINSt7__cxx1112basic_stringIcSt11char_traitsIcESaIcEEEE19MatchAndExplainImplINS8_11ValuePolicyINS0_9EqMatcherIS7_EELb0EEEEEDTcldtclsrT_3Getfp_E15MatchAndExplainfp0_clptfp1_L_ZNS_19MatchResultListener6streamEvEEEERKS8_RKS7_PSF_
FNDA:0,_ZN7testing8internal11MatcherBaseIRKNSt7__cxx1112basic_stringIcSt11char_traitsIcESaIcEEEE19MatchAndExplainImplINSA_11ValuePolicyINS0_9EqMatcherIS7_EELb0EEEEEDTcldtclsrT_3Getfp_E15MatchAndExplainfp0_clptfp1_L_ZNS_19MatchResultListener6streamEvEEEERKSA_S9_PSH_
FNDA:0,_ZN7testing8internal11MatcherBaseIRKSt17basic_string_viewIcSt11char_traitsIcEEE19MatchAndExplainImplINS8_11ValuePolicyINS0_9EqMatcherINSt7__cxx1112basic_stringIcS4_SaIcEEEEELb0EEEEEDTcldtclsrT_3Getfp_E15MatchAndExplainfp0_clptfp1_L_ZNS_19MatchResultListener6streamEvEEEERKS8_S7_PSJ_
FNDA:0,_ZN7testing8internal11MatcherBaseISt17basic_string_viewIcSt11char_traitsIcEEE19MatchAndExplainImplINS6_11ValuePolicyINS0_9EqMatcherINSt7__cxx1112basic_stringIcS4_SaIcEEEEELb0EEEEEDTcldtclsrT_3Getfp_E15MatchAndExplainfp0_clptfp1_L_ZNS_19MatchResultListener6streamEvEEEERKS6_RKS5_PSH_
FNDA:0,_ZN7testing8internal11MatcherBaseINSt7__cxx1112basic_stringIcSt11char_traitsIcESaIcEEEE12DescribeImplINS8_11ValuePolicyINS0_9EqMatcherIS7_EELb0EEEEEvRKS8_PSob
FNDA:0,_ZN7testing8internal11MatcherBaseIRKNSt7__cxx1112basic_stringIcSt11char_traitsIcESaIcEEEE12DescribeImplINSA_11ValuePolicyINS0_9EqMatcherIS7_EELb0EEEEEvRKSA_PSob
FNDA:0,_ZN7testing8internal11MatcherBaseIRKSt17basic_string_viewIcSt11char_traitsIcEEE12DescribeImplINS8_11ValuePolicyINS0_9EqMatcherINSt7__cxx1112basic_stringIcS4_SaIcEEEEELb0EEEEEvRKS8_PSob
FNDA:0,_ZN7testing8internal11MatcherBaseISt17basic_string_viewIcSt11char_traitsIcEEE12DescribeImplINS6_11ValuePolicyINS0_9EqMatcherINSt7__cxx1112basic_stringIcS4_SaIcEEEEELb0EEEEEvRKS6_PSob
FNDA:0,_ZN7testing8internal11MatcherBaseINSt7__cxx1112basic_stringIcSt11char_traitsIcESaIcEEEE16GetDescriberImplINS8_11ValuePolicyINS0_9EqMatcherIS7_EELb0EEEEEPKNS_25MatcherDescriberInterfaceERKS8_
FNDA:0,_ZN7testing8internal11MatcherBaseIRKNSt7__cxx1112basic_stringIcSt11char_traitsIcESaIcEEEE16GetDescriberImplINSA_11ValuePolicyINS0_9EqMatcherIS7_EELb0EEEEEPKNS_25MatcherDescriberInterfaceERKSA_
FNDA:0,_ZN7testing8internal11MatcherBaseIRKSt17basic_string_viewIcSt11char_traitsIcEEE16GetDescriberImplINS8_11ValuePolicyINS0_9EqMatcherINSt7__cxx1112basic_stringIcS4_SaIcEEEEELb0EEEEEPKNS_25MatcherDescriberInterfaceERKS8_
FNDA:0,_ZN7testing8internal11MatcherBaseISt17basic_string_viewIcSt11char_traitsIcEEE16GetDescriberImplINS6_11ValuePolicyINS0_9EqMatcherINSt7__cxx1112basic_stringIcS4_SaIcEEEEELb0EEEEEPKNS_25MatcherDescriberInterfaceERKS6_
FNDA:0,_ZN7testing8internal11MatcherBaseINSt7__cxx1112basic_stringIcSt11char_traitsIcESaIcEEEE9GetVTableINS8_11ValuePolicyINS0_9EqMatcherIS7_EELb0EEEEEPKNS8_6VTableEv
FNDA:0,_ZN7testing8internal11MatcherBaseIRKNSt7__cxx1112basic_stringIcSt11char_traitsIcESaIcEEEE9GetVTableINSA_11ValuePolicyINS0_9EqMatcherIS7_EELb0EEEEEPKNSA_6VTableEv
FNDA:0,_ZN7testing8internal11MatcherBaseIRKSt17basic_string_viewIcSt11char_traitsIcEEE9GetVTableINS8_11ValuePolicyINS0_9EqMatcherINSt7__cxx1112basic_stringIcS4_SaIcEEEEELb0EEEEEPKNS8_6VTableEv
FNDA:0,_ZN7testing8internal11MatcherBaseISt17basic_string_viewIcSt11char_traitsIcEEE9GetVTableINS6_11ValuePolicyINS0_9EqMatcherINSt7__cxx1112basic_stringIcS4_SaIcEEEEELb0EEEEEPKNS6_6VTableEv
FNDA:0,_ZN7testing8internal11MatcherBaseINSt7__cxx1112basic_stringIcSt11char_traitsIcESaIcEEEE7DestroyEv
FNDA:0,_ZN7testing8internal11MatcherBaseIRKNSt7__cxx1112basic_stringIcSt11char_traitsIcESaIcEEEE7DestroyEv
FNDA:0,_ZN7testing8internal11MatcherBaseIRKSt17basic_string_viewIcSt11char_traitsIcEEE7DestroyEv
FNDA:0,_ZN7testing8internal11MatcherBaseISt17basic_string_viewIcSt11char_traitsIcEEE7DestroyEv
FNDA:0,_ZN7testing8internal11MatcherBaseINSt7__cxx1112basic_stringIcSt11char_traitsIcESaIcEEEE11ValuePolicyINS0_9EqMatcherIS7_EELb0EE3GetERKS8_
FNDA:0,_ZN7testing8internal11MatcherBaseIRKNSt7__cxx1112basic_stringIcSt11char_traitsIcESaIcEEEE11ValuePolicyINS0_9EqMatcherIS7_EELb0EE3GetERKSA_
FNDA:0,_ZN7testing8internal11MatcherBaseIRKSt17basic_string_viewIcSt11char_traitsIcEEE11ValuePolicyINS0_9EqMatcherINSt7__cxx1112basic_stringIcS4_SaIcEEEEELb0EE3GetERKS8_
FNDA:0,_ZN7testing8internal11MatcherBaseISt17basic_string_viewIcSt11char_traitsIcEEE11ValuePolicyINS0_9EqMatcherINSt7__cxx1112basic_stringIcS4_SaIcEEEEELb0EE3GetERKS6_
FNDA:0,_ZN7testing8internal11MatcherBaseINSt7__cxx1112basic_stringIcSt11char_traitsIcESaIcEEEE11ValuePolicyINS0_9EqMatcherIS7_EELb0EE4InitISB_EEvRS8_OT_
FNDA:0,_ZN7testing8internal11MatcherBaseIRKNSt7__cxx1112basic_stringIcSt11char_traitsIcESaIcEEEE11ValuePolicyINS0_9EqMatcherIS7_EELb0EE4InitISD_EEvRSA_OT_
FNDA:0,_ZN7testing8internal11MatcherBaseIRKSt17basic_string_viewIcSt11char_traitsIcEEE11ValuePolicyINS0_9EqMatcherINSt7__cxx1112basic_stringIcS4_SaIcEEEEELb0EE4InitISF_EEvRS8_OT_
FNDA:0,_ZN7testing8internal11MatcherBaseISt17basic_string_viewIcSt11char_traitsIcEEE11ValuePolicyINS0_9EqMatcherINSt7__cxx1112basic_stringIcS4_SaIcEEEEELb0EE4InitISD_EEvRS6_OT_
FNDA:0,_ZN7testing8internal11MatcherBaseINSt7__cxx1112basic_stringIcSt11char_traitsIcESaIcEEEE4InitINS0_9EqMatcherIS7_EEEEvOT_
FNDA:0,_ZN7testing8internal11MatcherBaseIRKNSt7__cxx1112basic_stringIcSt11char_traitsIcESaIcEEEE4InitINS0_9EqMatcherIS7_EEEEvOT_
FNDA:0,_ZN7testing8internal11MatcherBaseIRKSt17basic_string_viewIcSt11char_traitsIcEEE4InitINS0_9EqMatcherINSt7__cxx1112basic_stringIcS4_SaIcEEEEEEEvOT_
FNDA:0,_ZN7testing8internal11MatcherBaseISt17basic_string_viewIcSt11char_traitsIcEEE4InitINS0_9EqMatcherINSt7__cxx1112basic_stringIcS4_SaIcEEEEEEEvOT_
FNDA:0,_ZN7testing7MatcherIRKNSt7__cxx1112basic_stringIcSt11char_traitsIcESaIcEEEEC2INS_8internal9EqMatcherIS6_EEvEEOT_
FNDA:0,_ZN7testing7MatcherINSt7__cxx1112basic_stringIcSt11char_traitsIcESaIcEEEEC2INS_8internal9EqMatcherIS6_EEvEEOT_
FNDA:0,_ZN7testing7MatcherIRKSt17basic_string_viewIcSt11char_traitsIcEEEC2INS_8internal9EqMatcherINSt7__cxx1112basic_stringIcS3_SaIcEEEEEvEEOT_
FNDA:0,_ZN7testing7MatcherISt17basic_string_viewIcSt11char_traitsIcEEEC2INS_8internal9EqMatcherINSt7__cxx1112basic_stringIcS3_SaIcEEEEEvEEOT_
FNDA:0,_ZN7testing8internal14ComparisonBaseINS0_9EqMatcherINSt7__cxx1112basic_stringIcSt11char_traitsIcESaIcEEEEES8_St8equal_toIvEEC2ERKS8_
FNDA:0,_ZNK7testing8internal14ComparisonBaseINS0_9EqMatcherINSt7__cxx1112basic_stringIcSt11char_traitsIcESaIcEEEEES8_St8equal_toIvEE15MatchAndExplainIS8_EEbRKT_PSo
FNDA:0,_ZNK7testing8internal14ComparisonBaseINS0_9EqMatcherINSt7__cxx1112basic_stringIcSt11char_traitsIcESaIcEEEEES8_St8equal_toIvEE15MatchAndExplainISt17basic_string_viewIcS6_EEEbRKT_PSo
FNDA:0,_ZNK7testing8internal14ComparisonBaseINS0_9EqMatcherINSt7__cxx1112basic_stringIcSt11char_traitsIcESaIcEEEEES8_St8equal_toIvEE10DescribeToEPSo
FNDA:0,_ZNK7testing8internal14ComparisonBaseINS0_9EqMatcherINSt7__cxx1112basic_stringIcSt11char_traitsIcESaIcEEEEES8_St8equal_toIvEE18DescribeNegationToEPSo
FNDA:0,_ZN7testing8internal14ComparisonBaseINS0_9EqMatcherINSt7__cxx1112basic_stringIcSt11char_traitsIcESaIcEEEEES8_St8equal_toIvEE6UnwrapIS8_EERKT_SG_
FNDA:0,_ZN7testing8internal9EqMatcherINSt7__cxx1112basic_stringIcSt11char_traitsIcESaIcEEEEC2ERKS7_
FNDA:0,_ZN7testing8internal9EqMatcherINSt7__cxx1112basic_stringIcSt11char_traitsIcESaIcEEEE4DescEv
FNDA:0,_ZN7testing8internal9EqMatcherINSt7__cxx1112basic_stringIcSt11char_traitsIcESaIcEEEE11NegatedDescEv
FNDA:0,_ZN7testing19MatchResultListenerC2EPSo
FNDA:0,_ZN7testing2EqINSt7__cxx1112basic_stringIcSt11char_traitsIcESaIcEEEEENS_8internal9EqMatcherIT_EES9_
FNDA:0,_ZN7testing19MatchResultListener6streamEv
FNF:92
FNH:0
DA:83,0
DA:95,0
DA:110,0
DA:116,0
DA:131,0
DA:132,0
DA:133,0
DA:134,0
DA:135,0
DA:185,0
DA:209,0
DA:215,0
DA:217,0
DA:218,0
DA:219,0
DA:232,0
DA:233,0
DA:234,0
DA:238,0
DA:239,0
DA:240,0
DA:241,0
DA:244,0
DA:245,0
DA:246,0
DA:247,0
DA:250,0
DA:251,0
DA:252,0
DA:253,0
DA:270,0
DA:281,0
DA:282,0
DA:283,0
DA:299,0
DA:300,0
DA:301,0
DA:302,0
DA:304,0
DA:305,0
DA:306,0
DA:307,0
DA:308,0
DA:309,0
DA:310,0
DA:313,0
DA:327,0
DA:328,0
DA:333,0
DA:336,0
DA:347,0
DA:349,0
DA:350,0
DA:352,0
DA:354,0
DA:357,0
DA:369,0
DA:373,0
DA:377,0
DA:389,0
DA:390,0
DA:391,0
DA:393,0
DA:420,0
DA:421,0
DA:424,0
DA:425,0
DA:426,0
DA:445,0
DA:448,0
DA:449,0
DA:450,0
DA:504,0
DA:505,0
DA:528,0
DA:529,0
DA:554,0
DA:555,0
DA:556,0
DA:582,0
DA:583,0
DA:694,0
DA:699,0
DA:700,0
DA:702,0
DA:703,0
DA:704,0
DA:705,0
DA:706,0
DA:707,0
DA:708,0
DA:709,0
DA:713,0
DA:714,0
DA:727,0
DA:728,0
DA:729,0
DA:730,0
DA:862,0
DA:863,0
LF:100
LH:0
end_of_record
TN:
SF:/mnt/c/users/t470/desktop/funda/lab11/project2/build/_deps/googletest-src/googletest/include/gtest/gtest-message.h
FN:112,114,_ZN7testing7MessageC2ERKS0_
FN:132,150,_ZN7testing7MessagelsIA100_cEERS0_RKT_
FN:132,150,_ZN7testing7MessagelsIA106_cEERS0_RKT_
FN:132,150,_ZN7testing7MessagelsIA10_cEERS0_RKT_
FN:132,150,_ZN7testing7MessagelsIA11_cEERS0_RKT_
FN:132,150,_ZN7testing7MessagelsIA12_cEERS0_RKT_
FN:132,150,_ZN7testing7MessagelsIA13_cEERS0_RKT_
FN:132,150,_ZN7testing7MessagelsIA14_cEERS0_RKT_
FN:132,150,_ZN7testing7MessagelsIA15_cEERS0_RKT_
FN:132,150,_ZN7testing7MessagelsIA16_cEERS0_RKT_
FN:132,150,_ZN7testing7MessagelsIA17_cEERS0_RKT_
FN:132,150,_ZN7testing7MessagelsIA18_cEERS0_RKT_
FN:132,150,_ZN7testing7MessagelsIA19_cEERS0_RKT_
FN:132,150,_ZN7testing7MessagelsIA20_cEERS0_RKT_
FN:132,150,_ZN7testing7MessagelsIA21_cEERS0_RKT_
FN:132,150,_ZN7testing7MessagelsIA22_cEERS0_RKT_
FN:132,150,_ZN7testing7MessagelsIA24_cEERS0_RKT_
FN:132,150,_ZN7testing7MessagelsIA256_cEERS0_RKT_
FN:132,150,_ZN7testing7MessagelsIA25_cEERS0_RKT_
FN:132,150,_ZN7testing7MessagelsIA27_cEERS0_RKT_
FN:132,150,_ZN7testing7MessagelsIA28_cEERS0_RKT_
FN:132,150,_ZN7testing7MessagelsIA29_cEERS0_RKT_
FN:132,150,_ZN7testing7MessagelsIA2_cEERS0_RKT_
FN:132,150,_ZN7testing7MessagelsIA30_cEERS0_RKT_
FN:132,150,_ZN7testing7MessagelsIA32_cEERS0_RKT_
FN:132,150,_ZN7testing7MessagelsIA33_cEERS0_RKT_
FN:132,150,_ZN7testing7MessagelsIA35_cEERS0_RKT_
FN:132,150,_ZN7testing7MessagelsIA38_cEERS0_RKT_
FN:132,150,_ZN7testing7MessagelsIA39_cEERS0_RKT_
FN:132,150,_ZN7testing7MessagelsIA3_cEERS0_RKT_
FN:132,150,_ZN7testing7MessagelsIA40_cEERS0_RKT_
FN:132,150,_ZN7testing7MessagelsIA41_cEERS0_RKT_
FN:132,150,_ZN7testing7MessagelsIA47_cEERS0_RKT_
FN:132,150,_ZN7testing7MessagelsIA48_cEERS0_RKT_
FN:132,150,_ZN7testing7MessagelsIA4_cEERS0_RKT_
FN:132,150,_ZN7testing7MessagelsIA50_cEERS0_RKT_
FN:132,150,_ZN7testing7MessagelsIA51_cEERS0_RKT_
FN:132,150,_ZN7testing7MessagelsIA52_cEERS0_RKT_
FN:132,150,_ZN7testing7MessagelsIA53_cEERS0_RKT_
FN:132,150,_ZN7testing7MessagelsIA5_cEERS0_RKT_
FN:132,150,_ZN7testing7MessagelsIA60_cEERS0_RKT_
FN:132,150,_ZN7testing7MessagelsIA61_cEERS0_RKT_
FN:132,150,_ZN7testing7MessagelsIA62_cEERS0_RKT_
FN:132,150,_ZN7testing7MessagelsIA63_cEERS0_RKT_
FN:132,150,_ZN7testing7MessagelsIA65_cEERS0_RKT_
FN:132,150,_ZN7testing7MessagelsIA68_cEERS0_RKT_
FN:132,150,_ZN7testing7MessagelsIA6_cEERS0_RKT_
FN:132,150,_ZN7testing7MessagelsIA7_cEERS0_RKT_
FN:132,150,_ZN7testing7MessagelsIA8_cEERS0_RKT_
FN:132,150,_ZN7testing7MessagelsIA93_cEERS0_RKT_
FN:132,150,_ZN7testing7MessagelsIA9_cEERS0_RKT_
FN:132,150,_ZN7testing7MessagelsINS_14TestPartResultEEERS0_RKT_
FN:132,150,_ZN7testing7MessagelsINSt7__cxx1112basic_stringIcSt11char_traitsIcESaIcEEEEERS0_RKT_
FN:132,150,_ZN7testing7MessagelsIS0_EERS0_RKT_
FN:132,150,_ZN7testing7MessagelsIcEERS0_RKT_
FN:132,150,_ZN7testing7MessagelsIdEERS0_RKT_
FN:132,150,_ZN7testing7MessagelsIiEERS0_RKT_
FN:132,150,_ZN7testing7MessagelsIlEERS0_RKT_
FN:132,150,_ZN7testing7MessagelsImEERS0_RKT_
FN:182,189,_ZN7testing7MessagelsIKcEERS0_RKPT_
FN:182,189,_ZN7testing7MessagelsIcEERS0_RKPT_
FN:232,234,_ZN7testinglsERSoRKNS_7MessageE
FN:243,245,_ZN7testing8internal18StreamableToStringIPcEENSt7__cxx1112basic_stringIcSt11char_traitsIcESaIcEEERKT_
FN:243,245,_ZN7testing8internal18StreamableToStringIPwEENSt7__cxx1112basic_stringIcSt11char_traitsIcESaIcEEERKT_
FN:243,245,_ZN7testing8internal18StreamableToStringIiEENSt7__cxx1112basic_stringIcSt11char_traitsIcESaIcEEERKT_
FN:243,245,_ZN7testing8internal18StreamableToStringIlEENSt7__cxx1112basic_stringIcSt11char_traitsIcESaIcEEERKT_
FNDA:0,_ZN7testing7MessageC2ERKS0_
FNDA:0,_ZN7testing7MessagelsIA100_cEERS0_RKT_
FNDA:0,_ZN7testing7MessagelsIA106_cEERS0_RKT_
FNDA:0,_ZN7testing7MessagelsIA10_cEERS0_RKT_
FNDA:0,_ZN7testing7MessagelsIA11_cEERS0_RKT_
FNDA:0,_ZN7testing7MessagelsIA12_cEERS0_RKT_
FNDA:0,_ZN7testing7MessagelsIA13_cEERS0_RKT_
FNDA:0,_ZN7testing7MessagelsIA14_cEERS0_RKT_
FNDA:0,_ZN7testing7MessagelsIA15_cEERS0_RKT_
FNDA:0,_ZN7testing7MessagelsIA16_cEERS0_RKT_
FNDA:0,_ZN7testing7MessagelsIA17_cEERS0_RKT_
FNDA:0,_ZN7testing7MessagelsIA18_cEERS0_RKT_
FNDA:0,_ZN7testing7MessagelsIA19_cEERS0_RKT_
FNDA:0,_ZN7testing7MessagelsIA20_cEERS0_RKT_
FNDA:0,_ZN7testing7MessagelsIA21_cEERS0_RKT_
FNDA:0,_ZN7testing7MessagelsIA22_cEERS0_RKT_
FNDA:0,_ZN7testing7MessagelsIA24_cEERS0_RKT_
FNDA:0,_ZN7testing7MessagelsIA256_cEERS0_RKT_
FNDA:0,_ZN7testing7MessagelsIA25_cEERS0_RKT_
FNDA:0,_ZN7testing7MessagelsIA27_cEERS0_RKT_
FNDA:0,_ZN7testing7MessagelsIA28_cEERS0_RKT_
FNDA:0,_ZN7testing7MessagelsIA29_cEERS0_RKT_
FNDA:0,_ZN7testing7MessagelsIA2_cEERS0_RKT_
FNDA:0,_ZN7testing7MessagelsIA30_cEERS0_RKT_
FNDA:0,_ZN7testing7MessagelsIA32_cEERS0_RKT_
FNDA:0,_ZN7testing7MessagelsIA33_cEERS0_RKT_
FNDA:0,_ZN7testing7MessagelsIA35_cEERS0_RKT_
FNDA:0,_ZN7testing7MessagelsIA38_cEERS0_RKT_
FNDA:0,_ZN7testing7MessagelsIA39_cEERS0_RKT_
FNDA:0,_ZN7testing7MessagelsIA3_cEERS0_RKT_
FNDA:0,_ZN7testing7MessagelsIA40_cEERS0_RKT_
FNDA:0,_ZN7testing7MessagelsIA41_cEERS0_RKT_
FNDA:0,_ZN7testing7MessagelsIA47_cEERS0_RKT_
FNDA:0,_ZN7testing7MessagelsIA48_cEERS0_RKT_
FNDA:0,_ZN7testing7MessagelsIA4_cEERS0_RKT_
FNDA:0,_ZN7testing7MessagelsIA50_cEERS0_RKT_
FNDA:0,_ZN7testing7MessagelsIA51_cEERS0_RKT_
FNDA:0,_ZN7testing7MessagelsIA52_cEERS0_RKT_
FNDA:0,_ZN7testing7MessagelsIA53_cEERS0_RKT_
FNDA:0,_ZN7testing7MessagelsIA5_cEERS0_RKT_
FNDA:0,_ZN7testing7MessagelsIA60_cEERS0_RKT_
FNDA:0,_ZN7testing7MessagelsIA61_cEERS0_RKT_
FNDA:0,_ZN7testing7MessagelsIA62_cEERS0_RKT_
FNDA:0,_ZN7testing7MessagelsIA63_cEERS0_RKT_
FNDA:0,_ZN7testing7MessagelsIA65_cEERS0_RKT_
FNDA:0,_ZN7testing7MessagelsIA68_cEERS0_RKT_
FNDA:0,_ZN7testing7MessagelsIA6_cEERS0_RKT_
FNDA:21,_ZN7testing7MessagelsIA7_cEERS0_RKT_
FNDA:0,_ZN7testing7MessagelsIA8_cEERS0_RKT_
FNDA:0,_ZN7testing7MessagelsIA93_cEERS0_RKT_
FNDA:0,_ZN7testing7MessagelsIA9_cEERS0_RKT_
FNDA:0,_ZN7testing7MessagelsINS_14TestPartResultEEERS0_RKT_
FNDA:0,_ZN7testing7MessagelsINSt7__cxx1112basic_stringIcSt11char_traitsIcESaIcEEEEERS0_RKT_
FNDA:0,_ZN7testing7MessagelsIS0_EERS0_RKT_
FNDA:414,_ZN7testing7MessagelsIcEERS0_RKT_
FNDA:0,_ZN7testing7MessagelsIdEERS0_RKT_
FNDA:7,_ZN7testing7MessagelsIiEERS0_RKT_
FNDA:19,_ZN7testing7MessagelsIlEERS0_RKT_
FNDA:0,_ZN7testing7MessagelsImEERS0_RKT_
FNDA:21,_ZN7testing7MessagelsIKcEERS0_RKPT_
FNDA:1,_ZN7testing7MessagelsIcEERS0_RKPT_
FNDA:0,_ZN7testinglsERSoRKNS_7MessageE
FNDA:1,_ZN7testing8internal18StreamableToStringIPcEENSt7__cxx1112basic_stringIcSt11char_traitsIcESaIcEEERKT_
FNDA:0,_ZN7testing8internal18StreamableToStringIPwEENSt7__cxx1112basic_stringIcSt11char_traitsIcESaIcEEERKT_
FNDA:7,_ZN7testing8internal18StreamableToStringIiEENSt7__cxx1112basic_stringIcSt11char_traitsIcESaIcEEERKT_
FNDA:19,_ZN7testing8internal18StreamableToStringIlEENSt7__cxx1112basic_stringIcSt11char_traitsIcESaIcEEERKT_
FNF:66
FNH:9
DA:112,0
DA:113,0
DA:114,0
DA:132,461
DA:148,461
DA:149,461
DA:182,22
DA:183,22
DA:184,0
DA:186,22
DA:188,22
DA:232,0
DA:233,0
DA:243,27
DA:244,54
LF:15
LH:9
end_of_record
TN:
SF:/mnt/c/users/t470/desktop/funda/lab11/project2/build/_deps/googletest-src/googletest/include/gtest/gtest-printers.h
FN:1017,1023,_ZN7testing8internal21UniversalTersePrinterIPKcE5PrintES3_PSo
FN:1080,1086,_ZN7testing8internal21UniversalTersePrinterIPKwE5PrintES3_PSo
FN:1108,1113,_ZN7testing8internal14UniversalPrintINSt7__cxx1112basic_stringIcSt11char_traitsIcESaIcEEEEEvRKT_PSo
FN:1108,1113,_ZN7testing8internal14UniversalPrintINSt7__cxx1112basic_stringIwSt11char_traitsIwESaIwEEEEEvRKT_PSo
FN:1108,1113,_ZN7testing8internal14UniversalPrintISt6vectorIiSaIiEEEEvRKT_PSo
FN:1108,1113,_ZN7testing8internal14UniversalPrintIiEEvRKT_PSo
FN:1108,1113,_ZN7testing8internal14UniversalPrintImEEvRKT_PSo
FN:1148,1152,_ZN7testing13PrintToStringIPKcEENSt7__cxx1112basic_stringIcSt11char_traitsIcESaIcEEERKT_
FN:1148,1152,_ZN7testing13PrintToStringIPKwEENSt7__cxx1112basic_stringIcSt11char_traitsIcESaIcEEERKT_
FN:1148,1152,_ZN7testing13PrintToStringISt6vectorIiSaIiEEEENSt7__cxx1112basic_stringIcSt11char_traitsIcESaIcEEERKT_
FN:1148,1152,_ZN7testing13PrintToStringIiEENSt7__cxx1112basic_stringIcSt11char_traitsIcESaIcEEERKT_
FN:1148,1152,_ZN7testing13PrintToStringImEENSt7__cxx1112basic_stringIcSt11char_traitsIcESaIcEEERKT_
FN:141,164,_ZN7testing8internal16ContainerPrinter10PrintValueISt6vectorIiSaIiEEvEEvRKT_PSo
FN:221,226,_ZN7testing8internal52internal_stream_operator_without_lexical_name_lookup13StreamPrinter10PrintValueIivEEDTcvvlsdefp0_fp_ERKT_PSo
FN:221,226,_ZN7testing8internal52internal_stream_operator_without_lexical_name_lookup13StreamPrinter10PrintValueImvEEDTcvvlsdefp0_fp_ERKT_PSo
FN:326,337,_ZN7testing8internal17PrintWithFallbackISt6vectorIiSaIiEEEEvRKT_PSo
FN:326,337,_ZN7testing8internal17PrintWithFallbackIiEEvRKT_PSo
FN:326,337,_ZN7testing8internal17PrintWithFallbackImEEvRKT_PSo
FN:357,359,_ZN7testing8internal19FormatForComparisonISt6vectorIiSaIiEES4_E6FormatB5cxx11ERKS4_
FN:357,359,_ZN7testing8internal19FormatForComparisonIiiE6FormatB5cxx11ERKi
FN:357,359,_ZN7testing8internal19FormatForComparisonIimE6FormatB5cxx11ERKi
FN:357,359,_ZN7testing8internal19FormatForComparisonImiE6FormatB5cxx11ERKm
FN:437,440,_ZN7testing8internal33FormatForComparisonFailureMessageISt6vectorIiSaIiEES4_EENSt7__cxx1112basic_stringIcSt11char_traitsIcESaIcEEERKT_RKT0_
FN:437,440,_ZN7testing8internal33FormatForComparisonFailureMessageIiiEENSt7__cxx1112basic_stringIcSt11char_traitsIcESaIcEEERKT_RKT0_
FN:437,440,_ZN7testing8internal33FormatForComparisonFailureMessageIimEENSt7__cxx1112basic_stringIcSt11char_traitsIcESaIcEEERKT_RKT0_
FN:437,440,_ZN7testing8internal33FormatForComparisonFailureMessageImiEENSt7__cxx1112basic_stringIcSt11char_traitsIcESaIcEEERKT_RKT0_
FN:464,466,_ZN7testing8internal7PrintToISt6vectorIiSaIiEEEEvRKT_PSo
FN:464,466,_ZN7testing8internal7PrintToIiEEvRKT_PSo
FN:464,466,_ZN7testing8internal7PrintToImEEvRKT_PSo
FN:660,662,_ZN7testing8internal7PrintToERKNSt7__cxx1112basic_stringIcSt11char_traitsIcESaIcEEEPSo
FN:687,689,_ZN7testing8internal7PrintToERKNSt7__cxx1112basic_stringIwSt11char_traitsIwESaIwEEEPSo
FN:799,809,_ZN7testing8internal16UniversalPrinterINSt7__cxx1112basic_stringIcSt11char_traitsIcESaIcEEEE5PrintERKS7_PSo
FN:799,809,_ZN7testing8internal16UniversalPrinterINSt7__cxx1112basic_stringIwSt11char_traitsIwESaIwEEEE5PrintERKS7_PSo
FN:799,809,_ZN7testing8internal16UniversalPrinterISt6vectorIiSaIiEEE5PrintERKS4_PSo
FN:799,809,_ZN7testing8internal16UniversalPrinterIiE5PrintERKiPSo
FN:799,809,_ZN7testing8internal16UniversalPrinterImE5PrintERKmPSo
FN:989,991,_ZN7testing8internal21UniversalTersePrinterISt6vectorIiSaIiEEE5PrintERKS4_PSo
FN:989,991,_ZN7testing8internal21UniversalTersePrinterIiE5PrintERKiPSo
FN:989,991,_ZN7testing8internal21UniversalTersePrinterImE5PrintERKmPSo
FNDA:0,_ZN7testing8internal21UniversalTersePrinterIPKcE5PrintES3_PSo
FNDA:0,_ZN7testing8internal21UniversalTersePrinterIPKwE5PrintES3_PSo
FNDA:0,_ZN7testing8internal14UniversalPrintINSt7__cxx1112basic_stringIcSt11char_traitsIcESaIcEEEEEvRKT_PSo
FNDA:0,_ZN7testing8internal14UniversalPrintINSt7__cxx1112basic_stringIwSt11char_traitsIwESaIwEEEEEvRKT_PSo
FNDA:0,_ZN7testing8internal14UniversalPrintISt6vectorIiSaIiEEEEvRKT_PSo
FNDA:0,_ZN7testing8internal14UniversalPrintIiEEvRKT_PSo
FNDA:0,_ZN7testing8internal14UniversalPrintImEEvRKT_PSo
FNDA:0,_ZN7testing13PrintToStringIPKcEENSt7__cxx1112basic_stringIcSt11char_traitsIcESaIcEEERKT_
FNDA:0,_ZN7testing13PrintToStringIPKwEENSt7__cxx1112basic_stringIcSt11char_traitsIcESaIcEEERKT_
FNDA:0,_ZN7testing13PrintToStringISt6vectorIiSaIiEEEENSt7__cxx1112basic_stringIcSt11char_traitsIcESaIcEEERKT_
FNDA:0,_ZN7testing13PrintToStringIiEENSt7__cxx1112basic_stringIcSt11char_traitsIcESaIcEEERKT_
FNDA:0,_ZN7testing13PrintToStringImEENSt7__cxx1112basic_stringIcSt11char_traitsIcESaIcEEERKT_
FNDA:0,_ZN7testing8internal16ContainerPrinter10PrintValueISt6vectorIiSaIiEEvEEvRKT_PSo
FNDA:0,_ZN7testing8internal52internal_stream_operator_without_lexical_name_lookup13StreamPrinter10PrintValueIivEEDTcvvlsdefp0_fp_ERKT_PSo
FNDA:0,_ZN7testing8internal52internal_stream_operator_without_lexical_name_lookup13StreamPrinter10PrintValueImvEEDTcvvlsdefp0_fp_ERKT_PSo
FNDA:0,_ZN7testing8internal17PrintWithFallbackISt6vectorIiSaIiEEEEvRKT_PSo
FNDA:0,_ZN7testing8internal17PrintWithFallbackIiEEvRKT_PSo
FNDA:0,_ZN7testing8internal17PrintWithFallbackImEEvRKT_PSo
FNDA:0,_ZN7testing8internal19FormatForComparisonISt6vectorIiSaIiEES4_E6FormatB5cxx11ERKS4_
FNDA:0,_ZN7testing8internal19FormatForComparisonIiiE6FormatB5cxx11ERKi
FNDA:0,_ZN7testing8internal19FormatForComparisonIimE6FormatB5cxx11ERKi
FNDA:0,_ZN7testing8internal19FormatForComparisonImiE6FormatB5cxx11ERKm
FNDA:0,_ZN7testing8internal33FormatForComparisonFailureMessageISt6vectorIiSaIiEES4_EENSt7__cxx1112basic_stringIcSt11char_traitsIcESaIcEEERKT_RKT0_
FNDA:0,_ZN7testing8internal33FormatForComparisonFailureMessageIiiEENSt7__cxx1112basic_stringIcSt11char_traitsIcESaIcEEERKT_RKT0_
FNDA:0,_ZN7testing8internal33FormatForComparisonFailureMessageIimEENSt7__cxx1112basic_stringIcSt11char_traitsIcESaIcEEERKT_RKT0_
FNDA:0,_ZN7testing8internal33FormatForComparisonFailureMessageImiEENSt7__cxx1112basic_stringIcSt11char_traitsIcESaIcEEERKT_RKT0_
FNDA:0,_ZN7testing8internal7PrintToISt6vectorIiSaIiEEEEvRKT_PSo
FNDA:0,_ZN7testing8internal7PrintToIiEEvRKT_PSo
FNDA:0,_ZN7testing8internal7PrintToImEEvRKT_PSo
FNDA:0,_ZN7testing8internal7PrintToERKNSt7__cxx1112basic_stringIcSt11char_traitsIcESaIcEEEPSo
FNDA:0,_ZN7testing8internal7PrintToERKNSt7__cxx1112basic_stringIwSt11char_traitsIwESaIwEEEPSo
FNDA:0,_ZN7testing8internal16UniversalPrinterINSt7__cxx1112basic_stringIcSt11char_traitsIcESaIcEEEE5PrintERKS7_PSo
FNDA:0,_ZN7testing8internal16UniversalPrinterINSt7__cxx1112basic_stringIwSt11char_traitsIwESaIwEEEE5PrintERKS7_PSo
FNDA:0,_ZN7testing8internal16UniversalPrinterISt6vectorIiSaIiEEE5PrintERKS4_PSo
FNDA:0,_ZN7testing8internal16UniversalPrinterIiE5PrintERKiPSo
FNDA:0,_ZN7testing8internal16UniversalPrinterImE5PrintERKmPSo
FNDA:0,_ZN7testing8internal21UniversalTersePrinterISt6vectorIiSaIiEEE5PrintERKS4_PSo
FNDA:0,_ZN7testing8internal21UniversalTersePrinterIiE5PrintERKiPSo
FNDA:0,_ZN7testing8internal21UniversalTersePrinterImE5PrintERKmPSo
FNF:39
FNH:0
DA:141,0
DA:142,0
DA:143,0
DA:144,0
DA:145,0
DA:146,0
DA:147,0
DA:148,0
DA:149,0
DA:150,0
DA:153,0
DA:156,0
DA:157,0
DA:160,0
DA:161,0
DA:163,0
DA:164,0
DA:221,0
DA:225,0
DA:226,0
DA:326,0
DA:336,0
DA:337,0
DA:357,0
DA:358,0
DA:437,0
DA:439,0
DA:464,0
DA:465,0
DA:466,0
DA:660,0
DA:661,0
DA:662,0
DA:687,0
DA:688,0
DA:689,0
DA:799,0
DA:808,0
DA:809,0
DA:989,0
DA:990,0
DA:991,0
DA:1017,0
DA:1018,0
DA:1019,0
DA:1021,0
DA:1023,0
DA:1080,0
DA:1081,0
DA:1082,0
DA:1084,0
DA:1086,0
DA:1108,0
DA:1112,0
DA:1113,0
DA:1148,0
DA:1149,0
DA:1150,0
DA:1151,0
DA:1152,0
LF:60
LH:0
end_of_record
TN:
SF:/mnt/c/users/t470/desktop/funda/lab11/project2/build/_deps/googletest-src/googletest/include/gtest/gtest-test-part.h
FN:102,102,_ZNK7testing14TestPartResult17nonfatally_failedEv
FN:105,105,_ZNK7testing14TestPartResult14fatally_failedEv
FN:108,108,_ZNK7testing14TestPartResult6failedEv
FN:157,157,_ZN7testing31TestPartResultReporterInterfaceD0Ev
FN:157,157,_ZN7testing31TestPartResultReporterInterfaceD2Ev
FN:68,74,_ZN7testing14TestPartResultC2ENS0_4TypeEPKciS3_
FN:77,77,_ZNK7testing14TestPartResult4typeEv
FN:81,83,_ZNK7testing14TestPartResult9file_nameEv
FN:87,87,_ZNK7testing14TestPartResult11line_numberEv
FN:90,90,_ZNK7testing14TestPartResult7summaryEv
FN:93,93,_ZNK7testing14TestPartResult7messageEv
FN:96,96,_ZNK7testing14TestPartResult7skippedEv
FNDA:0,_ZNK7testing14TestPartResult17nonfatally_failedEv
FNDA:0,_ZNK7testing14TestPartResult14fatally_failedEv
FNDA:0,_ZNK7testing14TestPartResult6failedEv
FNDA:0,_ZN7testing31TestPartResultReporterInterfaceD0Ev
FNDA:2,_ZN7testing31TestPartResultReporterInterfaceD2Ev
FNDA:0,_ZN7testing14TestPartResultC2ENS0_4TypeEPKciS3_
FNDA:0,_ZNK7testing14TestPartResult4typeEv
FNDA:0,_ZNK7testing14TestPartResult9file_nameEv
FNDA:0,_ZNK7testing14TestPartResult11line_numberEv
FNDA:0,_ZNK7testing14TestPartResult7summaryEv
FNDA:0,_ZNK7testing14TestPartResult7messageEv
FNDA:0,_ZNK7testing14TestPartResult7skippedEv
FNF:12
FNH:1
DA:68,0
DA:70,0
DA:71,0
DA:72,0
DA:73,0
DA:74,0
DA:77,0
DA:81,0
DA:82,0
DA:87,0
DA:90,0
DA:93,0
DA:96,0
DA:102,0
DA:105,0
DA:108,0
DA:157,2
LF:17
LH:1
end_of_record
TN:
SF:/mnt/c/users/t470/desktop/funda/lab11/project2/build/_deps/googletest-src/googletest/include/gtest/gtest.h
FN:1000,1000,_ZN7testing22EmptyTestEventListener16OnTestSuiteStartERKNS_9TestSuiteE
FN:1003,1003,_ZN7testing22EmptyTestEventListener15OnTestCaseStartERKNS_9TestSuiteE
FN:1006,1006,_ZN7testing22EmptyTestEventListener11OnTestStartERKNS_8TestInfoE
FN:1007,1007,_ZN7testing22EmptyTestEventListener14OnTestDisabledERKNS_8TestInfoE
FN:1008,1008,_ZN7testing22EmptyTestEventListener16OnTestPartResultERKNS_14TestPartResultE
FN:1009,1009,_ZN7testing22EmptyTestEventListener9OnTestEndERKNS_8TestInfoE
FN:1010,1010,_ZN7testing22EmptyTestEventListener14OnTestSuiteEndERKNS_9TestSuiteE
FN:1012,1012,_ZN7testing22EmptyTestEventListener13OnTestCaseEndERKNS_9TestSuiteE
FN:1015,1015,_ZN7testing22EmptyTestEventListener27OnEnvironmentsTearDownStartERKNS_8UnitTestE
FN:1016,1016,_ZN7testing22EmptyTestEventListener25OnEnvironmentsTearDownEndERKNS_8UnitTestE
FN:1017,1018,_ZN7testing22EmptyTestEventListener18OnTestIterationEndERKNS_8UnitTestEi
FN:1019,1019,_ZN7testing22EmptyTestEventListener16OnTestProgramEndERKNS_8UnitTestE
FN:1267,1267,_ZN7testing8UnitTest4implEv
FN:1268,1268,_ZNK7testing8UnitTest4implEv
FN:1359,1365,_ZN7testing8internal18CmpHelperEQFailureISt6vectorIiSaIiEES4_EENS_15AssertionResultEPKcS7_RKT_RKT0_
FN:1359,1365,_ZN7testing8internal18CmpHelperEQFailureIiiEENS_15AssertionResultEPKcS4_RKT_RKT0_
FN:1359,1365,_ZN7testing8internal18CmpHelperEQFailureImiEENS_15AssertionResultEPKcS4_RKT_RKT0_
FN:1376,1384,_ZN7testing8internal11CmpHelperEQISt6vectorIiSaIiEES4_EENS_15AssertionResultEPKcS7_RKT_RKT0_
FN:1376,1384,_ZN7testing8internal11CmpHelperEQIiiEENS_15AssertionResultEPKcS4_RKT_RKT0_
FN:1376,1384,_ZN7testing8internal11CmpHelperEQImiEENS_15AssertionResultEPKcS4_RKT_RKT0_
FN:1395,1399,_ZN7testing8internal8EqHelper7CompareISt6vectorIiSaIiEES5_LPv0EEENS_15AssertionResultEPKcS9_RKT_RKT0_
FN:1395,1399,_ZN7testing8internal8EqHelper7CompareIiiLPv0EEENS_15AssertionResultEPKcS6_RKT_RKT0_
FN:1395,1399,_ZN7testing8internal8EqHelper7CompareImiLPv0EEENS_15AssertionResultEPKcS6_RKT_RKT0_
FN:1617,1619,_ZN7testing8internal12AssertHelper16AssertHelperDataC2ENS_14TestPartResult4TypeEPKciS6_
FN:2283,2303,_ZN7testing12RegisterTestIJEZNS_8internal23InsertSyntheticTestCaseERKNSt7__cxx1112basic_stringIcSt11char_traitsIcESaIcEEENS1_12CodeLocationEbEUlvE_EEPNS_8TestInfoEPKcSF_SF_SF_SF_iT0_
FN:2283,2303,_ZN7testing12RegisterTestIJEZNS_8internal34TypeParameterizedTestSuiteRegistry22CheckForInstantiationsEvEUlvE_EEPNS_8TestInfoEPKcS7_S7_S7_S7_iT0_
FN:2290,2290,_ZZN7testing12RegisterTestIJEZNS_8internal23InsertSyntheticTestCaseERKNSt7__cxx1112basic_stringIcSt11char_traitsIcESaIcEEENS1_12CodeLocationEbEUlvE_EEPNS_8TestInfoEPKcSF_SF_SF_SF_iT0_EN11FactoryImplC2ESB_
FN:2290,2290,_ZZN7testing12RegisterTestIJEZNS_8internal34TypeParameterizedTestSuiteRegistry22CheckForInstantiationsEvEUlvE_EEPNS_8TestInfoEPKcS7_S7_S7_S7_iT0_EN11FactoryImplC2ES3_
FN:2291,2291,_ZZN7testing12RegisterTestIJEZNS_8internal23InsertSyntheticTestCaseERKNSt7__cxx1112basic_stringIcSt11char_traitsIcESaIcEEENS1_12CodeLocationEbEUlvE_EEPNS_8TestInfoEPKcSF_SF_SF_SF_iT0_EN11FactoryImpl10CreateTestEv
FN:2291,2291,_ZZN7testing12RegisterTestIJEZNS_8internal34TypeParameterizedTestSuiteRegistry22CheckForInstantiationsEvEUlvE_EEPNS_8TestInfoEPKcS7_S7_S7_S7_iT0_EN11FactoryImpl10CreateTestEv
FN:2317,2317,_Z13RUN_ALL_TESTSv
FN:256,256,_ZN7testing4Test14SetUpTestSuiteEv
FN:264,264,_ZN7testing4Test17TearDownTestSuiteEv
FN:269,269,_ZN7testing4Test16TearDownTestCaseEv
FN:270,270,_ZN7testing4Test13SetUpTestCaseEv
FN:336,336,_ZN7testing4Test11DeleteSelf_Ev
FN:357,357,_ZN7testing4Test5SetupEv
FN:375,376,_ZN7testing12TestPropertyC2ERKNSt7__cxx1112basic_stringIcSt11char_traitsIcESaIcEEES8_
FN:379,379,_ZNK7testing12TestProperty3keyEv
FN:382,382,_ZNK7testing12TestProperty5valueEv
FN:385,385,_ZN7testing12TestProperty8SetValueERKNSt7__cxx1112basic_stringIcSt11char_traitsIcESaIcEEE
FN:416,416,_ZNK7testing10TestResult6PassedEv
FN:431,431,_ZNK7testing10TestResult12elapsed_timeEv
FN:435,435,_ZNK7testing10TestResult15start_timestampEv
FN:468,468,_ZN7testing10TestResult19set_start_timestampEl
FN:471,471,_ZN7testing10TestResult16set_elapsed_timeEl
FN:492,492,_ZNK7testing10TestResult16death_test_countEv
FN:495,495,_ZN7testing10TestResult26increment_death_test_countEv
FN:541,541,_ZNK7testing8TestInfo15test_suite_nameEv
FN:549,549,_ZNK7testing8TestInfo4nameEv
FN:553,556,_ZNK7testing8TestInfo10type_paramEv
FN:560,563,_ZNK7testing8TestInfo11value_paramEv
FN:566,566,_ZNK7testing8TestInfo4fileEv
FN:569,569,_ZNK7testing8TestInfo4lineEv
FN:572,572,_ZNK7testing8TestInfo19is_in_another_shardEv
FN:590,590,_ZNK7testing8TestInfo10should_runEv
FN:593,597,_ZNK7testing8TestInfo13is_reportableEv
FN:600,600,_ZNK7testing8TestInfo6resultEv
FN:628,630,_ZN7testing8TestInfo26increment_death_test_countEv
FN:639,641,_ZN7testing8TestInfo15ClearTestResultEPS0_
FN:695,695,_ZNK7testing9TestSuite4nameEv
FN:699,702,_ZNK7testing9TestSuite10type_paramEv
FN:705,705,_ZNK7testing9TestSuite10should_runEv
FN:732,732,_ZNK7testing9TestSuite6PassedEv
FN:735,737,_ZNK7testing9TestSuite6FailedEv
FN:740,740,_ZNK7testing9TestSuite12elapsed_timeEv
FN:744,744,_ZNK7testing9TestSuite15start_timestampEv
FN:752,752,_ZNK7testing9TestSuite18ad_hoc_test_resultEv
FN:759,759,_ZN7testing9TestSuite14test_info_listEv
FN:762,764,_ZNK7testing9TestSuite14test_info_listEv
FN:771,771,_ZN7testing9TestSuite14set_should_runEb
FN:781,783,_ZN7testing9TestSuite20ClearTestSuiteResultEPS0_
FN:793,797,_ZN7testing9TestSuite17RunSetUpTestSuiteEv
FN:801,805,_ZN7testing9TestSuite20RunTearDownTestSuiteEv
FN:808,810,_ZN7testing9TestSuite10TestPassedEPKNS_8TestInfoE
FN:813,815,_ZN7testing9TestSuite11TestSkippedEPKNS_8TestInfoE
FN:818,820,_ZN7testing9TestSuite10TestFailedEPKNS_8TestInfoE
FN:824,826,_ZN7testing9TestSuite22TestReportableDisabledEPKNS_8TestInfoE
FN:829,831,_ZN7testing9TestSuite12TestDisabledEPKNS_8TestInfoE
FN:834,836,_ZN7testing9TestSuite14TestReportableEPKNS_8TestInfoE
FN:839,841,_ZN7testing9TestSuite13ShouldRunTestEPKNS_8TestInfoE
FN:928,928,_ZN7testing17TestEventListenerD0Ev
FN:928,928,_ZN7testing17TestEventListenerD2Ev
FN:946,946,_ZN7testing17TestEventListener16OnTestSuiteStartERKNS_9TestSuiteE
FN:950,950,_ZN7testing17TestEventListener15OnTestCaseStartERKNS_9TestSuiteE
FN:957,957,_ZN7testing17TestEventListener14OnTestDisabledERKNS_8TestInfoE
FN:968,968,_ZN7testing17TestEventListener14OnTestSuiteEndERKNS_9TestSuiteE
FN:972,972,_ZN7testing17TestEventListener13OnTestCaseEndERKNS_9TestSuiteE
FN:995,995,_ZN7testing22EmptyTestEventListener18OnTestProgramStartERKNS_8UnitTestE
FN:996,997,_ZN7testing22EmptyTestEventListener20OnTestIterationStartERKNS_8UnitTestEi
FN:998,998,_ZN7testing22EmptyTestEventListener24OnEnvironmentsSetUpStartERKNS_8UnitTestE
FN:999,999,_ZN7testing22EmptyTestEventListener22OnEnvironmentsSetUpEndERKNS_8UnitTestE
FNDA:0,_ZN7testing22EmptyTestEventListener16OnTestSuiteStartERKNS_9TestSuiteE
FNDA:0,_ZN7testing22EmptyTestEventListener15OnTestCaseStartERKNS_9TestSuiteE
FNDA:0,_ZN7testing22EmptyTestEventListener11OnTestStartERKNS_8TestInfoE
FNDA:0,_ZN7testing22EmptyTestEventListener14OnTestDisabledERKNS_8TestInfoE
FNDA:0,_ZN7testing22EmptyTestEventListener16OnTestPartResultERKNS_14TestPartResultE
FNDA:0,_ZN7testing22EmptyTestEventListener9OnTestEndERKNS_8TestInfoE
FNDA:0,_ZN7testing22EmptyTestEventListener14OnTestSuiteEndERKNS_9TestSuiteE
FNDA:0,_ZN7testing22EmptyTestEventListener13OnTestCaseEndERKNS_9TestSuiteE
FNDA:0,_ZN7testing22EmptyTestEventListener27OnEnvironmentsTearDownStartERKNS_8UnitTestE
FNDA:0,_ZN7testing22EmptyTestEventListener25OnEnvironmentsTearDownEndERKNS_8UnitTestE
FNDA:0,_ZN7testing22EmptyTestEventListener18OnTestIterationEndERKNS_8UnitTestEi
FNDA:0,_ZN7testing22EmptyTestEventListener16OnTestProgramEndERKNS_8UnitTestE
FNDA:249,_ZN7testing8UnitTest4implEv
FNDA:9,_ZNK7testing8UnitTest4implEv
FNDA:0,_ZN7testing8internal18CmpHelperEQFailureISt6vectorIiSaIiEES4_EENS_15AssertionResultEPKcS7_RKT_RKT0_
FNDA:0,_ZN7testing8internal18CmpHelperEQFailureIiiEENS_15AssertionResultEPKcS4_RKT_RKT0_
FNDA:0,_ZN7testing8internal18CmpHelperEQFailureImiEENS_15AssertionResultEPKcS4_RKT_RKT0_
FNDA:1,_ZN7testing8internal11CmpHelperEQISt6vectorIiSaIiEES4_EENS_15AssertionResultEPKcS7_RKT_RKT0_
FNDA:23,_ZN7testing8internal11CmpHelperEQIiiEENS_15AssertionResultEPKcS4_RKT_RKT0_
FNDA:15,_ZN7testing8internal11CmpHelperEQImiEENS_15AssertionResultEPKcS4_RKT_RKT0_
FNDA:1,_ZN7testing8internal8EqHelper7CompareISt6vectorIiSaIiEES5_LPv0EEENS_15AssertionResultEPKcS9_RKT_RKT0_
FNDA:23,_ZN7testing8internal8EqHelper7CompareIiiLPv0EEENS_15AssertionResultEPKcS6_RKT_RKT0_
FNDA:15,_ZN7testing8internal8EqHelper7CompareImiLPv0EEENS_15AssertionResultEPKcS6_RKT_RKT0_
FNDA:0,_ZN7testing8internal12AssertHelper16AssertHelperDataC2ENS_14TestPartResult4TypeEPKciS6_
FNDA:0,_ZN7testing12RegisterTestIJEZNS_8internal23InsertSyntheticTestCaseERKNSt7__cxx1112basic_stringIcSt11char_traitsIcESaIcEEENS1_12CodeLocationEbEUlvE_EEPNS_8TestInfoEPKcSF_SF_SF_SF_iT0_
FNDA:0,_ZN7testing12RegisterTestIJEZNS_8internal34TypeParameterizedTestSuiteRegistry22CheckForInstantiationsEvEUlvE_EEPNS_8TestInfoEPKcS7_S7_S7_S7_iT0_
FNDA:0,_ZZN7testing12RegisterTestIJEZNS_8internal23InsertSyntheticTestCaseERKNSt7__cxx1112basic_stringIcSt11char_traitsIcESaIcEEENS1_12CodeLocationEbEUlvE_EEPNS_8TestInfoEPKcSF_SF_SF_SF_iT0_EN11FactoryImplC2ESB_
FNDA:0,_ZZN7testing12RegisterTestIJEZNS_8internal34TypeParameterizedTestSuiteRegistry22CheckForInstantiationsEvEUlvE_EEPNS_8TestInfoEPKcS7_S7_S7_S7_iT0_EN11FactoryImplC2ES3_
FNDA:0,_ZZN7testing12RegisterTestIJEZNS_8internal23InsertSyntheticTestCaseERKNSt7__cxx1112basic_stringIcSt11char_traitsIcESaIcEEENS1_12CodeLocationEbEUlvE_EEPNS_8TestInfoEPKcSF_SF_SF_SF_iT0_EN11FactoryImpl10CreateTestEv
FNDA:0,_ZZN7testing12RegisterTestIJEZNS_8internal34TypeParameterizedTestSuiteRegistry22CheckForInstantiationsEvEUlvE_EEPNS_8TestInfoEPKcS7_S7_S7_S7_iT0_EN11FactoryImpl10CreateTestEv
FNDA:1,_Z13RUN_ALL_TESTSv
FNDA:0,_ZN7testing4Test14SetUpTestSuiteEv
FNDA:0,_ZN7testing4Test17TearDownTestSuiteEv
FNDA:0,_ZN7testing4Test16TearDownTestCaseEv
FNDA:0,_ZN7testing4Test13SetUpTestCaseEv
FNDA:17,_ZN7testing4Test11DeleteSelf_Ev
FNDA:0,_ZN7testing4Test5SetupEv
FNDA:0,_ZN7testing12TestPropertyC2ERKNSt7__cxx1112basic_stringIcSt11char_traitsIcESaIcEEES8_
FNDA:0,_ZNK7testing12TestProperty3keyEv
FNDA:0,_ZNK7testing12TestProperty5valueEv
FNDA:0,_ZN7testing12TestProperty8SetValueERKNSt7__cxx1112basic_stringIcSt11char_traitsIcESaIcEEE
FNDA:34,_ZNK7testing10TestResult6PassedEv
FNDA:17,_ZNK7testing10TestResult12elapsed_timeEv
FNDA:0,_ZNK7testing10TestResult15start_timestampEv
FNDA:17,_ZN7testing10TestResult19set_start_timestampEl
FNDA:17,_ZN7testing10TestResult16set_elapsed_timeEl
FNDA:0,_ZNK7testing10TestResult16death_test_countEv
FNDA:0,_ZN7testing10TestResult26increment_death_test_countEv
FNDA:51,_ZNK7testing8TestInfo15test_suite_nameEv
FNDA:85,_ZNK7testing8TestInfo4nameEv
FNDA:17,_ZNK7testing8TestInfo10type_paramEv
FNDA:0,_ZNK7testing8TestInfo11value_paramEv
FNDA:96,_ZNK7testing8TestInfo4fileEv
FNDA:96,_ZNK7testing8TestInfo4lineEv
FNDA:0,_ZNK7testing8TestInfo19is_in_another_shardEv
FNDA:136,_ZNK7testing8TestInfo10should_runEv
FNDA:17,_ZNK7testing8TestInfo13is_reportableEv
FNDA:119,_ZNK7testing8TestInfo6resultEv
FNDA:0,_ZN7testing8TestInfo26increment_death_test_countEv
FNDA:17,_ZN7testing8TestInfo15ClearTestResultEPS0_
FNDA:19,_ZNK7testing9TestSuite4nameEv
FNDA:1,_ZNK7testing9TestSuite10type_paramEv
FNDA:21,_ZNK7testing9TestSuite10should_runEv
FNDA:0,_ZNK7testing9TestSuite6PassedEv
FNDA:2,_ZNK7testing9TestSuite6FailedEv
FNDA:1,_ZNK7testing9TestSuite12elapsed_timeEv
FNDA:0,_ZNK7testing9TestSuite15start_timestampEv
FNDA:4,_ZNK7testing9TestSuite18ad_hoc_test_resultEv
FNDA:35,_ZN7testing9TestSuite14test_info_listEv
FNDA:17,_ZNK7testing9TestSuite14test_info_listEv
FNDA:18,_ZN7testing9TestSuite14set_should_runEb
FNDA:1,_ZN7testing9TestSuite20ClearTestSuiteResultEPS0_
FNDA:1,_ZN7testing9TestSuite17RunSetUpTestSuiteEv
FNDA:1,_ZN7testing9TestSuite20RunTearDownTestSuiteEv
FNDA:17,_ZN7testing9TestSuite10TestPassedEPKNS_8TestInfoE
FNDA:17,_ZN7testing9TestSuite11TestSkippedEPKNS_8TestInfoE
FNDA:34,_ZN7testing9TestSuite10TestFailedEPKNS_8TestInfoE
FNDA:17,_ZN7testing9TestSuite22TestReportableDisabledEPKNS_8TestInfoE
FNDA:0,_ZN7testing9TestSuite12TestDisabledEPKNS_8TestInfoE
FNDA:0,_ZN7testing9TestSuite14TestReportableEPKNS_8TestInfoE
FNDA:68,_ZN7testing9TestSuite13ShouldRunTestEPKNS_8TestInfoE
FNDA:0,_ZN7testing17TestEventListenerD0Ev
FNDA:2,_ZN7testing17TestEventListenerD2Ev
FNDA:1,_ZN7testing17TestEventListener16OnTestSuiteStartERKNS_9TestSuiteE
FNDA:0,_ZN7testing17TestEventListener15OnTestCaseStartERKNS_9TestSuiteE
FNDA:0,_ZN7testing17TestEventListener14OnTestDisabledERKNS_8TestInfoE
FNDA:1,_ZN7testing17TestEventListener14OnTestSuiteEndERKNS_9TestSuiteE
FNDA:0,_ZN7testing17TestEventListener13OnTestCaseEndERKNS_9TestSuiteE
FNDA:0,_ZN7testing22EmptyTestEventListener18OnTestProgramStartERKNS_8UnitTestE
FNDA:0,_ZN7testing22EmptyTestEventListener20OnTestIterationStartERKNS_8UnitTestEi
FNDA:0,_ZN7testing22EmptyTestEventListener24OnEnvironmentsSetUpStartERKNS_8UnitTestE
FNDA:0,_ZN7testing22EmptyTestEventListener22OnEnvironmentsSetUpEndERKNS_8UnitTestE
FNF:92
FNH:43
DA:256,0
DA:264,0
DA:269,0
DA:270,0
DA:336,17
DA:357,0
DA:375,0
DA:376,0
DA:379,0
DA:382,0
DA:385,0
DA:416,34
DA:431,17
DA:435,0
DA:468,17
DA:471,17
DA:492,0
DA:495,0
DA:541,51
DA:549,85
DA:553,17
DA:554,17
DA:555,17
DA:560,0
DA:561,0
DA:562,0
DA:566,96
DA:569,96
DA:572,0
DA:590,136
DA:593,17
DA:596,17
DA:600,119
DA:628,0
DA:629,0
DA:639,17
DA:640,17
DA:641,17
DA:695,19
DA:699,1
DA:700,1
DA:701,1
DA:705,21
DA:732,0
DA:735,2
DA:736,2
DA:740,1
DA:744,0
DA:752,4
DA:759,35
DA:762,17
DA:763,17
DA:771,18
DA:781,1
DA:782,1
DA:783,1
DA:793,1
DA:794,1
DA:795,0
DA:797,1
DA:801,1
DA:802,1
DA:803,0
DA:805,1
DA:808,17
DA:809,17
DA:813,17
DA:814,17
DA:818,34
DA:819,34
DA:824,17
DA:825,17
DA:829,0
DA:830,0
DA:834,0
DA:835,0
DA:839,68
DA:840,68
DA:928,2
DA:946,1
DA:950,0
DA:957,0
DA:968,1
DA:972,0
DA:995,0
DA:996,0
DA:997,0
DA:998,0
DA:999,0
DA:1000,0
DA:1003,0
DA:1006,0
DA:1007,0
DA:1008,0
DA:1009,0
DA:1010,0
DA:1012,0
DA:1015,0
DA:1016,0
DA:1017,0
DA:1018,0
DA:1019,0
DA:1267,249
DA:1268,9
DA:1359,0
DA:1364,0
DA:1376,39
DA:1379,39
DA:1380,39
DA:1383,0
DA:1395,39
DA:1398,39
DA:1617,0
DA:1619,0
DA:2283,0
DA:2290,0
DA:2291,0
DA:2297,0
DA:2299,0
DA:2302,0
DA:2317,1
LF:121
LH:62
end_of_record
TN:
SF:/mnt/c/users/t470/desktop/funda/lab11/project2/build/_deps/googletest-src/googletest/include/gtest/internal/gtest-death-test-internal.h
FN:156,156,_ZN7testing8internal16DeathTestFactoryD0Ev
FN:156,156,_ZN7testing8internal16DeathTestFactoryD2Ev
FN:274,276,_ZN7testing8internal24InternalRunDeathTestFlagC2ERKNSt7__cxx1112basic_stringIcSt11char_traitsIcESaIcEEEiii
FN:278,280,_ZN7testing8internal24InternalRunDeathTestFlagD2Ev
FN:282,282,_ZNK7testing8internal24InternalRunDeathTestFlag4fileB5cxx11Ev
FN:283,283,_ZNK7testing8internal24InternalRunDeathTestFlag4lineEv
FN:284,284,_ZNK7testing8internal24InternalRunDeathTestFlag5indexEv
FN:285,285,_ZNK7testing8internal24InternalRunDeathTestFlag8write_fdEv
FN:91,91,_ZN7testing8internal9DeathTestD0Ev
FN:91,91,_ZN7testing8internal9DeathTestD2Ev
FNDA:0,_ZN7testing8internal16DeathTestFactoryD0Ev
FNDA:1,_ZN7testing8internal16DeathTestFactoryD2Ev
FNDA:0,_ZN7testing8internal24InternalRunDeathTestFlagC2ERKNSt7__cxx1112basic_stringIcSt11char_traitsIcESaIcEEEiii
FNDA:0,_ZN7testing8internal24InternalRunDeathTestFlagD2Ev
FNDA:0,_ZNK7testing8internal24InternalRunDeathTestFlag4fileB5cxx11Ev
FNDA:0,_ZNK7testing8internal24InternalRunDeathTestFlag4lineEv
FNDA:0,_ZNK7testing8internal24InternalRunDeathTestFlag5indexEv
FNDA:0,_ZNK7testing8internal24InternalRunDeathTestFlag8write_fdEv
FNDA:0,_ZN7testing8internal9DeathTestD0Ev
FNDA:0,_ZN7testing8internal9DeathTestD2Ev
FNF:10
FNH:1
DA:91,0
DA:156,1
DA:274,0
DA:276,0
DA:278,0
DA:279,0
DA:280,0
DA:282,0
DA:283,0
DA:284,0
DA:285,0
LF:11
LH:1
end_of_record
TN:
SF:/mnt/c/users/t470/desktop/funda/lab11/project2/build/_deps/googletest-src/googletest/include/gtest/internal/gtest-filepath.h
FN:118,118,_ZNK7testing8internal8FilePath7IsEmptyEv
FN:71,71,_ZN7testing8internal8FilePathC2Ev
FN:72,72,_ZN7testing8internal8FilePathC2ERKS1_
FN:74,76,_ZN7testing8internal8FilePathC2ERKNSt7__cxx1112basic_stringIcSt11char_traitsIcESaIcEEE
FN:78,81,_ZN7testing8internal8FilePathaSERKS1_
FN:83,83,_ZN7testing8internal8FilePath3SetERKS1_
FN:85,85,_ZNK7testing8internal8FilePath6stringB5cxx11Ev
FN:86,86,_ZNK7testing8internal8FilePath5c_strEv
FNDA:18,_ZNK7testing8internal8FilePath7IsEmptyEv
FNDA:1,_ZN7testing8internal8FilePathC2Ev
FNDA:0,_ZN7testing8internal8FilePathC2ERKS1_
FNDA:1,_ZN7testing8internal8FilePathC2ERKNSt7__cxx1112basic_stringIcSt11char_traitsIcESaIcEEE
FNDA:0,_ZN7testing8internal8FilePathaSERKS1_
FNDA:1,_ZN7testing8internal8FilePath3SetERKS1_
FNDA:0,_ZNK7testing8internal8FilePath6stringB5cxx11Ev
FNDA:0,_ZNK7testing8internal8FilePath5c_strEv
FNF:8
FNH:4
DA:71,3
DA:72,0
DA:74,1
DA:75,1
DA:76,1
DA:78,0
DA:79,0
DA:80,0
DA:83,1
DA:85,0
DA:86,0
DA:118,18
LF:12
LH:6
end_of_record
TN:
SF:/mnt/c/users/t470/desktop/funda/lab11/project2/build/_deps/googletest-src/googletest/include/gtest/internal/gtest-internal.h
FN:294,294,_ZN7testing8internal13FloatingPointIdEC2ERKd
FN:294,294,_ZN7testing8internal13FloatingPointIfEC2ERKf
FN:316,316,_ZNK7testing8internal13FloatingPointIdE13exponent_bitsEv
FN:316,316,_ZNK7testing8internal13FloatingPointIfE13exponent_bitsEv
FN:319,319,_ZNK7testing8internal13FloatingPointIdE13fraction_bitsEv
FN:319,319,_ZNK7testing8internal13FloatingPointIfE13fraction_bitsEv
FN:325,329,_ZNK7testing8internal13FloatingPointIdE6is_nanEv
FN:325,329,_ZNK7testing8internal13FloatingPointIfE6is_nanEv
FN:337,344,_ZNK7testing8internal13FloatingPointIdE12AlmostEqualsERKS2_
FN:337,344,_ZNK7testing8internal13FloatingPointIfE12AlmostEqualsERKS2_
FN:368,376,_ZN7testing8internal13FloatingPointIdE24SignAndMagnitudeToBiasedERKm
FN:368,376,_ZN7testing8internal13FloatingPointIfE24SignAndMagnitudeToBiasedERKj
FN:380,385,_ZN7testing8internal13FloatingPointIdE38DistanceBetweenSignAndMagnitudeNumbersERKmS4_
FN:380,385,_ZN7testing8internal13FloatingPointIfE38DistanceBetweenSignAndMagnitudeNumbersERKjS4_
FN:419,425,_ZN7testing8internal9GetTypeIdINS0_12_GLOBAL__N_111FailureTestEEEPKvv
FN:419,425,_ZN7testing8internal9GetTypeIdINS_4TestEEEPKvv
FN:438,438,_ZN7testing8internal15TestFactoryBaseD0Ev
FN:438,438,_ZN7testing8internal15TestFactoryBaseD2Ev
FN:445,445,_ZN7testing8internal15TestFactoryBaseC2Ev
FN:457,457,_ZN7testing8internal15TestFactoryImplI18ListTest_Swap_TestE10CreateTestEv
FN:457,457,_ZN7testing8internal15TestFactoryImplI19ListTest_Clear_TestE10CreateTestEv
FN:457,457,_ZN7testing8internal15TestFactoryImplI19ListTest_Erase_TestE10CreateTestEv
FN:457,457,_ZN7testing8internal15TestFactoryImplI20ListTest_Insert_TestE10CreateTestEv
FN:457,457,_ZN7testing8internal15TestFactoryImplI20ListTest_Resize_TestE10CreateTestEv
FN:457,457,_ZN7testing8internal15TestFactoryImplI21ListTest_PopBack_TestE10CreateTestEv
FN:457,457,_ZN7testing8internal15TestFactoryImplI22ListTest_Iterator_TestE10CreateTestEv
FN:457,457,_ZN7testing8internal15TestFactoryImplI22ListTest_PopFront_TestE10CreateTestEv
FN:457,457,_ZN7testing8internal15TestFactoryImplI22ListTest_PushBack_TestE10CreateTestEv
FN:457,457,_ZN7testing8internal15TestFactoryImplI23ListTest_EdgeCases_TestE10CreateTestEv
FN:457,457,_ZN7testing8internal15TestFactoryImplI23ListTest_PushFront_TestE10CreateTestEv
FN:457,457,_ZN7testing8internal15TestFactoryImplI27ListTest_ConstIterator_TestE10CreateTestEv
FN:457,457,_ZN7testing8internal15TestFactoryImplI29ListTest_ReverseIterator_TestE10CreateTestEv
FN:457,457,_ZN7testing8internal15TestFactoryImplI32ListTest_DefaultConstructor_TestE10CreateTestEv
FN:457,457,_ZN7testing8internal15TestFactoryImplI33ListTest_ComparisonOperators_TestE10CreateTestEv
FN:457,457,_ZN7testing8internal15TestFactoryImplI33ListTest_CopyListConstructor_TestE10CreateTestEv
FN:457,457,_ZN7testing8internal15TestFactoryImplI40ListTest_InitializerListConstructor_TestE10CreateTestEv
FN:478,479,_ZN7testing8internal12CodeLocationC2ERKNSt7__cxx1112basic_stringIcSt11char_traitsIcESaIcEEEi
FN:491,494,_ZN7testing8internal19GetNotDefaultOrNullEPFvvES2_
FN:506,525,_ZN7testing8internal16SuiteApiResolverINS0_12_GLOBAL__N_111FailureTestEE19GetSetUpCaseOrSuiteEPKci
FN:506,525,_ZN7testing8internal16SuiteApiResolverINS_4TestEE19GetSetUpCaseOrSuiteEPKci
FN:527,546,_ZN7testing8internal16SuiteApiResolverINS0_12_GLOBAL__N_111FailureTestEE22GetTearDownCaseOrSuiteEPKci
FN:527,546,_ZN7testing8internal16SuiteApiResolverINS_4TestEE22GetTearDownCaseOrSuiteEPKci
FN:637,645,_ZN7testing8internal9SkipCommaEPKc
FN:649,652,_ZN7testing8internal19GetPrefixUntilCommaB5cxx11EPKc
FN:829,829,_ZN7testing8internal11AlwaysFalseEv
FN:843,843,_ZN7testing8internal14TrueWithStringC2Ev
FN:846,846,_ZNK7testing8internal14TrueWithStringcvbEv
FN:859,859,_ZN7testing8internal6RandomC2Ej
FN:861,861,_ZN7testing8internal6Random6ReseedEj
FNDA:0,_ZN7testing8internal13FloatingPointIdEC2ERKd
FNDA:0,_ZN7testing8internal13FloatingPointIfEC2ERKf
FNDA:0,_ZNK7testing8internal13FloatingPointIdE13exponent_bitsEv
FNDA:0,_ZNK7testing8internal13FloatingPointIfE13exponent_bitsEv
FNDA:0,_ZNK7testing8internal13FloatingPointIdE13fraction_bitsEv
FNDA:0,_ZNK7testing8internal13FloatingPointIfE13fraction_bitsEv
FNDA:0,_ZNK7testing8internal13FloatingPointIdE6is_nanEv
FNDA:0,_ZNK7testing8internal13FloatingPointIfE6is_nanEv
FNDA:0,_ZNK7testing8internal13FloatingPointIdE12AlmostEqualsERKS2_
FNDA:0,_ZNK7testing8internal13FloatingPointIfE12AlmostEqualsERKS2_
FNDA:0,_ZN7testing8internal13FloatingPointIdE24SignAndMagnitudeToBiasedERKm
FNDA:0,_ZN7testing8internal13FloatingPointIfE24SignAndMagnitudeToBiasedERKj
FNDA:0,_ZN7testing8internal13FloatingPointIdE38DistanceBetweenSignAndMagnitudeNumbersERKmS4_
FNDA:0,_ZN7testing8internal13FloatingPointIfE38DistanceBetweenSignAndMagnitudeNumbersERKjS4_
FNDA:0,_ZN7testing8internal9GetTypeIdINS0_12_GLOBAL__N_111FailureTestEEEPKvv
FNDA:18,_ZN7testing8internal9GetTypeIdINS_4TestEEEPKvv
FNDA:0,_ZN7testing8internal15TestFactoryBaseD0Ev
FNDA:17,_ZN7testing8internal15TestFactoryBaseD2Ev
FNDA:17,_ZN7testing8internal15TestFactoryBaseC2Ev
FNDA:1,_ZN7testing8internal15TestFactoryImplI18ListTest_Swap_TestE10CreateTestEv
FNDA:1,_ZN7testing8internal15TestFactoryImplI19ListTest_Clear_TestE10CreateTestEv
FNDA:1,_ZN7testing8internal15TestFactoryImplI19ListTest_Erase_TestE10CreateTestEv
FNDA:1,_ZN7testing8internal15TestFactoryImplI20ListTest_Insert_TestE10CreateTestEv
FNDA:1,_ZN7testing8internal15TestFactoryImplI20ListTest_Resize_TestE10CreateTestEv
FNDA:1,_ZN7testing8internal15TestFactoryImplI21ListTest_PopBack_TestE10CreateTestEv
FNDA:1,_ZN7testing8internal15TestFactoryImplI22ListTest_Iterator_TestE10CreateTestEv
FNDA:1,_ZN7testing8internal15TestFactoryImplI22ListTest_PopFront_TestE10CreateTestEv
FNDA:1,_ZN7testing8internal15TestFactoryImplI22ListTest_PushBack_TestE10CreateTestEv
FNDA:1,_ZN7testing8internal15TestFactoryImplI23ListTest_EdgeCases_TestE10CreateTestEv
FNDA:1,_ZN7testing8internal15TestFactoryImplI23ListTest_PushFront_TestE10CreateTestEv
FNDA:1,_ZN7testing8internal15TestFactoryImplI27ListTest_ConstIterator_TestE10CreateTestEv
FNDA:1,_ZN7testing8internal15TestFactoryImplI29ListTest_ReverseIterator_TestE10CreateTestEv
FNDA:1,_ZN7testing8internal15TestFactoryImplI32ListTest_DefaultConstructor_TestE10CreateTestEv
FNDA:1,_ZN7testing8internal15TestFactoryImplI33ListTest_ComparisonOperators_TestE10CreateTestEv
FNDA:1,_ZN7testing8internal15TestFactoryImplI33ListTest_CopyListConstructor_TestE10CreateTestEv
FNDA:1,_ZN7testing8internal15TestFactoryImplI40ListTest_InitializerListConstructor_TestE10CreateTestEv
FNDA:17,_ZN7testing8internal12CodeLocationC2ERKNSt7__cxx1112basic_stringIcSt11char_traitsIcESaIcEEEi
FNDA:68,_ZN7testing8internal19GetNotDefaultOrNullEPFvvES2_
FNDA:0,_ZN7testing8internal16SuiteApiResolverINS0_12_GLOBAL__N_111FailureTestEE19GetSetUpCaseOrSuiteEPKci
FNDA:17,_ZN7testing8internal16SuiteApiResolverINS_4TestEE19GetSetUpCaseOrSuiteEPKci
FNDA:0,_ZN7testing8internal16SuiteApiResolverINS0_12_GLOBAL__N_111FailureTestEE22GetTearDownCaseOrSuiteEPKci
FNDA:17,_ZN7testing8internal16SuiteApiResolverINS_4TestEE22GetTearDownCaseOrSuiteEPKci
FNDA:0,_ZN7testing8internal9SkipCommaEPKc
FNDA:0,_ZN7testing8internal19GetPrefixUntilCommaB5cxx11EPKc
FNDA:0,_ZN7testing8internal11AlwaysFalseEv
FNDA:2,_ZN7testing8internal14TrueWithStringC2Ev
FNDA:2,_ZNK7testing8internal14TrueWithStringcvbEv
FNDA:1,_ZN7testing8internal6RandomC2Ej
FNDA:0,_ZN7testing8internal6Random6ReseedEj
FNF:49
FNH:27
DA:294,0
DA:316,0
DA:319,0
DA:325,0
DA:328,0
DA:337,0
DA:340,0
DA:342,0
DA:343,0
DA:368,0
DA:369,0
DA:371,0
DA:374,0
DA:380,0
DA:382,0
DA:383,0
DA:384,0
DA:419,18
DA:424,18
DA:438,17
DA:445,17
DA:457,17
DA:478,17
DA:479,17
DA:491,68
DA:493,68
DA:506,17
DA:510,17
DA:512,17
DA:514,17
DA:517,0
DA:519,17
DA:527,17
DA:531,17
DA:533,17
DA:535,17
DA:538,0
DA:540,17
DA:637,0
DA:638,0
DA:639,0
DA:640,0
DA:642,0
DA:644,0
DA:649,0
DA:650,0
DA:651,0
DA:829,0
DA:843,2
DA:846,2
DA:859,1
DA:861,0
LF:52
LH:22
end_of_record
TN:
SF:/mnt/c/users/t470/desktop/funda/lab11/project2/build/_deps/googletest-src/googletest/include/gtest/internal/gtest-param-util.h
FN:694,694,_ZN7testing8internal30ParameterizedTestSuiteRegistryC2Ev
FN:695,699,_ZN7testing8internal30ParameterizedTestSuiteRegistryD2Ev
FN:732,736,_ZN7testing8internal30ParameterizedTestSuiteRegistry13RegisterTestsEv
FN:776,777,_ZN7testing8internal34TypeParameterizedTestSuiteRegistry30TypeParameterizedTestSuiteInfoC2ENS0_12CodeLocationE
FNDA:1,_ZN7testing8internal30ParameterizedTestSuiteRegistryC2Ev
FNDA:1,_ZN7testing8internal30ParameterizedTestSuiteRegistryD2Ev
FNDA:1,_ZN7testing8internal30ParameterizedTestSuiteRegistry13RegisterTestsEv
FNDA:0,_ZN7testing8internal34TypeParameterizedTestSuiteRegistry30TypeParameterizedTestSuiteInfoC2ENS0_12CodeLocationE
FNF:4
FNH:3
DA:694,1
DA:695,1
DA:696,1
DA:697,0
DA:699,1
DA:732,1
DA:733,1
DA:734,0
DA:736,1
DA:776,0
DA:777,0
LF:11
LH:7
end_of_record
TN:
SF:/mnt/c/users/t470/desktop/funda/lab11/project2/build/_deps/googletest-src/googletest/include/gtest/internal/gtest-port.h
FN:1042,1042,_ZN7testing8internal8GTestLog9GetStreamEv
FN:1058,1058,_ZN7testing8internal11LogToStderrEv
FN:1059,1059,_ZN7testing8internal12FlushInfoLogEv
FN:1140,1142,_ZN7testing8internal13ImplicitCast_IPKvEET_S4_
FN:1150,1157,_ZN7testing8internal27CheckedDowncastToActualTypeINS0_11ThreadLocalIPNS_31TestPartResultReporterInterfaceEE11ValueHolderENS0_26ThreadLocalValueHolderBaseEEEPT_PT0_
FN:1150,1157,_ZN7testing8internal27CheckedDowncastToActualTypeINS0_11ThreadLocalISt6vectorINS0_9TraceInfoESaIS4_EEE11ValueHolderENS0_26ThreadLocalValueHolderBaseEEEPT_PT0_
FN:1649,1653,_ZN7testing8internal9MutexBase4LockEv
FN:1656,1663,_ZN7testing8internal9MutexBase6UnlockEv
FN:1706,1709,_ZN7testing8internal5MutexC2Ev
FN:1710,1710,_ZN7testing8internal5MutexD2Ev
FN:1724,1724,_ZN7testing8internal14GTestMutexLockC2EPNS0_9MutexBaseE
FN:1726,1726,_ZN7testing8internal14GTestMutexLockD2Ev
FN:1745,1745,_ZN7testing8internal26ThreadLocalValueHolderBaseD0Ev
FN:1745,1745,_ZN7testing8internal26ThreadLocalValueHolderBaseD2Ev
FN:1750,1752,DeleteThreadLocalValue
FN:1758,1759,_ZN7testing8internal11ThreadLocalISt6vectorINS0_9TraceInfoESaIS3_EEEC2Ev
FN:1760,1762,_ZN7testing8internal11ThreadLocalIPNS_31TestPartResultReporterInterfaceEEC2ERKS3_
FN:1764,1771,_ZN7testing8internal11ThreadLocalIPNS_31TestPartResultReporterInterfaceEED2Ev
FN:1764,1771,_ZN7testing8internal11ThreadLocalISt6vectorINS0_9TraceInfoESaIS3_EEED2Ev
FN:1773,1773,_ZN7testing8internal11ThreadLocalIPNS_31TestPartResultReporterInterfaceEE7pointerEv
FN:1773,1773,_ZN7testing8internal11ThreadLocalISt6vectorINS0_9TraceInfoESaIS3_EEE7pointerEv
FN:1774,1774,_ZNK7testing8internal11ThreadLocalIPNS_31TestPartResultReporterInterfaceEE7pointerEv
FN:1775,1775,_ZNK7testing8internal11ThreadLocalIPNS_31TestPartResultReporterInterfaceEE3getEv
FN:1776,1776,_ZN7testing8internal11ThreadLocalIPNS_31TestPartResultReporterInterfaceEE3setERKS3_
FN:1782,1782,_ZN7testing8internal11ThreadLocalISt6vectorINS0_9TraceInfoESaIS3_EEE11ValueHolderC2Ev
FN:1783,1783,_ZN7testing8internal11ThreadLocalIPNS_31TestPartResultReporterInterfaceEE11ValueHolderC2ERKS3_
FN:1785,1785,_ZN7testing8internal11ThreadLocalIPNS_31TestPartResultReporterInterfaceEE11ValueHolder7pointerEv
FN:1785,1785,_ZN7testing8internal11ThreadLocalISt6vectorINS0_9TraceInfoESaIS3_EEE11ValueHolder7pointerEv
FN:1793,1800,_ZN7testing8internal11ThreadLocalIPNS_31TestPartResultReporterInterfaceEE9CreateKeyEv
FN:1793,1800,_ZN7testing8internal11ThreadLocalISt6vectorINS0_9TraceInfoESaIS3_EEE9CreateKeyEv
FN:1802,1813,_ZNK7testing8internal11ThreadLocalIPNS_31TestPartResultReporterInterfaceEE16GetOrCreateValueEv
FN:1802,1813,_ZNK7testing8internal11ThreadLocalISt6vectorINS0_9TraceInfoESaIS3_EEE16GetOrCreateValueEv
FN:1817,1817,_ZN7testing8internal11ThreadLocalIPNS_31TestPartResultReporterInterfaceEE18ValueHolderFactoryC2Ev
FN:1817,1817,_ZN7testing8internal11ThreadLocalISt6vectorINS0_9TraceInfoESaIS3_EEE18ValueHolderFactoryC2Ev
FN:1818,1818,_ZN7testing8internal11ThreadLocalIPNS_31TestPartResultReporterInterfaceEE18ValueHolderFactoryD0Ev
FN:1818,1818,_ZN7testing8internal11ThreadLocalIPNS_31TestPartResultReporterInterfaceEE18ValueHolderFactoryD2Ev
FN:1818,1818,_ZN7testing8internal11ThreadLocalISt6vectorINS0_9TraceInfoESaIS3_EEE18ValueHolderFactoryD0Ev
FN:1818,1818,_ZN7testing8internal11ThreadLocalISt6vectorINS0_9TraceInfoESaIS3_EEE18ValueHolderFactoryD2Ev
FN:1828,1828,_ZN7testing8internal11ThreadLocalISt6vectorINS0_9TraceInfoESaIS3_EEE25DefaultValueHolderFactoryC2Ev
FN:1829,1829,_ZNK7testing8internal11ThreadLocalISt6vectorINS0_9TraceInfoESaIS3_EEE25DefaultValueHolderFactory13MakeNewHolderEv
FN:1839,1839,_ZN7testing8internal11ThreadLocalIPNS_31TestPartResultReporterInterfaceEE26InstanceValueHolderFactoryC2ERKS3_
FN:1840,1842,_ZNK7testing8internal11ThreadLocalIPNS_31TestPartResultReporterInterfaceEE26InstanceValueHolderFactory13MakeNewHolderEv
FN:1935,1937,_ZN7testing8internal7IsDigitEc
FN:1941,1943,_ZN7testing8internal7IsSpaceEc
FN:1947,1949,_ZN7testing8internal8IsXDigitEc
FN:1951,1953,_ZN7testing8internal8IsXDigitEDu
FN:1955,1958,_ZN7testing8internal8IsXDigitEDs
FN:1959,1962,_ZN7testing8internal8IsXDigitEDi
FN:1963,1966,_ZN7testing8internal8IsXDigitEw
FN:1971,1973,_ZN7testing8internal7ToUpperEc
FN:1975,1979,_ZN7testing8internal19StripTrailingSpacesENSt7__cxx1112basic_stringIcSt11char_traitsIcESaIcEEE
FN:2021,2021,_ZN7testing8internal5posix6FileNoEP8_IO_FILE
FN:2022,2022,_ZN7testing8internal5posix4StatEPKcP4stat
FN:2029,2029,_ZN7testing8internal5posix5IsDirERK4stat
FN:2058,2058,_ZN7testing8internal5posix8DoIsATTYEi
FN:2059,2061,_ZN7testing8internal5posix10StrCaseCmpEPKcS3_
FN:2065,2074,_ZN7testing8internal5posix6IsATTYEi
FN:2089,2099,_ZN7testing8internal5posix5FOpenEPKcS3_
FN:2104,2104,_ZN7testing8internal5posix6FDOpenEiPKc
FN:2106,2106,_ZN7testing8internal5posix6FCloseEP8_IO_FILE
FN:2108,2110,_ZN7testing8internal5posix4ReadEiPvj
FN:2111,2113,_ZN7testing8internal5posix5WriteEiPKvj
FN:2114,2114,_ZN7testing8internal5posix5CloseEi
FN:2119,2119,_ZN7testing8internal5posix8StrErrorEi
FN:2122,2137,_ZN7testing8internal5posix6GetEnvEPKc
FN:2147,2147,_ZN7testing8internal5posix5AbortEv
FNDA:0,_ZN7testing8internal8GTestLog9GetStreamEv
FNDA:0,_ZN7testing8internal11LogToStderrEv
FNDA:0,_ZN7testing8internal12FlushInfoLogEv
FNDA:0,_ZN7testing8internal13ImplicitCast_IPKvEET_S4_
FNDA:0,_ZN7testing8internal27CheckedDowncastToActualTypeINS0_11ThreadLocalIPNS_31TestPartResultReporterInterfaceEE11ValueHolderENS0_26ThreadLocalValueHolderBaseEEEPT_PT0_
FNDA:0,_ZN7testing8internal27CheckedDowncastToActualTypeINS0_11ThreadLocalISt6vectorINS0_9TraceInfoESaIS4_EEE11ValueHolderENS0_26ThreadLocalValueHolderBaseEEEPT_PT0_
FNDA:0,_ZN7testing8internal9MutexBase4LockEv
FNDA:0,_ZN7testing8internal9MutexBase6UnlockEv
FNDA:21,_ZN7testing8internal5MutexC2Ev
FNDA:21,_ZN7testing8internal5MutexD2Ev
FNDA:0,_ZN7testing8internal14GTestMutexLockC2EPNS0_9MutexBaseE
FNDA:0,_ZN7testing8internal14GTestMutexLockD2Ev
FNDA:0,_ZN7testing8internal26ThreadLocalValueHolderBaseD0Ev
FNDA:0,_ZN7testing8internal26ThreadLocalValueHolderBaseD2Ev
FNDA:2,DeleteThreadLocalValue
FNDA:1,_ZN7testing8internal11ThreadLocalISt6vectorINS0_9TraceInfoESaIS3_EEEC2Ev
FNDA:1,_ZN7testing8internal11ThreadLocalIPNS_31TestPartResultReporterInterfaceEEC2ERKS3_
FNDA:1,_ZN7testing8internal11ThreadLocalIPNS_31TestPartResultReporterInterfaceEED2Ev
FNDA:1,_ZN7testing8internal11ThreadLocalISt6vectorINS0_9TraceInfoESaIS3_EEED2Ev
FNDA:0,_ZN7testing8internal11ThreadLocalIPNS_31TestPartResultReporterInterfaceEE7pointerEv
FNDA:0,_ZN7testing8internal11ThreadLocalISt6vectorINS0_9TraceInfoESaIS3_EEE7pointerEv
FNDA:0,_ZNK7testing8internal11ThreadLocalIPNS_31TestPartResultReporterInterfaceEE7pointerEv
FNDA:0,_ZNK7testing8internal11ThreadLocalIPNS_31TestPartResultReporterInterfaceEE3getEv
FNDA:0,_ZN7testing8internal11ThreadLocalIPNS_31TestPartResultReporterInterfaceEE3setERKS3_
FNDA:0,_ZN7testing8internal11ThreadLocalISt6vectorINS0_9TraceInfoESaIS3_EEE11ValueHolderC2Ev
FNDA:0,_ZN7testing8internal11ThreadLocalIPNS_31TestPartResultReporterInterfaceEE11ValueHolderC2ERKS3_
FNDA:0,_ZN7testing8internal11ThreadLocalIPNS_31TestPartResultReporterInterfaceEE11ValueHolder7pointerEv
FNDA:0,_ZN7testing8internal11ThreadLocalISt6vectorINS0_9TraceInfoESaIS3_EEE11ValueHolder7pointerEv
FNDA:1,_ZN7testing8internal11ThreadLocalIPNS_31TestPartResultReporterInterfaceEE9CreateKeyEv
FNDA:1,_ZN7testing8internal11ThreadLocalISt6vectorINS0_9TraceInfoESaIS3_EEE9CreateKeyEv
FNDA:0,_ZNK7testing8internal11ThreadLocalIPNS_31TestPartResultReporterInterfaceEE16GetOrCreateValueEv
FNDA:0,_ZNK7testing8internal11ThreadLocalISt6vectorINS0_9TraceInfoESaIS3_EEE16GetOrCreateValueEv
FNDA:1,_ZN7testing8internal11ThreadLocalIPNS_31TestPartResultReporterInterfaceEE18ValueHolderFactoryC2Ev
FNDA:1,_ZN7testing8internal11ThreadLocalISt6vectorINS0_9TraceInfoESaIS3_EEE18ValueHolderFactoryC2Ev
FNDA:0,_ZN7testing8internal11ThreadLocalIPNS_31TestPartResultReporterInterfaceEE18ValueHolderFactoryD0Ev
FNDA:1,_ZN7testing8internal11ThreadLocalIPNS_31TestPartResultReporterInterfaceEE18ValueHolderFactoryD2Ev
FNDA:0,_ZN7testing8internal11ThreadLocalISt6vectorINS0_9TraceInfoESaIS3_EEE18ValueHolderFactoryD0Ev
FNDA:1,_ZN7testing8internal11ThreadLocalISt6vectorINS0_9TraceInfoESaIS3_EEE18ValueHolderFactoryD2Ev
FNDA:1,_ZN7testing8internal11ThreadLocalISt6vectorINS0_9TraceInfoESaIS3_EEE25DefaultValueHolderFactoryC2Ev
FNDA:0,_ZNK7testing8internal11ThreadLocalISt6vectorINS0_9TraceInfoESaIS3_EEE25DefaultValueHolderFactory13MakeNewHolderEv
FNDA:1,_ZN7testing8internal11ThreadLocalIPNS_31TestPartResultReporterInterfaceEE26InstanceValueHolderFactoryC2ERKS3_
FNDA:0,_ZNK7testing8internal11ThreadLocalIPNS_31TestPartResultReporterInterfaceEE26InstanceValueHolderFactory13MakeNewHolderEv
FNDA:0,_ZN7testing8internal7IsDigitEc
FNDA:0,_ZN7testing8internal7IsSpaceEc
FNDA:0,_ZN7testing8internal8IsXDigitEc
FNDA:0,_ZN7testing8internal8IsXDigitEDu
FNDA:0,_ZN7testing8internal8IsXDigitEDs
FNDA:0,_ZN7testing8internal8IsXDigitEDi
FNDA:0,_ZN7testing8internal8IsXDigitEw
FNDA:414,_ZN7testing8internal7ToUpperEc
FNDA:0,_ZN7testing8internal19StripTrailingSpacesENSt7__cxx1112basic_stringIcSt11char_traitsIcESaIcEEE
FNDA:1,_ZN7testing8internal5posix6FileNoEP8_IO_FILE
FNDA:0,_ZN7testing8internal5posix4StatEPKcP4stat
FNDA:0,_ZN7testing8internal5posix5IsDirERK4stat
FNDA:1,_ZN7testing8internal5posix8DoIsATTYEi
FNDA:2,_ZN7testing8internal5posix10StrCaseCmpEPKcS3_
FNDA:1,_ZN7testing8internal5posix6IsATTYEi
FNDA:0,_ZN7testing8internal5posix5FOpenEPKcS3_
FNDA:0,_ZN7testing8internal5posix6FDOpenEiPKc
FNDA:0,_ZN7testing8internal5posix6FCloseEP8_IO_FILE
FNDA:0,_ZN7testing8internal5posix4ReadEiPvj
FNDA:0,_ZN7testing8internal5posix5WriteEiPKvj
FNDA:0,_ZN7testing8internal5posix5CloseEi
FNDA:0,_ZN7testing8internal5posix8StrErrorEi
FNDA:31,_ZN7testing8internal5posix6GetEnvEPKc
FNDA:0,_ZN7testing8internal5posix5AbortEv
FNF:66
FNH:21
DA:1042,0
DA:1058,0
DA:1059,0
DA:1140,0
DA:1141,0
DA:1150,0
DA:1154,0
DA:1156,0
DA:1649,0
DA:1650,0
DA:1651,0
DA:1652,0
DA:1653,0
DA:1656,0
DA:1661,0
DA:1662,0
DA:1663,0
DA:1706,21
DA:1707,21
DA:1708,21
DA:1709,21
DA:1710,21
DA:1724,0
DA:1726,0
DA:1745,0
DA:1750,2
DA:1751,2
DA:1752,2
DA:1758,1
DA:1759,1
DA:1760,1
DA:1761,1
DA:1762,1
DA:1764,2
DA:1766,2
DA:1770,2
DA:1771,2
DA:1773,0
DA:1774,0
DA:1775,0
DA:1776,0
DA:1782,0
DA:1783,0
DA:1785,0
DA:1793,2
DA:1794,2
DA:1797,2
DA:1799,2
DA:1802,0
DA:1804,0
DA:1805,0
DA:1806,0
DA:1809,0
DA:1810,0
DA:1811,0
DA:1812,0
DA:1817,2
DA:1818,2
DA:1828,1
DA:1829,0
DA:1839,1
DA:1840,0
DA:1841,0
DA:1935,0
DA:1936,0
DA:1941,0
DA:1942,0
DA:1947,0
DA:1948,0
DA:1951,0
DA:1952,0
DA:1955,0
DA:1956,0
DA:1957,0
DA:1959,0
DA:1960,0
DA:1961,0
DA:1963,0
DA:1964,0
DA:1965,0
DA:1971,414
DA:1972,414
DA:1975,0
DA:1976,0
DA:1977,0
DA:1978,0
DA:2021,1
DA:2022,0
DA:2029,0
DA:2058,1
DA:2059,2
DA:2060,2
DA:2065,1
DA:2069,1
DA:2070,1
DA:2071,1
DA:2073,1
DA:2089,0
DA:2097,0
DA:2104,0
DA:2106,0
DA:2108,0
DA:2109,0
DA:2111,0
DA:2112,0
DA:2114,0
DA:2119,0
DA:2122,31
DA:2135,31
DA:2147,0
LF:110
LH:38
end_of_record
TN:
SF:/mnt/c/users/t470/desktop/funda/lab11/project2/build/_deps/googletest-src/googletest/include/gtest/internal/gtest-type-util.h
FN:61,87,_ZN7testing8internal31CanonicalizeForStdLibVersioningENSt7__cxx1112basic_stringIcSt11char_traitsIcESaIcEEE
FN:91,121,_ZN7testing8internal11GetTypeNameB5cxx11ERKSt9type_info
FNDA:0,_ZN7testing8internal31CanonicalizeForStdLibVersioningENSt7__cxx1112basic_stringIcSt11char_traitsIcESaIcEEE
FNDA:0,_ZN7testing8internal11GetTypeNameB5cxx11ERKSt9type_info
FNF:2
FNH:0
DA:61,0
DA:63,0
DA:64,0
DA:65,0
DA:67,0
DA:75,0
DA:78,0
DA:79,0
DA:80,0
DA:83,0
DA:84,0
DA:86,0
DA:91,0
DA:92,0
DA:94,0
DA:100,0
DA:101,0
DA:102,0
DA:103,0
DA:121,0
LF:20
LH:0
end_of_record
TN:
SF:/mnt/c/users/t470/desktop/funda/lab11/project2/build/_deps/googletest-src/googletest/src/gtest-assertion-result.cc
FN:45,49,_ZN7testing15AssertionResultC2ERKS0_
FN:52,56,_ZN7testing15AssertionResult4swapERS0_
FN:59,63,_ZNK7testing15AssertionResultntEv
FN:66,66,_ZN7testing16AssertionSuccessEv
FN:69,69,_ZN7testing16AssertionFailureEv
FN:73,75,_ZN7testing16AssertionFailureERKNS_7MessageE
FNDA:0,_ZN7testing15AssertionResultC2ERKS0_
FNDA:0,_ZN7testing15AssertionResult4swapERS0_
FNDA:0,_ZNK7testing15AssertionResultntEv
FNDA:39,_ZN7testing16AssertionSuccessEv
FNDA:0,_ZN7testing16AssertionFailureEv
FNDA:0,_ZN7testing16AssertionFailureERKNS_7MessageE
FNF:6
FNH:1
DA:45,0
DA:46,0
DA:47,0
DA:48,0
DA:49,0
DA:52,0
DA:54,0
DA:55,0
DA:56,0
DA:59,0
DA:60,0
DA:61,0
DA:62,0
DA:63,0
DA:66,39
DA:69,0
DA:73,0
DA:74,0
LF:18
LH:1
end_of_record
TN:
SF:/mnt/c/users/t470/desktop/funda/lab11/project2/build/_deps/googletest-src/googletest/src/gtest-death-test.cc
FN:1062,1062,_ZN7testing8internal16ForkingDeathTest13set_child_pidEi
FN:1070,1072,_ZN7testing8internal16ForkingDeathTestC2EPKcNS_7MatcherIRKNSt7__cxx1112basic_stringIcSt11char_traitsIcESaIcEEEEE
FN:1077,1086,_ZN7testing8internal16ForkingDeathTest4WaitEv
FN:1092,1093,_ZN7testing8internal15NoExecDeathTestC2EPKcNS_7MatcherIRKNSt7__cxx1112basic_stringIcSt11char_traitsIcESaIcEEEEE
FN:1099,1140,_ZN7testing8internal15NoExecDeathTest10AssumeRoleEv
FN:1147,1151,_ZN7testing8internal13ExecDeathTestC2EPKcNS_7MatcherIRKNSt7__cxx1112basic_stringIcSt11char_traitsIcESaIcEEEEES3_i
FN:1155,1163,_ZN7testing8internal13ExecDeathTest32GetArgvsForDeathTestChildProcessB5cxx11Ev
FN:1183,1208,_ZN7testing8internalL22ExecDeathTestChildMainEPv
FN:1231,1234,_ZN7testing8internalL21StackLowerThanAddressEPKvPb
FN:1239,1244,_ZN7testing8internalL14StackGrowsDownEv
FN:1254,1346,_ZN7testing8internalL23ExecDeathTestSpawnChildEPKPci
FN:1352,1396,_ZN7testing8internal13ExecDeathTest10AssumeRoleEv
FN:1405,1463,_ZN7testing8internal23DefaultDeathTestFactory6CreateEPKcNS_7MatcherIRKNSt7__cxx1112basic_stringIcSt11char_traitsIcESaIcEEEEES3_iPPNS0_9DeathTestE
FN:153,167,_ZN7testing8internal16InDeathTestChildEv
FN:1531,1579,_ZN7testing8internal29ParseInternalRunDeathTestFlagEv
FN:172,172,_ZN7testing14ExitedWithCodeC2Ei
FN:175,185,_ZNK7testing14ExitedWithCodeclEi
FN:189,189,_ZN7testing14KilledBySignalC2Ei
FN:192,202,_ZNK7testing14KilledBySignalclEi
FN:211,233,_ZN7testing8internalL11ExitSummaryEi
FN:237,239,_ZN7testing8internal20ExitedUnsuccessfullyEi
FN:246,261,_ZN7testing8internalL22DeathTestThreadWarningEm
FN:291,308,_ZN7testing8internalL14DeathTestAbortERKNSt7__cxx1112basic_stringIcSt11char_traitsIcESaIcEEE
FN:344,346,_ZN7testing8internal23GetLastErrnoDescriptionB5cxx11Ev
FN:352,371,_ZN7testing8internalL21FailFromInternalErrorEi
FN:375,382,_ZN7testing8internal9DeathTestC2Ev
FN:386,391,_ZN7testing8internal9DeathTest6CreateEPKcNS_7MatcherIRKNSt7__cxx1112basic_stringIcSt11char_traitsIcESaIcEEEEES3_iPPS1_
FN:393,395,_ZN7testing8internal9DeathTest11LastMessageEv
FN:397,399,_ZN7testing8internal9DeathTest27set_last_death_test_messageERKNSt7__cxx1112basic_stringIcSt11char_traitsIcESaIcEEE
FN:406,413,_ZN7testing8internal13DeathTestImplC2EPKcNS_7MatcherIRKNSt7__cxx1112basic_stringIcSt11char_traitsIcESaIcEEEEE
FN:416,416,_ZN7testing8internal13DeathTestImplD0Ev
FN:416,416,_ZN7testing8internal13DeathTestImplD2Ev
FN:421,421,_ZNK7testing8internal13DeathTestImpl9statementEv
FN:422,422,_ZNK7testing8internal13DeathTestImpl7spawnedEv
FN:423,423,_ZN7testing8internal13DeathTestImpl11set_spawnedEb
FN:424,424,_ZNK7testing8internal13DeathTestImpl6statusEv
FN:425,425,_ZN7testing8internal13DeathTestImpl10set_statusEi
FN:426,426,_ZNK7testing8internal13DeathTestImpl7outcomeEv
FN:427,427,_ZN7testing8internal13DeathTestImpl11set_outcomeENS0_16DeathTestOutcomeE
FN:428,428,_ZNK7testing8internal13DeathTestImpl7read_fdEv
FN:429,429,_ZN7testing8internal13DeathTestImpl11set_read_fdEi
FN:430,430,_ZNK7testing8internal13DeathTestImpl8write_fdEv
FN:431,431,_ZN7testing8internal13DeathTestImpl12set_write_fdEi
FN:468,507,_ZN7testing8internal13DeathTestImpl26ReadAndInterpretStatusByteEv
FN:509,509,_ZN7testing8internal13DeathTestImpl12GetErrorLogsB5cxx11Ev
FN:515,533,_ZN7testing8internal13DeathTestImpl5AbortENS0_9DeathTest11AbortReasonE
FN:538,551,_ZN7testing8internalL21FormatDeathTestOutputERKNSt7__cxx1112basic_stringIcSt11char_traitsIcESaIcEEE
FN:574,626,_ZN7testing8internal13DeathTestImpl6PassedEb
FN:631,639,_ZN7testing8internalL18CreateArgvFromArgsERSt6vectorINSt7__cxx1112basic_stringIcSt11char_traitsIcESaIcEEESaIS7_EE
FNDA:0,_ZN7testing8internal16ForkingDeathTest13set_child_pidEi
FNDA:0,_ZN7testing8internal16ForkingDeathTestC2EPKcNS_7MatcherIRKNSt7__cxx1112basic_stringIcSt11char_traitsIcESaIcEEEEE
FNDA:0,_ZN7testing8internal16ForkingDeathTest4WaitEv
FNDA:0,_ZN7testing8internal15NoExecDeathTestC2EPKcNS_7MatcherIRKNSt7__cxx1112basic_stringIcSt11char_traitsIcESaIcEEEEE
FNDA:0,_ZN7testing8internal15NoExecDeathTest10AssumeRoleEv
FNDA:0,_ZN7testing8internal13ExecDeathTestC2EPKcNS_7MatcherIRKNSt7__cxx1112basic_stringIcSt11char_traitsIcESaIcEEEEES3_i
FNDA:0,_ZN7testing8internal13ExecDeathTest32GetArgvsForDeathTestChildProcessB5cxx11Ev
FNDA:0,_ZN7testing8internalL22ExecDeathTestChildMainEPv
FNDA:0,_ZN7testing8internalL21StackLowerThanAddressEPKvPb
FNDA:0,_ZN7testing8internalL14StackGrowsDownEv
FNDA:0,_ZN7testing8internalL23ExecDeathTestSpawnChildEPKPci
FNDA:0,_ZN7testing8internal13ExecDeathTest10AssumeRoleEv
FNDA:0,_ZN7testing8internal23DefaultDeathTestFactory6CreateEPKcNS_7MatcherIRKNSt7__cxx1112basic_stringIcSt11char_traitsIcESaIcEEEEES3_iPPNS0_9DeathTestE
FNDA:0,_ZN7testing8internal16InDeathTestChildEv
FNDA:1,_ZN7testing8internal29ParseInternalRunDeathTestFlagEv
FNDA:0,_ZN7testing14ExitedWithCodeC2Ei
FNDA:0,_ZNK7testing14ExitedWithCodeclEi
FNDA:0,_ZN7testing14KilledBySignalC2Ei
FNDA:0,_ZNK7testing14KilledBySignalclEi
FNDA:0,_ZN7testing8internalL11ExitSummaryEi
FNDA:0,_ZN7testing8internal20ExitedUnsuccessfullyEi
FNDA:0,_ZN7testing8internalL22DeathTestThreadWarningEm
FNDA:0,_ZN7testing8internalL14DeathTestAbortERKNSt7__cxx1112basic_stringIcSt11char_traitsIcESaIcEEE
FNDA:0,_ZN7testing8internal23GetLastErrnoDescriptionB5cxx11Ev
FNDA:0,_ZN7testing8internalL21FailFromInternalErrorEi
FNDA:0,_ZN7testing8internal9DeathTestC2Ev
FNDA:0,_ZN7testing8internal9DeathTest6CreateEPKcNS_7MatcherIRKNSt7__cxx1112basic_stringIcSt11char_traitsIcESaIcEEEEES3_iPPS1_
FNDA:0,_ZN7testing8internal9DeathTest11LastMessageEv
FNDA:0,_ZN7testing8internal9DeathTest27set_last_death_test_messageERKNSt7__cxx1112basic_stringIcSt11char_traitsIcESaIcEEE
FNDA:0,_ZN7testing8internal13DeathTestImplC2EPKcNS_7MatcherIRKNSt7__cxx1112basic_stringIcSt11char_traitsIcESaIcEEEEE
FNDA:0,_ZN7testing8internal13DeathTestImplD0Ev
FNDA:0,_ZN7testing8internal13DeathTestImplD2Ev
FNDA:0,_ZNK7testing8internal13DeathTestImpl9statementEv
FNDA:0,_ZNK7testing8internal13DeathTestImpl7spawnedEv
FNDA:0,_ZN7testing8internal13DeathTestImpl11set_spawnedEb
FNDA:0,_ZNK7testing8internal13DeathTestImpl6statusEv
FNDA:0,_ZN7testing8internal13DeathTestImpl10set_statusEi
FNDA:0,_ZNK7testing8internal13DeathTestImpl7outcomeEv
FNDA:0,_ZN7testing8internal13DeathTestImpl11set_outcomeENS0_16DeathTestOutcomeE
FNDA:0,_ZNK7testing8internal13DeathTestImpl7read_fdEv
FNDA:0,_ZN7testing8internal13DeathTestImpl11set_read_fdEi
FNDA:0,_ZNK7testing8internal13DeathTestImpl8write_fdEv
FNDA:0,_ZN7testing8internal13DeathTestImpl12set_write_fdEi
FNDA:0,_ZN7testing8internal13DeathTestImpl26ReadAndInterpretStatusByteEv
FNDA:0,_ZN7testing8internal13DeathTestImpl12GetErrorLogsB5cxx11Ev
FNDA:0,_ZN7testing8internal13DeathTestImpl5AbortENS0_9DeathTest11AbortReasonE
FNDA:0,_ZN7testing8internalL21FormatDeathTestOutputERKNSt7__cxx1112basic_stringIcSt11char_traitsIcESaIcEEE
FNDA:0,_ZN7testing8internal13DeathTestImpl6PassedEb
FNDA:0,_ZN7testing8internalL18CreateArgvFromArgsERSt6vectorINSt7__cxx1112basic_stringIcSt11char_traitsIcESaIcEEESaIS7_EE
FNF:49
FNH:1
DA:153,0
DA:162,0
DA:163,0
DA:165,0
DA:172,0
DA:175,0
DA:182,0
DA:189,0
DA:192,0
DA:201,0
DA:211,0
DA:212,0
DA:220,0
DA:221,0
DA:222,0
DA:223,0
DA:226,0
DA:227,0
DA:232,0
DA:233,0
DA:237,0
DA:238,0
DA:246,0
DA:247,0
DA:248,0
DA:249,0
DA:250,0
DA:251,0
DA:253,0
DA:257,0
DA:258,0
DA:259,0
DA:260,0
DA:261,0
DA:291,0
DA:296,0
DA:297,0
DA:298,0
DA:299,0
DA:300,0
DA:301,0
DA:302,0
DA:304,0
DA:305,0
DA:306,0
DA:344,0
DA:345,0
DA:352,0
DA:353,0
DA:354,0
DA:358,0
DA:359,0
DA:360,0
DA:362,0
DA:364,0
DA:365,0
DA:367,0
DA:368,0
DA:369,0
DA:371,0
DA:375,0
DA:376,0
DA:377,0
DA:378,0
DA:382,0
DA:386,0
DA:389,0
DA:390,0
DA:393,0
DA:394,0
DA:397,0
DA:398,0
DA:399,0
DA:406,0
DA:407,0
DA:408,0
DA:409,0
DA:410,0
DA:411,0
DA:412,0
DA:413,0
DA:416,0
DA:421,0
DA:422,0
DA:423,0
DA:424,0
DA:425,0
DA:426,0
DA:427,0
DA:428,0
DA:429,0
DA:430,0
DA:431,0
DA:468,0
DA:469,0
DA:477,0
DA:478,0
DA:480,0
DA:481,0
DA:482,0
DA:483,0
DA:484,0
DA:485,0
DA:486,0
DA:487,0
DA:488,0
DA:489,0
DA:490,0
DA:491,0
DA:492,0
DA:493,0
DA:494,0
DA:495,0
DA:496,0
DA:497,0
DA:498,0
DA:499,0
DA:502,0
DA:503,0
DA:505,0
DA:506,0
DA:507,0
DA:509,0
DA:515,0
DA:519,0
DA:523,0
DA:532,0
DA:538,0
DA:539,0
DA:540,0
DA:541,0
DA:542,0
DA:543,0
DA:544,0
DA:545,0
DA:547,0
DA:548,0
DA:549,0
DA:550,0
DA:551,0
DA:574,0
DA:575,0
DA:577,0
DA:579,0
DA:580,0
DA:582,0
DA:583,0
DA:584,0
DA:585,0
DA:586,0
DA:587,0
DA:588,0
DA:589,0
DA:590,0
DA:591,0
DA:592,0
DA:593,0
DA:594,0
DA:595,0
DA:596,0
DA:597,0
DA:598,0
DA:599,0
DA:600,0
DA:601,0
DA:602,0
DA:604,0
DA:605,0
DA:606,0
DA:607,0
DA:608,0
DA:609,0
DA:610,0
DA:612,0
DA:613,0
DA:614,0
DA:615,0
DA:617,0
DA:618,0
DA:620,0
DA:621,0
DA:624,0
DA:625,0
DA:626,0
DA:631,0
DA:633,0
DA:634,0
DA:635,0
DA:637,0
DA:638,0
DA:1062,0
DA:1070,0
DA:1071,0
DA:1072,0
DA:1077,0
DA:1078,0
DA:1080,0
DA:1082,0
DA:1083,0
DA:1084,0
DA:1085,0
DA:1092,0
DA:1093,0
DA:1099,0
DA:1100,0
DA:1101,0
DA:1102,0
DA:1105,0
DA:1106,0
DA:1108,0
DA:1109,0
DA:1117,0
DA:1119,0
DA:1120,0
DA:1121,0
DA:1122,0
DA:1123,0
DA:1124,0
DA:1128,0
DA:1131,0
DA:1132,0
DA:1133,0
DA:1135,0
DA:1136,0
DA:1137,0
DA:1138,0
DA:1147,0
DA:1149,0
DA:1150,0
DA:1151,0
DA:1155,0
DA:1156,0
DA:1162,0
DA:1183,0
DA:1184,0
DA:1185,0
DA:1191,0
DA:1193,0
DA:1194,0
DA:1195,0
DA:1204,0
DA:1205,0
DA:1206,0
DA:1231,0
DA:1232,0
DA:1233,0
DA:1234,0
DA:1239,0
DA:1240,0
DA:1242,0
DA:1243,0
DA:1254,0
DA:1255,0
DA:1256,0
DA:1293,0
DA:1294,0
DA:1295,0
DA:1296,0
DA:1297,0
DA:1298,0
DA:1303,0
DA:1305,0
DA:1306,0
DA:1307,0
DA:1309,0
DA:1311,0
DA:1319,0
DA:1320,0
DA:1321,0
DA:1322,0
DA:1323,0
DA:1327,0
DA:1329,0
DA:1335,0
DA:1336,0
DA:1340,0
DA:1344,0
DA:1345,0
DA:1352,0
DA:1353,0
DA:1355,0
DA:1356,0
DA:1357,0
DA:1359,0
DA:1360,0
DA:1361,0
DA:1364,0
DA:1365,0
DA:1368,0
DA:1370,0
DA:1371,0
DA:1372,0
DA:1373,0
DA:1374,0
DA:1375,0
DA:1376,0
DA:1377,0
DA:1378,0
DA:1379,0
DA:1380,0
DA:1382,0
DA:1384,0
DA:1387,0
DA:1389,0
DA:1390,0
DA:1391,0
DA:1392,0
DA:1393,0
DA:1394,0
DA:1395,0
DA:1396,0
DA:1405,0
DA:1409,0
DA:1411,0
DA:1412,0
DA:1413,0
DA:1415,0
DA:1416,0
DA:1417,0
DA:1418,0
DA:1419,0
DA:1420,0
DA:1421,0
DA:1424,0
DA:1425,0
DA:1426,0
DA:1427,0
DA:1447,0
DA:1448,0
DA:1449,0
DA:1450,0
DA:1456,0
DA:1457,0
DA:1459,0
DA:1462,0
DA:1531,1
DA:1532,1
DA:1536,0
DA:1537,0
DA:1538,0
DA:1539,0
DA:1540,0
DA:1569,0
DA:1570,0
DA:1571,0
DA:1572,0
DA:1578,0
DA:1579,0
LF:348
LH:2
end_of_record
TN:
SF:/mnt/c/users/t470/desktop/funda/lab11/project2/build/_deps/googletest-src/googletest/src/gtest-filepath.cc
FN:101,124,_ZN7testing8internal8FilePath13GetCurrentDirEv
FN:130,137,_ZNK7testing8internal8FilePath15RemoveExtensionEPKc
FN:142,153,_ZNK7testing8internal8FilePath21FindLastPathSeparatorEv
FN:155,191,_ZNK7testing8internal8FilePath19CalculateRootLengthEv
FN:199,202,_ZNK7testing8internal8FilePath19RemoveDirectoryNameEv
FN:210,219,_ZNK7testing8internal8FilePath14RemoveFileNameEv
FN:227,238,_ZN7testing8internal8FilePath12MakeFileNameERKS1_S3_iPKc
FN:242,247,_ZN7testing8internal8FilePath11ConcatPathsERKS1_S3_
FN:251,261,_ZNK7testing8internal8FilePath21FileOrDirectoryExistsEv
FN:265,291,_ZNK7testing8internal8FilePath15DirectoryExistsEv
FN:295,299,_ZNK7testing8internal8FilePath15IsRootDirectoryEv
FN:302,302,_ZNK7testing8internal8FilePath14IsAbsolutePathEv
FN:312,321,_ZN7testing8internal8FilePath22GenerateUniqueFileNameERKS1_S3_PKc
FN:326,329,_ZNK7testing8internal8FilePath11IsDirectoryEv
FN:334,345,_ZNK7testing8internal8FilePath28CreateDirectoriesRecursivelyEv
FN:351,372,_ZNK7testing8internal8FilePath12CreateFolderEv
FN:377,380,_ZNK7testing8internal8FilePath27RemoveTrailingPathSeparatorEv
FN:386,409,_ZN7testing8internal8FilePath9NormalizeEv
FN:92,98,_ZN7testing8internalL15IsPathSeparatorEc
FNDA:1,_ZN7testing8internal8FilePath13GetCurrentDirEv
FNDA:0,_ZNK7testing8internal8FilePath15RemoveExtensionEPKc
FNDA:0,_ZNK7testing8internal8FilePath21FindLastPathSeparatorEv
FNDA:0,_ZNK7testing8internal8FilePath19CalculateRootLengthEv
FNDA:0,_ZNK7testing8internal8FilePath19RemoveDirectoryNameEv
FNDA:0,_ZNK7testing8internal8FilePath14RemoveFileNameEv
FNDA:0,_ZN7testing8internal8FilePath12MakeFileNameERKS1_S3_iPKc
FNDA:0,_ZN7testing8internal8FilePath11ConcatPathsERKS1_S3_
FNDA:0,_ZNK7testing8internal8FilePath21FileOrDirectoryExistsEv
FNDA:0,_ZNK7testing8internal8FilePath15DirectoryExistsEv
FNDA:0,_ZNK7testing8internal8FilePath15IsRootDirectoryEv
FNDA:0,_ZNK7testing8internal8FilePath14IsAbsolutePathEv
FNDA:0,_ZN7testing8internal8FilePath22GenerateUniqueFileNameERKS1_S3_PKc
FNDA:0,_ZNK7testing8internal8FilePath11IsDirectoryEv
FNDA:0,_ZNK7testing8internal8FilePath28CreateDirectoriesRecursivelyEv
FNDA:0,_ZNK7testing8internal8FilePath12CreateFolderEv
FNDA:0,_ZNK7testing8internal8FilePath27RemoveTrailingPathSeparatorEv
FNDA:1,_ZN7testing8internal8FilePath9NormalizeEv
FNDA:52,_ZN7testing8internalL15IsPathSeparatorEc
FNF:19
FNH:3
DA:92,52
DA:96,52
DA:101,1
DA:114,1
DA:115,1
DA:122,4
DA:130,0
DA:131,0
DA:132,0
DA:134,0
DA:136,0
DA:137,0
DA:142,0
DA:143,0
DA:152,0
DA:155,0
DA:156,0
DA:157,0
DA:158,0
DA:186,0
DA:187,0
DA:190,0
DA:199,0
DA:200,0
DA:201,0
DA:210,0
DA:211,0
DA:212,0
DA:213,0
DA:214,0
DA:216,0
DA:218,0
DA:219,0
DA:227,0
DA:230,0
DA:231,0
DA:232,0
DA:234,0
DA:235,0
DA:237,0
DA:238,0
DA:242,0
DA:244,0
DA:245,0
DA:246,0
DA:247,0
DA:251,0
DA:258,0
DA:259,0
DA:265,0
DA:266,0
DA:273,0
DA:285,0
DA:286,0
DA:287,0
DA:290,0
DA:295,0
DA:296,0
DA:297,0
DA:298,0
DA:302,0
DA:312,0
DA:315,0
DA:316,0
DA:318,0
DA:319,0
DA:320,0
DA:321,0
DA:326,0
DA:327,0
DA:328,0
DA:334,0
DA:335,0
DA:336,0
DA:339,0
DA:340,0
DA:343,0
DA:344,0
DA:345,0
DA:351,0
DA:365,0
DA:368,0
DA:369,0
DA:371,0
DA:377,0
DA:378,0
DA:379,0
DA:386,1
DA:387,1
DA:389,1
DA:398,53
DA:399,52
DA:400,52
DA:401,43
DA:402,17
DA:403,9
DA:405,52
DA:408,1
DA:409,1
LF:99
LH:18
end_of_record
TN:
SF:/mnt/c/users/t470/desktop/funda/lab11/project2/build/_deps/googletest-src/googletest/src/gtest-internal-inl.h
FN:1007,1032,_ZN7testing8internal18ParseNaturalNumberIiEEbRKNSt7__cxx1112basic_stringIcSt11char_traitsIcESaIcEEEPT_
FN:1067,1067,_ZN7testing8internal17StreamingListener20AbstractSocketWriterD0Ev
FN:1067,1067,_ZN7testing8internal17StreamingListener20AbstractSocketWriterD2Ev
FN:1073,1073,_ZN7testing8internal17StreamingListener20AbstractSocketWriter15CloseConnectionEv
FN:1076,1076,_ZN7testing8internal17StreamingListener20AbstractSocketWriter6SendLnERKNSt7__cxx1112basic_stringIcSt11char_traitsIcESaIcEEE
FN:1082,1085,_ZN7testing8internal17StreamingListener12SocketWriterC2ERKNSt7__cxx1112basic_stringIcSt11char_traitsIcESaIcEEESA_
FN:1087,1089,_ZN7testing8internal17StreamingListener12SocketWriterD0Ev
FN:1087,1089,_ZN7testing8internal17StreamingListener12SocketWriterD2Ev
FN:1092,1101,_ZN7testing8internal17StreamingListener12SocketWriter4SendERKNSt7__cxx1112basic_stringIcSt11char_traitsIcESaIcEEE
FN:1108,1114,_ZN7testing8internal17StreamingListener12SocketWriter15CloseConnectionEv
FN:1127,1130,_ZN7testing8internal17StreamingListenerC2ERKNSt7__cxx1112basic_stringIcSt11char_traitsIcESaIcEEES9_
FN:113,125,_ZN7testing8internal21GetRandomSeedFromFlagEi
FN:1137,1139,_ZN7testing8internal17StreamingListener18OnTestProgramStartERKNS_8UnitTestE
FN:1141,1148,_ZN7testing8internal17StreamingListener16OnTestProgramEndERKNS_8UnitTestE
FN:1150,1154,_ZN7testing8internal17StreamingListener20OnTestIterationStartERKNS_8UnitTestEi
FN:1156,1161,_ZN7testing8internal17StreamingListener18OnTestIterationEndERKNS_8UnitTestEi
FN:1165,1167,_ZN7testing8internal17StreamingListener16OnTestSuiteStartERKNS_9TestSuiteE
FN:1171,1175,_ZN7testing8internal17StreamingListener14OnTestSuiteEndERKNS_9TestSuiteE
FN:1177,1179,_ZN7testing8internal17StreamingListener11OnTestStartERKNS_8TestInfoE
FN:1181,1185,_ZN7testing8internal17StreamingListener9OnTestEndERKNS_8TestInfoE
FN:1187,1193,_ZN7testing8internal17StreamingListener16OnTestPartResultERKNS_14TestPartResultE
FN:1197,1197,_ZN7testing8internal17StreamingListener6SendLnERKNSt7__cxx1112basic_stringIcSt11char_traitsIcESaIcEEE
FN:1201,1201,_ZN7testing8internal17StreamingListener5StartEv
FN:1203,1203,_ZN7testing8internal17StreamingListener10FormatBoolB5cxx11Eb
FN:130,136,_ZN7testing8internal17GetNextRandomSeedEi
FN:143,166,_ZN7testing8internal14GTestFlagSaverC2Ev
FN:169,192,_ZN7testing8internal14GTestFlagSaverD2Ev
FN:275,283,_ZN7testing8internal7CountIfISt6vectorINS_14TestPartResultESaIS3_EEPFbRKS3_EEEiRKT_T0_
FN:275,283,_ZN7testing8internal7CountIfISt6vectorIPNS_8TestInfoESaIS4_EEPFbPKS3_EEEiRKT_T0_
FN:275,283,_ZN7testing8internal7CountIfISt6vectorIPNS_9TestSuiteESaIS4_EEPFbPKS3_EEEiRKT_T0_
FN:287,289,_ZN7testing8internal7ForEachISt6vectorIPNS_11EnvironmentESaIS4_EEPFvS4_EEEvRKT_T0_
FN:287,289,_ZN7testing8internal7ForEachISt6vectorIPNS_17TestEventListenerESaIS4_EEPFvS4_EEEvRKT_T0_
FN:287,289,_ZN7testing8internal7ForEachISt6vectorIPNS_8TestInfoESaIS4_EEPFvS4_EEEvRKT_T0_
FN:287,289,_ZN7testing8internal7ForEachISt6vectorIPNS_9TestSuiteESaIS4_EEPFvS4_EEEvRKT_T0_
FN:294,297,_ZN7testing8internal12GetElementOrIiEET_RKSt6vectorIS2_SaIS2_EEiS2_
FN:304,324,_ZN7testing8internal12ShuffleRangeIiEEvPNS0_6RandomEiiPSt6vectorIT_SaIS5_EE
FN:328,330,_ZN7testing8internal7ShuffleIiEEvPNS0_6RandomEPSt6vectorIT_SaIS5_EE
FN:335,337,_ZN7testing8internalL6DeleteINS_11EnvironmentEEEvPT_
FN:335,337,_ZN7testing8internalL6DeleteINS_17TestEventListenerEEEvPT_
FN:335,337,_ZN7testing8internalL6DeleteINS_8TestInfoEEEvPT_
FN:335,337,_ZN7testing8internalL6DeleteINS_9TestSuiteEEEvPT_
FN:347,347,_ZN7testing8internal17TestPropertyKeyIsC2ERKNSt7__cxx1112basic_stringIcSt11char_traitsIcESaIcEEE
FN:350,352,_ZNK7testing8internal17TestPropertyKeyIsclERKNS_12TestPropertyE
FN:410,410,_ZN7testing8internal27OsStackTraceGetterInterfaceC2Ev
FN:411,411,_ZN7testing8internal27OsStackTraceGetterInterfaceD0Ev
FN:411,411,_ZN7testing8internal27OsStackTraceGetterInterfaceD2Ev
FN:439,439,_ZN7testing8internal18OsStackTraceGetterC2Ev
FN:573,573,_ZNK7testing8internal12UnitTestImpl15start_timestampEv
FN:576,576,_ZNK7testing8internal12UnitTestImpl12elapsed_timeEv
FN:580,580,_ZNK7testing8internal12UnitTestImpl6PassedEv
FN:584,586,_ZNK7testing8internal12UnitTestImpl6FailedEv
FN:590,593,_ZNK7testing8internal12UnitTestImpl12GetTestSuiteEi
FN:597,597,_ZNK7testing8internal12UnitTestImpl11GetTestCaseEi
FN:602,605,_ZN7testing8internal12UnitTestImpl19GetMutableSuiteCaseEi
FN:608,608,_ZN7testing8internal12UnitTestImpl9listenersEv
FN:615,615,_ZNK7testing8internal12UnitTestImpl18ad_hoc_test_resultEv
FN:672,693,_ZN7testing8internal12UnitTestImpl11AddTestInfoEPFvvES3_PNS_8TestInfoE
FN:697,699,_ZN7testing8internal12UnitTestImpl27parameterized_test_registryEv
FN:701,703,_ZN7testing8internal12UnitTestImpl33ignored_parameterized_test_suitesB5cxx11Ev
FN:708,710,_ZN7testing8internal12UnitTestImpl32type_parameterized_test_registryEv
FN:713,715,_ZN7testing8internal12UnitTestImpl22set_current_test_suiteEPNS_9TestSuiteE
FN:720,722,_ZN7testing8internal12UnitTestImpl21set_current_test_infoEPNS_8TestInfoE
FN:739,741,_ZN7testing8internal12UnitTestImpl23ClearNonAdHocTestResultEv
FN:765,765,_ZNK7testing8internal12UnitTestImpl18current_test_suiteEv
FN:766,766,_ZN7testing8internal12UnitTestImpl17current_test_infoEv
FN:767,767,_ZNK7testing8internal12UnitTestImpl17current_test_infoEv
FN:771,771,_ZN7testing8internal12UnitTestImpl12environmentsEv
FN:774,776,_ZN7testing8internal12UnitTestImpl17gtest_trace_stackEv
FN:782,784,_ZN7testing8internal12UnitTestImpl34InitDeathTestSubprocessControlInfoEv
FN:789,791,_ZNK7testing8internal12UnitTestImpl28internal_run_death_test_flagEv
FN:794,796,_ZN7testing8internal12UnitTestImpl18death_test_factoryEv
FN:821,821,_ZNK7testing8internal12UnitTestImpl11random_seedEv
FN:824,824,_ZN7testing8internal12UnitTestImpl6randomEv
FN:835,835,_ZNK7testing8internal12UnitTestImpl16catch_exceptionsEv
FN:842,842,_ZN7testing8internal12UnitTestImpl20set_catch_exceptionsEb
FN:966,968,_ZN7testing8internal15GetUnitTestImplEv
FNDA:0,_ZN7testing8internal18ParseNaturalNumberIiEEbRKNSt7__cxx1112basic_stringIcSt11char_traitsIcESaIcEEEPT_
FNDA:0,_ZN7testing8internal17StreamingListener20AbstractSocketWriterD0Ev
FNDA:0,_ZN7testing8internal17StreamingListener20AbstractSocketWriterD2Ev
FNDA:0,_ZN7testing8internal17StreamingListener20AbstractSocketWriter15CloseConnectionEv
FNDA:0,_ZN7testing8internal17StreamingListener20AbstractSocketWriter6SendLnERKNSt7__cxx1112basic_stringIcSt11char_traitsIcESaIcEEE
FNDA:0,_ZN7testing8internal17StreamingListener12SocketWriterC2ERKNSt7__cxx1112basic_stringIcSt11char_traitsIcESaIcEEESA_
FNDA:0,_ZN7testing8internal17StreamingListener12SocketWriterD0Ev
FNDA:0,_ZN7testing8internal17StreamingListener12SocketWriterD2Ev
FNDA:0,_ZN7testing8internal17StreamingListener12SocketWriter4SendERKNSt7__cxx1112basic_stringIcSt11char_traitsIcESaIcEEE
FNDA:0,_ZN7testing8internal17StreamingListener12SocketWriter15CloseConnectionEv
FNDA:0,_ZN7testing8internal17StreamingListenerC2ERKNSt7__cxx1112basic_stringIcSt11char_traitsIcESaIcEEES9_
FNDA:1,_ZN7testing8internal21GetRandomSeedFromFlagEi
FNDA:0,_ZN7testing8internal17StreamingListener18OnTestProgramStartERKNS_8UnitTestE
FNDA:0,_ZN7testing8internal17StreamingListener16OnTestProgramEndERKNS_8UnitTestE
FNDA:0,_ZN7testing8internal17StreamingListener20OnTestIterationStartERKNS_8UnitTestEi
FNDA:0,_ZN7testing8internal17StreamingListener18OnTestIterationEndERKNS_8UnitTestEi
FNDA:0,_ZN7testing8internal17StreamingListener16OnTestSuiteStartERKNS_9TestSuiteE
FNDA:0,_ZN7testing8internal17StreamingListener14OnTestSuiteEndERKNS_9TestSuiteE
FNDA:0,_ZN7testing8internal17StreamingListener11OnTestStartERKNS_8TestInfoE
FNDA:0,_ZN7testing8internal17StreamingListener9OnTestEndERKNS_8TestInfoE
FNDA:0,_ZN7testing8internal17StreamingListener16OnTestPartResultERKNS_14TestPartResultE
FNDA:0,_ZN7testing8internal17StreamingListener6SendLnERKNSt7__cxx1112basic_stringIcSt11char_traitsIcESaIcEEE
FNDA:0,_ZN7testing8internal17StreamingListener5StartEv
FNDA:0,_ZN7testing8internal17StreamingListener10FormatBoolB5cxx11Eb
FNDA:0,_ZN7testing8internal17GetNextRandomSeedEi
FNDA:17,_ZN7testing8internal14GTestFlagSaverC2Ev
FNDA:17,_ZN7testing8internal14GTestFlagSaverD2Ev
FNDA:122,_ZN7testing8internal7CountIfISt6vectorINS_14TestPartResultESaIS3_EEPFbRKS3_EEEiRKT_T0_
FNDA:9,_ZN7testing8internal7CountIfISt6vectorIPNS_8TestInfoESaIS4_EEPFbPKS3_EEEiRKT_T0_
FNDA:4,_ZN7testing8internal7CountIfISt6vectorIPNS_9TestSuiteESaIS4_EEPFbPKS3_EEEiRKT_T0_
FNDA:2,_ZN7testing8internal7ForEachISt6vectorIPNS_11EnvironmentESaIS4_EEPFvS4_EEEvRKT_T0_
FNDA:1,_ZN7testing8internal7ForEachISt6vectorIPNS_17TestEventListenerESaIS4_EEPFvS4_EEEvRKT_T0_
FNDA:2,_ZN7testing8internal7ForEachISt6vectorIPNS_8TestInfoESaIS4_EEPFvS4_EEEvRKT_T0_
FNDA:2,_ZN7testing8internal7ForEachISt6vectorIPNS_9TestSuiteESaIS4_EEPFvS4_EEEvRKT_T0_
FNDA:18,_ZN7testing8internal12GetElementOrIiEET_RKSt6vectorIS2_SaIS2_EEiS2_
FNDA:0,_ZN7testing8internal12ShuffleRangeIiEEvPNS0_6RandomEiiPSt6vectorIT_SaIS5_EE
FNDA:0,_ZN7testing8internal7ShuffleIiEEvPNS0_6RandomEPSt6vectorIT_SaIS5_EE
FNDA:0,_ZN7testing8internalL6DeleteINS_11EnvironmentEEEvPT_
FNDA:1,_ZN7testing8internalL6DeleteINS_17TestEventListenerEEEvPT_
FNDA:17,_ZN7testing8internalL6DeleteINS_8TestInfoEEEvPT_
FNDA:1,_ZN7testing8internalL6DeleteINS_9TestSuiteEEEvPT_
FNDA:0,_ZN7testing8internal17TestPropertyKeyIsC2ERKNSt7__cxx1112basic_stringIcSt11char_traitsIcESaIcEEE
FNDA:0,_ZNK7testing8internal17TestPropertyKeyIsclERKNS_12TestPropertyE
FNDA:1,_ZN7testing8internal27OsStackTraceGetterInterfaceC2Ev
FNDA:0,_ZN7testing8internal27OsStackTraceGetterInterfaceD0Ev
FNDA:1,_ZN7testing8internal27OsStackTraceGetterInterfaceD2Ev
FNDA:1,_ZN7testing8internal18OsStackTraceGetterC2Ev
FNDA:0,_ZNK7testing8internal12UnitTestImpl15start_timestampEv
FNDA:1,_ZNK7testing8internal12UnitTestImpl12elapsed_timeEv
FNDA:2,_ZNK7testing8internal12UnitTestImpl6PassedEv
FNDA:2,_ZNK7testing8internal12UnitTestImpl6FailedEv
FNDA:0,_ZNK7testing8internal12UnitTestImpl12GetTestSuiteEi
FNDA:0,_ZNK7testing8internal12UnitTestImpl11GetTestCaseEi
FNDA:1,_ZN7testing8internal12UnitTestImpl19GetMutableSuiteCaseEi
FNDA:20,_ZN7testing8internal12UnitTestImpl9listenersEv
FNDA:2,_ZNK7testing8internal12UnitTestImpl18ad_hoc_test_resultEv
FNDA:17,_ZN7testing8internal12UnitTestImpl11AddTestInfoEPFvvES3_PNS_8TestInfoE
FNDA:0,_ZN7testing8internal12UnitTestImpl27parameterized_test_registryEv
FNDA:1,_ZN7testing8internal12UnitTestImpl33ignored_parameterized_test_suitesB5cxx11Ev
FNDA:0,_ZN7testing8internal12UnitTestImpl32type_parameterized_test_registryEv
FNDA:2,_ZN7testing8internal12UnitTestImpl22set_current_test_suiteEPNS_9TestSuiteE
FNDA:34,_ZN7testing8internal12UnitTestImpl21set_current_test_infoEPNS_8TestInfoE
FNDA:1,_ZN7testing8internal12UnitTestImpl23ClearNonAdHocTestResultEv
FNDA:17,_ZNK7testing8internal12UnitTestImpl18current_test_suiteEv
FNDA:17,_ZN7testing8internal12UnitTestImpl17current_test_infoEv
FNDA:0,_ZNK7testing8internal12UnitTestImpl17current_test_infoEv
FNDA:0,_ZN7testing8internal12UnitTestImpl12environmentsEv
FNDA:0,_ZN7testing8internal12UnitTestImpl17gtest_trace_stackEv
FNDA:1,_ZN7testing8internal12UnitTestImpl34InitDeathTestSubprocessControlInfoEv
FNDA:0,_ZNK7testing8internal12UnitTestImpl28internal_run_death_test_flagEv
FNDA:0,_ZN7testing8internal12UnitTestImpl18death_test_factoryEv
FNDA:0,_ZNK7testing8internal12UnitTestImpl11random_seedEv
FNDA:0,_ZN7testing8internal12UnitTestImpl6randomEv
FNDA:88,_ZNK7testing8internal12UnitTestImpl16catch_exceptionsEv
FNDA:1,_ZN7testing8internal12UnitTestImpl20set_catch_exceptionsEb
FNDA:228,_ZN7testing8internal15GetUnitTestImplEv
FNF:76
FNH:34
DA:113,1
DA:115,1
DA:116,1
DA:120,1
DA:121,1
DA:124,1
DA:130,0
DA:131,0
DA:132,0
DA:133,0
DA:134,0
DA:135,0
DA:143,17
DA:144,17
DA:145,17
DA:146,17
DA:147,17
DA:148,17
DA:149,17
DA:150,17
DA:151,17
DA:152,17
DA:153,17
DA:154,17
DA:155,17
DA:156,17
DA:157,17
DA:158,17
DA:159,17
DA:160,17
DA:162,17
DA:163,17
DA:164,17
DA:165,17
DA:166,17
DA:169,17
DA:170,17
DA:171,17
DA:172,17
DA:173,17
DA:174,17
DA:175,17
DA:176,17
DA:177,17
DA:178,17
DA:179,17
DA:180,17
DA:181,17
DA:182,17
DA:183,17
DA:184,17
DA:185,17
DA:186,17
DA:188,17
DA:189,17
DA:190,17
DA:191,17
DA:192,17
DA:275,135
DA:278,135
DA:279,292
DA:280,157
DA:282,135
DA:287,7
DA:288,7
DA:289,7
DA:294,18
DA:295,36
DA:296,36
DA:304,0
DA:306,0
DA:307,0
DA:308,0
DA:309,0
DA:310,0
DA:311,0
DA:312,0
DA:316,0
DA:317,0
DA:318,0
DA:320,0
DA:321,0
DA:322,0
DA:324,0
DA:328,0
DA:329,0
DA:330,0
DA:335,19
DA:336,19
DA:337,19
DA:347,0
DA:350,0
DA:351,0
DA:410,1
DA:411,1
DA:439,1
DA:573,0
DA:576,1
DA:580,2
DA:584,2
DA:585,2
DA:590,0
DA:591,0
DA:592,0
DA:597,0
DA:602,1
DA:603,1
DA:604,1
DA:608,20
DA:615,2
DA:672,17
DA:683,17
DA:684,1
DA:685,1
DA:686,0
DA:692,17
DA:693,17
DA:697,0
DA:698,0
DA:701,1
DA:702,1
DA:708,0
DA:709,0
DA:713,2
DA:714,2
DA:715,2
DA:720,34
DA:721,34
DA:722,34
DA:739,1
DA:740,1
DA:741,1
DA:765,17
DA:766,17
DA:767,0
DA:771,0
DA:774,0
DA:775,0
DA:782,1
DA:783,1
DA:784,1
DA:789,0
DA:790,0
DA:794,0
DA:795,0
DA:821,0
DA:824,0
DA:835,88
DA:842,1
DA:966,228
DA:967,228
DA:1007,0
DA:1011,0
DA:1012,0
DA:1014,0
DA:1016,0
DA:1021,0
DA:1022,0
DA:1024,0
DA:1026,0
DA:1027,0
DA:1028,0
DA:1029,0
DA:1031,0
DA:1067,0
DA:1073,0
DA:1076,0
DA:1082,0
DA:1083,0
DA:1084,0
DA:1085,0
DA:1087,0
DA:1088,0
DA:1089,0
DA:1092,0
DA:1093,0
DA:1094,0
DA:1096,0
DA:1097,0
DA:1098,0
DA:1099,0
DA:1101,0
DA:1108,0
DA:1109,0
DA:1110,0
DA:1112,0
DA:1113,0
DA:1114,0
DA:1127,0
DA:1128,0
DA:1129,0
DA:1130,0
DA:1137,0
DA:1138,0
DA:1139,0
DA:1141,0
DA:1144,0
DA:1147,0
DA:1148,0
DA:1150,0
DA:1152,0
DA:1153,0
DA:1154,0
DA:1156,0
DA:1158,0
DA:1159,0
DA:1161,0
DA:1165,0
DA:1166,0
DA:1167,0
DA:1171,0
DA:1172,0
DA:1173,0
DA:1175,0
DA:1177,0
DA:1178,0
DA:1179,0
DA:1181,0
DA:1182,0
DA:1183,0
DA:1184,0
DA:1185,0
DA:1187,0
DA:1188,0
DA:1189,0
DA:1190,0
DA:1191,0
DA:1192,0
DA:1193,0
DA:1197,0
DA:1201,0
DA:1203,0
LF:232
LH:104
end_of_record
TN:
SF:/mnt/c/users/t470/desktop/funda/lab11/project2/build/_deps/googletest-src/googletest/src/gtest-matchers.cc
FN:46,46,_ZN7testing7MatcherIRKNSt7__cxx1112basic_stringIcSt11char_traitsIcESaIcEEEEC2ES8_
FN:50,52,_ZN7testing7MatcherIRKNSt7__cxx1112basic_stringIcSt11char_traitsIcESaIcEEEEC2EPKc
FN:56,56,_ZN7testing7MatcherINSt7__cxx1112basic_stringIcSt11char_traitsIcESaIcEEEEC2ERKS6_
FN:60,60,_ZN7testing7MatcherINSt7__cxx1112basic_stringIcSt11char_traitsIcESaIcEEEEC2EPKc
FN:65,67,_ZN7testing7MatcherIRKSt17basic_string_viewIcSt11char_traitsIcEEEC2ERKNSt7__cxx1112basic_stringIcS3_SaIcEEE
FN:71,73,_ZN7testing7MatcherIRKSt17basic_string_viewIcSt11char_traitsIcEEEC2EPKc
FN:77,79,_ZN7testing7MatcherIRKSt17basic_string_viewIcSt11char_traitsIcEEEC2ES4_
FN:83,83,_ZN7testing7MatcherISt17basic_string_viewIcSt11char_traitsIcEEEC2ERKNSt7__cxx1112basic_stringIcS3_SaIcEEE
FN:87,89,_ZN7testing7MatcherISt17basic_string_viewIcSt11char_traitsIcEEEC2EPKc
FN:93,95,_ZN7testing7MatcherISt17basic_string_viewIcSt11char_traitsIcEEEC2ES4_
FNDA:0,_ZN7testing7MatcherIRKNSt7__cxx1112basic_stringIcSt11char_traitsIcESaIcEEEEC2ES8_
FNDA:0,_ZN7testing7MatcherIRKNSt7__cxx1112basic_stringIcSt11char_traitsIcESaIcEEEEC2EPKc
FNDA:0,_ZN7testing7MatcherINSt7__cxx1112basic_stringIcSt11char_traitsIcESaIcEEEEC2ERKS6_
FNDA:0,_ZN7testing7MatcherINSt7__cxx1112basic_stringIcSt11char_traitsIcESaIcEEEEC2EPKc
FNDA:0,_ZN7testing7MatcherIRKSt17basic_string_viewIcSt11char_traitsIcEEEC2ERKNSt7__cxx1112basic_stringIcS3_SaIcEEE
FNDA:0,_ZN7testing7MatcherIRKSt17basic_string_viewIcSt11char_traitsIcEEEC2EPKc
FNDA:0,_ZN7testing7MatcherIRKSt17basic_string_viewIcSt11char_traitsIcEEEC2ES4_
FNDA:0,_ZN7testing7MatcherISt17basic_string_viewIcSt11char_traitsIcEEEC2ERKNSt7__cxx1112basic_stringIcS3_SaIcEEE
FNDA:0,_ZN7testing7MatcherISt17basic_string_viewIcSt11char_traitsIcEEEC2EPKc
FNDA:0,_ZN7testing7MatcherISt17basic_string_viewIcSt11char_traitsIcEEEC2ES4_
FNF:10
FNH:0
DA:46,0
DA:50,0
DA:51,0
DA:52,0
DA:56,0
DA:60,0
DA:65,0
DA:66,0
DA:67,0
DA:71,0
DA:72,0
DA:73,0
DA:77,0
DA:78,0
DA:79,0
DA:83,0
DA:87,0
DA:88,0
DA:89,0
DA:93,0
DA:94,0
DA:95,0
LF:22
LH:0
end_of_record
TN:
SF:/mnt/c/users/t470/desktop/funda/lab11/project2/build/_deps/googletest-src/googletest/src/gtest-port.cc
FN:1005,1014,_ZN7testing8internal8GTestLogC2ENS0_16GTestLogSeverityEPKci
FN:1017,1023,_ZN7testing8internal8GTestLogD2Ev
FN:103,112,_ZN7testing8internal12_GLOBAL__N_117ReadProcFileFieldImEET_RKNSt7__cxx1112basic_stringIcSt11char_traitsIcESaIcEEEi
FN:1035,1111,_ZN7testing8internal14CapturedStreamC2Ei
FN:1113,1113,_ZN7testing8internal14CapturedStreamD2Ev
FN:1115,1132,_ZN7testing8internal14CapturedStream17GetCapturedStringB5cxx11Ev
FN:1150,1157,_ZN7testing8internalL13CaptureStreamEiPKcPPNS0_14CapturedStreamE
FN:116,120,_ZN7testing8internal14GetThreadCountEv
FN:1160,1167,_ZN7testing8internalL17GetCapturedStreamEPPNS0_14CapturedStreamE
FN:1179,1181,_ZN7testing8internal13CaptureStdoutEv
FN:1184,1186,_ZN7testing8internal13CaptureStderrEv
FN:1189,1191,_ZN7testing8internal17GetCapturedStdoutB5cxx11Ev
FN:1194,1196,_ZN7testing8internal17GetCapturedStderrB5cxx11Ev
FN:1200,1203,_ZN7testing8internal11GetFileSizeEP8_IO_FILE
FN:1205,1226,_ZN7testing8internal14ReadEntireFileB5cxx11EP8_IO_FILE
FN:1232,1237,_ZN7testing8internal18GetInjectableArgvsB5cxx11Ev
FN:1239,1242,_ZN7testing8internal18SetInjectableArgvsEPKSt6vectorINSt7__cxx1112basic_stringIcSt11char_traitsIcESaIcEEESaIS7_EE
FN:1244,1247,_ZN7testing8internal18SetInjectableArgvsERKSt6vectorINSt7__cxx1112basic_stringIcSt11char_traitsIcESaIcEEESaIS7_EE
FN:1249,1252,_ZN7testing8internal20ClearInjectableArgvsEv
FN:1267,1277,_ZN7testing8internalL12FlagToEnvVarEPKc
FN:1282,1318,_ZN7testing8internal10ParseInt32ERKNS_7MessageEPKcPi
FN:1324,1333,_ZN7testing8internal16BoolFromGTestEnvEPKcb
FN:1338,1360,_ZN7testing8internal17Int32FromGTestEnvEPKci
FN:1370,1377,_ZN7testing8internal25OutputFlagAlsoCheckEnvVarB5cxx11Ev
FN:1381,1389,_ZN7testing8internal18StringFromGTestEnvEPKcS2_
FN:668,677,_ZN7testing8internal2RED2Ev
FN:680,685,_ZN7testing8internal2RE9FullMatchEPKcRKS1_
FN:689,694,_ZN7testing8internal2RE12PartialMatchEPKcRKS1_
FN:697,724,_ZN7testing8internal2RE4InitEPKc
FN:977,988,_ZN7testing8internal18FormatFileLocationB5cxx11EPKci
FN:995,1003,_ZN7testing8internal37FormatCompilerIndependentFileLocationB5cxx11EPKci
FNDA:0,_ZN7testing8internal8GTestLogC2ENS0_16GTestLogSeverityEPKci
FNDA:0,_ZN7testing8internal8GTestLogD2Ev
FNDA:0,_ZN7testing8internal12_GLOBAL__N_117ReadProcFileFieldImEET_RKNSt7__cxx1112basic_stringIcSt11char_traitsIcESaIcEEEi
FNDA:0,_ZN7testing8internal14CapturedStreamC2Ei
FNDA:0,_ZN7testing8internal14CapturedStreamD2Ev
FNDA:0,_ZN7testing8internal14CapturedStream17GetCapturedStringB5cxx11Ev
FNDA:0,_ZN7testing8internalL13CaptureStreamEiPKcPPNS0_14CapturedStreamE
FNDA:0,_ZN7testing8internal14GetThreadCountEv
FNDA:0,_ZN7testing8internalL17GetCapturedStreamEPPNS0_14CapturedStreamE
FNDA:0,_ZN7testing8internal13CaptureStdoutEv
FNDA:0,_ZN7testing8internal13CaptureStderrEv
FNDA:0,_ZN7testing8internal17GetCapturedStdoutB5cxx11Ev
FNDA:0,_ZN7testing8internal17GetCapturedStderrB5cxx11Ev
FNDA:0,_ZN7testing8internal11GetFileSizeEP8_IO_FILE
FNDA:0,_ZN7testing8internal14ReadEntireFileB5cxx11EP8_IO_FILE
FNDA:0,_ZN7testing8internal18GetInjectableArgvsB5cxx11Ev
FNDA:0,_ZN7testing8internal18SetInjectableArgvsEPKSt6vectorINSt7__cxx1112basic_stringIcSt11char_traitsIcESaIcEEESaIS7_EE
FNDA:0,_ZN7testing8internal18SetInjectableArgvsERKSt6vectorINSt7__cxx1112basic_stringIcSt11char_traitsIcESaIcEEESaIS7_EE
FNDA:0,_ZN7testing8internal20ClearInjectableArgvsEv
FNDA:21,_ZN7testing8internalL12FlagToEnvVarEPKc
FNDA:0,_ZN7testing8internal10ParseInt32ERKNS_7MessageEPKcPi
FNDA:12,_ZN7testing8internal16BoolFromGTestEnvEPKcb
FNDA:3,_ZN7testing8internal17Int32FromGTestEnvEPKci
FNDA:1,_ZN7testing8internal25OutputFlagAlsoCheckEnvVarB5cxx11Ev
FNDA:6,_ZN7testing8internal18StringFromGTestEnvEPKcS2_
FNDA:0,_ZN7testing8internal2RED2Ev
FNDA:0,_ZN7testing8internal2RE9FullMatchEPKcRKS1_
FNDA:0,_ZN7testing8internal2RE12PartialMatchEPKcRKS1_
FNDA:0,_ZN7testing8internal2RE4InitEPKc
FNDA:0,_ZN7testing8internal18FormatFileLocationB5cxx11EPKci
FNDA:0,_ZN7testing8internal37FormatCompilerIndependentFileLocationB5cxx11EPKci
FNF:31
FNH:5
DA:103,0
DA:104,0
DA:105,0
DA:106,0
DA:107,0
DA:109,0
DA:110,0
DA:111,0
DA:112,0
DA:116,0
DA:117,0
DA:118,0
DA:119,0
DA:120,0
DA:668,0
DA:669,0
DA:674,0
DA:675,0
DA:677,0
DA:680,0
DA:681,0
DA:683,0
DA:684,0
DA:689,0
DA:690,0
DA:692,0
DA:693,0
DA:697,0
DA:698,0
DA:702,0
DA:703,0
DA:705,0
DA:706,0
DA:715,0
DA:716,0
DA:717,0
DA:719,0
DA:720,0
DA:721,0
DA:723,0
DA:724,0
DA:977,0
DA:978,0
DA:980,0
DA:981,0
DA:986,0
DA:988,0
DA:995,0
DA:997,0
DA:999,0
DA:1000,0
DA:1002,0
DA:1003,0
DA:1005,0
DA:1006,0
DA:1007,0
DA:1011,0
DA:1012,0
DA:1013,0
DA:1014,0
DA:1017,0
DA:1018,0
DA:1019,0
DA:1020,0
DA:1021,0
DA:1023,0
DA:1035,0
DA:1053,0
DA:1090,0
DA:1092,0
DA:1100,0
DA:1101,0
DA:1102,0
DA:1104,0
DA:1106,0
DA:1108,0
DA:1109,0
DA:1110,0
DA:1111,0
DA:1113,0
DA:1115,0
DA:1116,0
DA:1118,0
DA:1119,0
DA:1120,0
DA:1121,0
DA:1124,0
DA:1125,0
DA:1126,0
DA:1127,0
DA:1129,0
DA:1130,0
DA:1131,0
DA:1132,0
DA:1150,0
DA:1152,0
DA:1153,0
DA:1154,0
DA:1156,0
DA:1157,0
DA:1160,0
DA:1161,0
DA:1163,0
DA:1164,0
DA:1166,0
DA:1179,0
DA:1180,0
DA:1181,0
DA:1184,0
DA:1185,0
DA:1186,0
DA:1189,0
DA:1190,0
DA:1194,0
DA:1195,0
DA:1200,0
DA:1201,0
DA:1202,0
DA:1205,0
DA:1206,0
DA:1207,0
DA:1209,0
DA:1210,0
DA:1212,0
DA:1218,0
DA:1219,0
DA:1220,0
DA:1222,0
DA:1223,0
DA:1225,0
DA:1232,0
DA:1233,0
DA:1234,0
DA:1236,0
DA:1239,0
DA:1240,0
DA:1241,0
DA:1242,0
DA:1244,0
DA:1245,0
DA:1246,0
DA:1247,0
DA:1249,0
DA:1250,0
DA:1251,0
DA:1252,0
DA:1267,21
DA:1268,21
DA:1269,21
DA:1271,21
DA:1272,435
DA:1273,414
DA:1276,42
DA:1277,21
DA:1282,0
DA:1284,0
DA:1285,0
DA:1288,0
DA:1290,0
DA:1291,0
DA:1292,0
DA:1293,0
DA:1294,0
DA:1295,0
DA:1296,0
DA:1297,0
DA:1300,0
DA:1301,0
DA:1304,0
DA:1307,0
DA:1308,0
DA:1309,0
DA:1310,0
DA:1311,0
DA:1312,0
DA:1313,0
DA:1314,0
DA:1316,0
DA:1317,0
DA:1324,12
DA:1328,12
DA:1329,12
DA:1330,12
DA:1331,12
DA:1333,12
DA:1338,3
DA:1342,3
DA:1343,3
DA:1344,3
DA:1346,3
DA:1349,0
DA:1350,0
DA:1352,0
DA:1353,0
DA:1354,0
DA:1355,0
DA:1358,0
DA:1360,3
DA:1370,1
DA:1371,3
DA:1372,1
DA:1373,1
DA:1374,0
DA:1376,1
DA:1377,0
DA:1381,6
DA:1385,6
DA:1386,6
DA:1387,12
DA:1389,6
LF:210
LH:30
end_of_record
TN:
SF:/mnt/c/users/t470/desktop/funda/lab11/project2/build/_deps/googletest-src/googletest/src/gtest-printers.cc
FN:116,119,_ZN7testing12_GLOBAL__N_18ToChar32IDiEEDiT_
FN:116,119,_ZN7testing12_GLOBAL__N_18ToChar32IDsEEDiT_
FN:116,119,_ZN7testing12_GLOBAL__N_18ToChar32IDuEEDiT_
FN:116,119,_ZN7testing12_GLOBAL__N_18ToChar32IaEEDiT_
FN:116,119,_ZN7testing12_GLOBAL__N_18ToChar32IcEEDiT_
FN:116,119,_ZN7testing12_GLOBAL__N_18ToChar32IhEEDiT_
FN:116,119,_ZN7testing12_GLOBAL__N_18ToChar32IwEEDiT_
FN:130,133,_ZN7testing8internal20PrintBytesInObjectToEPKhmPSo
FN:145,145,_ZN7testing8internal16IsPrintableAsciiEDi
FN:151,196,_ZN7testing8internalL20PrintAsCharLiteralToIDiEENS0_10CharFormatET_PSo
FN:151,196,_ZN7testing8internalL20PrintAsCharLiteralToIaEENS0_10CharFormatET_PSo
FN:151,196,_ZN7testing8internalL20PrintAsCharLiteralToIhEENS0_10CharFormatET_PSo
FN:151,196,_ZN7testing8internalL20PrintAsCharLiteralToIwEENS0_10CharFormatET_PSo
FN:200,211,_ZN7testing8internalL22PrintAsStringLiteralToEDiPSo
FN:213,213,_ZN7testing8internalL18GetCharWidthPrefixEc
FN:215,215,_ZN7testing8internalL18GetCharWidthPrefixEa
FN:217,217,_ZN7testing8internalL18GetCharWidthPrefixEh
FN:220,220,_ZN7testing8internalL18GetCharWidthPrefixEDu
FN:223,223,_ZN7testing8internalL18GetCharWidthPrefixEDs
FN:225,225,_ZN7testing8internalL18GetCharWidthPrefixEDi
FN:227,227,_ZN7testing8internalL18GetCharWidthPrefixEw
FN:231,233,_ZN7testing8internalL22PrintAsStringLiteralToEcPSo
FN:236,238,_ZN7testing8internalL22PrintAsStringLiteralToEDuPSo
FN:241,243,_ZN7testing8internalL22PrintAsStringLiteralToEDsPSo
FN:245,247,_ZN7testing8internalL22PrintAsStringLiteralToEwPSo
FN:253,274,_ZN7testing8internal18PrintCharAndCodeToIaEEvT_PSo
FN:253,274,_ZN7testing8internal18PrintCharAndCodeToIhEEvT_PSo
FN:253,274,_ZN7testing8internal18PrintCharAndCodeToIwEEvT_PSo
FN:276,276,_ZN7testing8internal7PrintToEhPSo
FN:277,277,_ZN7testing8internal7PrintToEaPSo
FN:281,281,_ZN7testing8internal7PrintToEwPSo
FN:284,287,_ZN7testing8internal7PrintToEDiPSo
FN:291,323,_ZN7testing8internal7PrintToEoPSo
FN:324,331,_ZN7testing8internal7PrintToEnPSo
FN:342,363,_ZN7testing8internalL20PrintCharsAsStringToIDiEENS0_10CharFormatEPKT_mPSo
FN:342,363,_ZN7testing8internalL20PrintCharsAsStringToIDsEENS0_10CharFormatEPKT_mPSo
FN:342,363,_ZN7testing8internalL20PrintCharsAsStringToIDuEENS0_10CharFormatEPKT_mPSo
FN:342,363,_ZN7testing8internalL20PrintCharsAsStringToIcEENS0_10CharFormatEPKT_mPSo
FN:342,363,_ZN7testing8internalL20PrintCharsAsStringToIwEENS0_10CharFormatEPKT_mPSo
FN:371,391,_ZN7testing8internalL23UniversalPrintCharArrayIDiEEvPKT_mPSo
FN:371,391,_ZN7testing8internalL23UniversalPrintCharArrayIDsEEvPKT_mPSo
FN:371,391,_ZN7testing8internalL23UniversalPrintCharArrayIDuEEvPKT_mPSo
FN:371,391,_ZN7testing8internalL23UniversalPrintCharArrayIcEEvPKT_mPSo
FN:371,391,_ZN7testing8internalL23UniversalPrintCharArrayIwEEvPKT_mPSo
FN:394,396,_ZN7testing8internal19UniversalPrintArrayEPKcmPSo
FN:401,403,_ZN7testing8internal19UniversalPrintArrayEPKDumPSo
FN:408,410,_ZN7testing8internal19UniversalPrintArrayEPKDsmPSo
FN:414,416,_ZN7testing8internal19UniversalPrintArrayEPKDimPSo
FN:420,422,_ZN7testing8internal19UniversalPrintArrayEPKwmPSo
FN:428,435,_ZN7testing8internal12_GLOBAL__N_114PrintCStringToIDiEEvPKT_PSo
FN:428,435,_ZN7testing8internal12_GLOBAL__N_114PrintCStringToIDsEEvPKT_PSo
FN:428,435,_ZN7testing8internal12_GLOBAL__N_114PrintCStringToIDuEEvPKT_PSo
FN:428,435,_ZN7testing8internal12_GLOBAL__N_114PrintCStringToIcEEvPKT_PSo
FN:428,435,_ZN7testing8internal12_GLOBAL__N_114PrintCStringToIwEEvPKT_PSo
FN:439,439,_ZN7testing8internal7PrintToEPKcPSo
FN:442,442,_ZN7testing8internal7PrintToEPKDuPSo
FN:445,445,_ZN7testing8internal7PrintToEPKDsPSo
FN:447,447,_ZN7testing8internal7PrintToEPKDiPSo
FN:457,457,_ZN7testing8internal7PrintToEPKwPSo
FN:462,479,_ZN7testing8internal12_GLOBAL__N_131ContainsUnprintableControlCodesEPKcm
FN:481,481,_ZN7testing8internal12_GLOBAL__N_115IsUTF8TrailByteEh
FN:483,514,_ZN7testing8internal12_GLOBAL__N_111IsValidUTF8EPKcm
FN:516,521,_ZN7testing8internal12_GLOBAL__N_122ConditionalPrintAsTextEPKcmPSo
FN:525,531,_ZN7testing8internal13PrintStringToERKNSt7__cxx1112basic_stringIcSt11char_traitsIcESaIcEEEPSo
FN:534,536,_ZN7testing8internal15PrintU8StringToERKNSt7__cxx1112basic_stringIDuSt11char_traitsIDuESaIDuEEEPSo
FN:539,541,_ZN7testing8internal16PrintU16StringToERKNSt7__cxx1112basic_stringIDsSt11char_traitsIDsESaIDsEEEPSo
FN:543,545,_ZN7testing8internal16PrintU32StringToERKNSt7__cxx1112basic_stringIDiSt11char_traitsIDiESaIDiEEEPSo
FN:548,550,_ZN7testing8internal17PrintWideStringToERKNSt7__cxx1112basic_stringIwSt11char_traitsIwESaIwEEEPSo
FN:70,86,_ZN7testing12_GLOBAL__N_126PrintByteSegmentInObjectToEPKhmmPSo
FN:89,109,_ZN7testing12_GLOBAL__N_124PrintBytesInObjectToImplEPKhmPSo
FNDA:0,_ZN7testing12_GLOBAL__N_18ToChar32IDiEEDiT_
FNDA:0,_ZN7testing12_GLOBAL__N_18ToChar32IDsEEDiT_
FNDA:0,_ZN7testing12_GLOBAL__N_18ToChar32IDuEEDiT_
FNDA:0,_ZN7testing12_GLOBAL__N_18ToChar32IaEEDiT_
FNDA:0,_ZN7testing12_GLOBAL__N_18ToChar32IcEEDiT_
FNDA:0,_ZN7testing12_GLOBAL__N_18ToChar32IhEEDiT_
FNDA:0,_ZN7testing12_GLOBAL__N_18ToChar32IwEEDiT_
FNDA:0,_ZN7testing8internal20PrintBytesInObjectToEPKhmPSo
FNDA:0,_ZN7testing8internal16IsPrintableAsciiEDi
FNDA:0,_ZN7testing8internalL20PrintAsCharLiteralToIDiEENS0_10CharFormatET_PSo
FNDA:0,_ZN7testing8internalL20PrintAsCharLiteralToIaEENS0_10CharFormatET_PSo
FNDA:0,_ZN7testing8internalL20PrintAsCharLiteralToIhEENS0_10CharFormatET_PSo
FNDA:0,_ZN7testing8internalL20PrintAsCharLiteralToIwEENS0_10CharFormatET_PSo
FNDA:0,_ZN7testing8internalL22PrintAsStringLiteralToEDiPSo
FNDA:0,_ZN7testing8internalL18GetCharWidthPrefixEc
FNDA:0,_ZN7testing8internalL18GetCharWidthPrefixEa
FNDA:0,_ZN7testing8internalL18GetCharWidthPrefixEh
FNDA:0,_ZN7testing8internalL18GetCharWidthPrefixEDu
FNDA:0,_ZN7testing8internalL18GetCharWidthPrefixEDs
FNDA:0,_ZN7testing8internalL18GetCharWidthPrefixEDi
FNDA:0,_ZN7testing8internalL18GetCharWidthPrefixEw
FNDA:0,_ZN7testing8internalL22PrintAsStringLiteralToEcPSo
FNDA:0,_ZN7testing8internalL22PrintAsStringLiteralToEDuPSo
FNDA:0,_ZN7testing8internalL22PrintAsStringLiteralToEDsPSo
FNDA:0,_ZN7testing8internalL22PrintAsStringLiteralToEwPSo
FNDA:0,_ZN7testing8internal18PrintCharAndCodeToIaEEvT_PSo
FNDA:0,_ZN7testing8internal18PrintCharAndCodeToIhEEvT_PSo
FNDA:0,_ZN7testing8internal18PrintCharAndCodeToIwEEvT_PSo
FNDA:0,_ZN7testing8internal7PrintToEhPSo
FNDA:0,_ZN7testing8internal7PrintToEaPSo
FNDA:0,_ZN7testing8internal7PrintToEwPSo
FNDA:0,_ZN7testing8internal7PrintToEDiPSo
FNDA:0,_ZN7testing8internal7PrintToEoPSo
FNDA:0,_ZN7testing8internal7PrintToEnPSo
FNDA:0,_ZN7testing8internalL20PrintCharsAsStringToIDiEENS0_10CharFormatEPKT_mPSo
FNDA:0,_ZN7testing8internalL20PrintCharsAsStringToIDsEENS0_10CharFormatEPKT_mPSo
FNDA:0,_ZN7testing8internalL20PrintCharsAsStringToIDuEENS0_10CharFormatEPKT_mPSo
FNDA:0,_ZN7testing8internalL20PrintCharsAsStringToIcEENS0_10CharFormatEPKT_mPSo
FNDA:0,_ZN7testing8internalL20PrintCharsAsStringToIwEENS0_10CharFormatEPKT_mPSo
FNDA:0,_ZN7testing8internalL23UniversalPrintCharArrayIDiEEvPKT_mPSo
FNDA:0,_ZN7testing8internalL23UniversalPrintCharArrayIDsEEvPKT_mPSo
FNDA:0,_ZN7testing8internalL23UniversalPrintCharArrayIDuEEvPKT_mPSo
FNDA:0,_ZN7testing8internalL23UniversalPrintCharArrayIcEEvPKT_mPSo
FNDA:0,_ZN7testing8internalL23UniversalPrintCharArrayIwEEvPKT_mPSo
FNDA:0,_ZN7testing8internal19UniversalPrintArrayEPKcmPSo
FNDA:0,_ZN7testing8internal19UniversalPrintArrayEPKDumPSo
FNDA:0,_ZN7testing8internal19UniversalPrintArrayEPKDsmPSo
FNDA:0,_ZN7testing8internal19UniversalPrintArrayEPKDimPSo
FNDA:0,_ZN7testing8internal19UniversalPrintArrayEPKwmPSo
FNDA:0,_ZN7testing8internal12_GLOBAL__N_114PrintCStringToIDiEEvPKT_PSo
FNDA:0,_ZN7testing8internal12_GLOBAL__N_114PrintCStringToIDsEEvPKT_PSo
FNDA:0,_ZN7testing8internal12_GLOBAL__N_114PrintCStringToIDuEEvPKT_PSo
FNDA:0,_ZN7testing8internal12_GLOBAL__N_114PrintCStringToIcEEvPKT_PSo
FNDA:0,_ZN7testing8internal12_GLOBAL__N_114PrintCStringToIwEEvPKT_PSo
FNDA:0,_ZN7testing8internal7PrintToEPKcPSo
FNDA:0,_ZN7testing8internal7PrintToEPKDuPSo
FNDA:0,_ZN7testing8internal7PrintToEPKDsPSo
FNDA:0,_ZN7testing8internal7PrintToEPKDiPSo
FNDA:0,_ZN7testing8internal7PrintToEPKwPSo
FNDA:0,_ZN7testing8internal12_GLOBAL__N_131ContainsUnprintableControlCodesEPKcm
FNDA:0,_ZN7testing8internal12_GLOBAL__N_115IsUTF8TrailByteEh
FNDA:0,_ZN7testing8internal12_GLOBAL__N_111IsValidUTF8EPKcm
FNDA:0,_ZN7testing8internal12_GLOBAL__N_122ConditionalPrintAsTextEPKcmPSo
FNDA:0,_ZN7testing8internal13PrintStringToERKNSt7__cxx1112basic_stringIcSt11char_traitsIcESaIcEEEPSo
FNDA:0,_ZN7testing8internal15PrintU8StringToERKNSt7__cxx1112basic_stringIDuSt11char_traitsIDuESaIDuEEEPSo
FNDA:0,_ZN7testing8internal16PrintU16StringToERKNSt7__cxx1112basic_stringIDsSt11char_traitsIDsESaIDsEEEPSo
FNDA:0,_ZN7testing8internal16PrintU32StringToERKNSt7__cxx1112basic_stringIDiSt11char_traitsIDiESaIDiEEEPSo
FNDA:0,_ZN7testing8internal17PrintWideStringToERKNSt7__cxx1112basic_stringIwSt11char_traitsIwESaIwEEEPSo
FNDA:0,_ZN7testing12_GLOBAL__N_126PrintByteSegmentInObjectToEPKhmmPSo
FNDA:0,_ZN7testing12_GLOBAL__N_124PrintBytesInObjectToImplEPKhmPSo
FNF:70
FNH:0
DA:70,0
DA:72,0
DA:73,0
DA:74,0
DA:75,0
DA:78,0
DA:79,0
DA:81,0
DA:83,0
DA:84,0
DA:86,0
DA:89,0
DA:92,0
DA:94,0
DA:95,0
DA:99,0
DA:100,0
DA:102,0
DA:103,0
DA:105,0
DA:106,0
DA:108,0
DA:109,0
DA:116,0
DA:118,0
DA:130,0
DA:132,0
DA:133,0
DA:145,0
DA:151,0
DA:152,0
DA:153,0
DA:154,0
DA:155,0
DA:156,0
DA:157,0
DA:158,0
DA:159,0
DA:160,0
DA:161,0
DA:162,0
DA:163,0
DA:164,0
DA:165,0
DA:166,0
DA:167,0
DA:168,0
DA:169,0
DA:170,0
DA:171,0
DA:172,0
DA:173,0
DA:174,0
DA:175,0
DA:176,0
DA:177,0
DA:178,0
DA:179,0
DA:180,0
DA:181,0
DA:182,0
DA:183,0
DA:184,0
DA:185,0
DA:186,0
DA:187,0
DA:189,0
DA:190,0
DA:191,0
DA:192,0
DA:195,0
DA:200,0
DA:201,0
DA:202,0
DA:203,0
DA:204,0
DA:205,0
DA:206,0
DA:207,0
DA:208,0
DA:209,0
DA:213,0
DA:215,0
DA:217,0
DA:220,0
DA:223,0
DA:225,0
DA:227,0
DA:231,0
DA:232,0
DA:236,0
DA:237,0
DA:241,0
DA:242,0
DA:245,0
DA:246,0
DA:253,0
DA:255,0
DA:256,0
DA:257,0
DA:262,0
DA:263,0
DA:268,0
DA:271,0
DA:273,0
DA:276,0
DA:277,0
DA:281,0
DA:284,0
DA:285,0
DA:286,0
DA:287,0
DA:291,0
DA:292,0
DA:293,0
DA:294,0
DA:298,0
DA:299,0
DA:304,0
DA:305,0
DA:307,0
DA:308,0
DA:309,0
DA:310,0
DA:316,0
DA:317,0
DA:319,0
DA:320,0
DA:322,0
DA:324,0
DA:325,0
DA:326,0
DA:327,0
DA:328,0
DA:330,0
DA:331,0
DA:342,0
DA:343,0
DA:344,0
DA:345,0
DA:346,0
DA:347,0
DA:348,0
DA:349,0
DA:353,0
DA:355,0
DA:357,0
DA:358,0
DA:361,0
DA:362,0
DA:371,0
DA:380,0
DA:381,0
DA:382,0
DA:389,0
DA:390,0
DA:394,0
DA:395,0
DA:396,0
DA:401,0
DA:402,0
DA:403,0
DA:408,0
DA:409,0
DA:410,0
DA:414,0
DA:415,0
DA:416,0
DA:420,0
DA:421,0
DA:422,0
DA:428,0
DA:429,0
DA:430,0
DA:432,0
DA:433,0
DA:435,0
DA:439,0
DA:442,0
DA:445,0
DA:447,0
DA:457,0
DA:462,0
DA:463,0
DA:465,0
DA:466,0
DA:467,0
DA:468,0
DA:469,0
DA:472,0
DA:473,0
DA:474,0
DA:478,0
DA:481,0
DA:483,0
DA:484,0
DA:486,0
DA:487,0
DA:489,0
DA:490,0
DA:492,0
DA:493,0
DA:494,0
DA:495,0
DA:496,0
DA:497,0
DA:499,0
DA:500,0
DA:501,0
DA:502,0
DA:503,0
DA:504,0
DA:506,0
DA:507,0
DA:508,0
DA:510,0
DA:513,0
DA:516,0
DA:517,0
DA:518,0
DA:519,0
DA:521,0
DA:525,0
DA:526,0
DA:527,0
DA:528,0
DA:531,0
DA:534,0
DA:535,0
DA:536,0
DA:539,0
DA:540,0
DA:541,0
DA:543,0
DA:544,0
DA:545,0
DA:548,0
DA:549,0
DA:550,0
LF:239
LH:0
end_of_record
TN:
SF:/mnt/c/users/t470/desktop/funda/lab11/project2/build/_deps/googletest-src/googletest/src/gtest-test-part.cc
FN:45,48,_ZN7testing14TestPartResult14ExtractSummaryB5cxx11EPKc
FN:51,62,_ZN7testinglsERSoRKNS_14TestPartResultE
FN:65,67,_ZN7testing19TestPartResultArray6AppendERKNS_14TestPartResultE
FN:70,77,_ZNK7testing19TestPartResultArray17GetTestPartResultEi
FN:80,82,_ZNK7testing19TestPartResultArray4sizeEv
FN:86,91,_ZN7testing8internal24HasNewFatalFailureHelperC2Ev
FN:93,96,_ZN7testing8internal24HasNewFatalFailureHelperD0Ev
FN:93,96,_ZN7testing8internal24HasNewFatalFailureHelperD2Ev
FN:98,102,_ZN7testing8internal24HasNewFatalFailureHelper20ReportTestPartResultERKNS_14TestPartResultE
FNDA:0,_ZN7testing14TestPartResult14ExtractSummaryB5cxx11EPKc
FNDA:0,_ZN7testinglsERSoRKNS_14TestPartResultE
FNDA:0,_ZN7testing19TestPartResultArray6AppendERKNS_14TestPartResultE
FNDA:0,_ZNK7testing19TestPartResultArray17GetTestPartResultEi
FNDA:0,_ZNK7testing19TestPartResultArray4sizeEv
FNDA:0,_ZN7testing8internal24HasNewFatalFailureHelperC2Ev
FNDA:0,_ZN7testing8internal24HasNewFatalFailureHelperD0Ev
FNDA:0,_ZN7testing8internal24HasNewFatalFailureHelperD2Ev
FNDA:0,_ZN7testing8internal24HasNewFatalFailureHelper20ReportTestPartResultERKNS_14TestPartResultE
FNF:9
FNH:0
DA:45,0
DA:46,0
DA:47,0
DA:51,0
DA:52,0
DA:55,0
DA:56,0
DA:57,0
DA:58,0
DA:61,0
DA:65,0
DA:66,0
DA:67,0
DA:70,0
DA:71,0
DA:72,0
DA:73,0
DA:76,0
DA:80,0
DA:81,0
DA:86,0
DA:87,0
DA:88,0
DA:89,0
DA:90,0
DA:91,0
DA:93,0
DA:94,0
DA:96,0
DA:98,0
DA:100,0
DA:101,0
DA:102,0
LF:33
LH:0
end_of_record
TN:
SF:/mnt/c/users/t470/desktop/funda/lab11/project2/build/_deps/googletest-src/googletest/src/gtest-typed-test.cc
FN:43,46,_ZN7testing8internalL10SkipSpacesEPKc
FN:48,55,_ZN7testing8internalL18SplitIntoTestNamesEPKc
FN:60,105,_ZN7testing8internal20TypedTestSuitePState25VerifyRegisteredTestNamesEPKcS3_iS3_
FNDA:0,_ZN7testing8internalL10SkipSpacesEPKc
FNDA:0,_ZN7testing8internalL18SplitIntoTestNamesEPKc
FNDA:0,_ZN7testing8internal20TypedTestSuitePState25VerifyRegisteredTestNamesEPKcS3_iS3_
FNF:3
FNH:0
DA:43,0
DA:44,0
DA:45,0
DA:48,0
DA:49,0
DA:50,0
DA:51,0
DA:52,0
DA:54,0
DA:55,0
DA:60,0
DA:63,0
DA:66,0
DA:68,0
DA:70,0
DA:72,0
DA:73,0
DA:74,0
DA:75,0
DA:76,0
DA:77,0
DA:78,0
DA:81,0
DA:82,0
DA:84,0
DA:85,0
DA:89,0
DA:90,0
DA:91,0
DA:92,0
DA:96,0
DA:97,0
DA:98,0
DA:100,0
DA:101,0
DA:104,0
DA:105,0
LF:37
LH:0
end_of_record
TN:
SF:/mnt/c/users/t470/desktop/funda/lab11/project2/build/_deps/googletest-src/googletest/src/gtest.cc
FN:1010,1013,_ZN7testing8internal20SingleFailureCheckerC2EPKNS_19TestPartResultArrayENS_14TestPartResult4TypeERKNSt7__cxx1112basic_stringIcSt11char_traitsIcESaIcEEE
FN:1019,1021,_ZN7testing8internal20SingleFailureCheckerD2Ev
FN:1023,1025,_ZN7testing8internal35DefaultGlobalTestPartResultReporterC2EPNS0_12UnitTestImplE
FN:1027,1031,_ZN7testing8internal35DefaultGlobalTestPartResultReporter20ReportTestPartResultERKNS_14TestPartResultE
FN:1033,1035,_ZN7testing8internal38DefaultPerThreadTestPartResultReporterC2EPNS0_12UnitTestImplE
FN:1037,1040,_ZN7testing8internal38DefaultPerThreadTestPartResultReporter20ReportTestPartResultERKNS_14TestPartResultE
FN:1044,1047,_ZN7testing8internal12UnitTestImpl31GetGlobalTestPartResultReporterEv
FN:1050,1054,_ZN7testing8internal12UnitTestImpl31SetGlobalTestPartResultReporterEPNS_31TestPartResultReporterInterfaceE
FN:1058,1060,_ZN7testing8internal12UnitTestImpl41GetTestPartResultReporterForCurrentThreadEv
FN:1063,1066,_ZN7testing8internal12UnitTestImpl41SetTestPartResultReporterForCurrentThreadEPNS_31TestPartResultReporterInterfaceE
FN:1069,1071,_ZNK7testing8internal12UnitTestImpl27successful_test_suite_countEv
FN:1074,1076,_ZNK7testing8internal12UnitTestImpl23failed_test_suite_countEv
FN:1079,1081,_ZNK7testing8internal12UnitTestImpl22total_test_suite_countEv
FN:1085,1087,_ZNK7testing8internal12UnitTestImpl23test_suite_to_run_countEv
FN:1090,1092,_ZNK7testing8internal12UnitTestImpl21successful_test_countEv
FN:1095,1097,_ZNK7testing8internal12UnitTestImpl18skipped_test_countEv
FN:1100,1102,_ZNK7testing8internal12UnitTestImpl17failed_test_countEv
FN:1105,1108,_ZNK7testing8internal12UnitTestImpl30reportable_disabled_test_countEv
FN:1111,1113,_ZNK7testing8internal12UnitTestImpl19disabled_test_countEv
FN:1116,1118,_ZNK7testing8internal12UnitTestImpl21reportable_test_countEv
FN:1121,1123,_ZNK7testing8internal12UnitTestImpl16total_test_countEv
FN:1126,1128,_ZNK7testing8internal12UnitTestImpl17test_to_run_countEv
FN:1140,1146,_ZN7testing8internal12UnitTestImpl28CurrentOsStackTraceExceptTopB5cxx11Ei
FN:1151,1151,_ZN7testing8internal5TimerC2Ev
FN:1154,1158,_ZN7testing8internal5Timer7ElapsedEv
FN:1174,1179,_ZN7testing8internal15GetTimeInMillisEv
FN:1224,1230,_ZN7testing8internal6String13CStringEqualsEPKcS3_
FN:1236,1247,_ZN7testing8internalL24StreamWideCharsToMessageEPKwmPNS_7MessageE
FN:1251,1266,_ZN7testing8internal11SplitStringERKNSt7__cxx1112basic_stringIcSt11char_traitsIcESaIcEEEcPSt6vectorIS6_SaIS6_EE
FN:1275,1279,_ZN7testing7MessageC2Ev
FN:1283,1285,_ZN7testing7MessagelsEPKw
FN:1286,1288,_ZN7testing7MessagelsEPw
FN:1293,1296,_ZN7testing7MessagelsERKNSt7__cxx1112basic_stringIwSt11char_traitsIwESaIwEEE
FN:1301,1303,_ZNK7testing7Message9GetStringB5cxx11Ev
FN:1308,1363,_ZN7testing8internal13edit_distance21CalculateOptimalEditsERKSt6vectorImSaImEES6_
FN:1370,1375,_ZN7testing8internal13edit_distance12_GLOBAL__N_115InternalStrings5GetIdERKNSt7__cxx1112basic_stringIcSt11char_traitsIcESaIcEEE
FN:1384,1398,_ZN7testing8internal13edit_distance21CalculateOptimalEditsERKSt6vectorINSt7__cxx1112basic_stringIcSt11char_traitsIcESaIcEEESaIS8_EESC_
FN:1408,1413,_ZN7testing8internal13edit_distance12_GLOBAL__N_14HunkC2Emm
FN:1415,1431,_ZN7testing8internal13edit_distance12_GLOBAL__N_14Hunk8PushLineEcPKc
FN:1433,1441,_ZN7testing8internal13edit_distance12_GLOBAL__N_14Hunk7PrintToEPSo
FN:1443,1443,_ZNK7testing8internal13edit_distance12_GLOBAL__N_14Hunk9has_editsEv
FN:1446,1449,_ZN7testing8internal13edit_distance12_GLOBAL__N_14Hunk10FlushEditsEv
FN:1455,1467,_ZNK7testing8internal13edit_distance12_GLOBAL__N_14Hunk11PrintHeaderEPSo
FN:1483,1544,_ZN7testing8internal13edit_distance17CreateUnifiedDiffERKSt6vectorINSt7__cxx1112basic_stringIcSt11char_traitsIcESaIcEEESaIS8_EESC_m
FN:1553,1574,_ZN7testing8internal12_GLOBAL__N_118SplitEscapedStringERKNSt7__cxx1112basic_stringIcSt11char_traitsIcESaIcEEE
FN:1593,1622,_ZN7testing8internal9EqFailureEPKcS2_RKNSt7__cxx1112basic_stringIcSt11char_traitsIcESaIcEEESA_b
FN:1625,1635,_ZN7testing8internal30GetBoolAssertionFailureMessageB5cxx11ERKNS_15AssertionResultEPKcS5_S5_
FN:1638,1675,_ZN7testing8internal20DoubleNearPredFormatEPKcS2_S2_ddd
FN:1679,1708,_ZN7testing8internal15FloatingPointLEIdEENS_15AssertionResultEPKcS4_T_S5_
FN:1679,1708,_ZN7testing8internal15FloatingPointLEIfEENS_15AssertionResultEPKcS4_T_S5_
FN:1714,1717,_ZN7testing7FloatLEEPKcS1_ff
FN:1721,1724,_ZN7testing8DoubleLEEPKcS1_dd
FN:1729,1738,_ZN7testing8internal14CmpHelperSTREQEPKcS2_S2_S2_
FN:1741,1750,_ZN7testing8internal18CmpHelperSTRCASEEQEPKcS2_S2_S2_
FN:1753,1763,_ZN7testing8internal14CmpHelperSTRNEEPKcS2_S2_S2_
FN:1766,1776,_ZN7testing8internal18CmpHelperSTRCASENEEPKcS2_S2_S2_
FN:1788,1792,_ZN7testing12_GLOBAL__N_115IsSubstringPredEPKcS2_
FN:1794,1798,_ZN7testing12_GLOBAL__N_115IsSubstringPredEPKwS2_
FN:1802,1804,_ZN7testing12_GLOBAL__N_115IsSubstringPredINSt7__cxx1112basic_stringIcSt11char_traitsIcESaIcEEEEEbRKT_SA_
FN:1802,1804,_ZN7testing12_GLOBAL__N_115IsSubstringPredINSt7__cxx1112basic_stringIwSt11char_traitsIwESaIwEEEEEbRKT_SA_
FN:1811,1827,_ZN7testing12_GLOBAL__N_115IsSubstringImplINSt7__cxx1112basic_stringIcSt11char_traitsIcESaIcEEEEENS_15AssertionResultEbPKcSA_RKT_SD_
FN:1811,1827,_ZN7testing12_GLOBAL__N_115IsSubstringImplINSt7__cxx1112basic_stringIwSt11char_traitsIwESaIwEEEEENS_15AssertionResultEbPKcSA_RKT_SD_
FN:1811,1827,_ZN7testing12_GLOBAL__N_115IsSubstringImplIPKcEENS_15AssertionResultEbS3_S3_RKT_S7_
FN:1811,1827,_ZN7testing12_GLOBAL__N_115IsSubstringImplIPKwEENS_15AssertionResultEbPKcS6_RKT_S9_
FN:1835,1838,_ZN7testing11IsSubstringEPKcS1_S1_S1_
FN:1840,1843,_ZN7testing11IsSubstringEPKcS1_PKwS3_
FN:1845,1849,_ZN7testing14IsNotSubstringEPKcS1_S1_S1_
FN:1851,1855,_ZN7testing14IsNotSubstringEPKcS1_PKwS3_
FN:1857,1861,_ZN7testing11IsSubstringEPKcS1_RKNSt7__cxx1112basic_stringIcSt11char_traitsIcESaIcEEES9_
FN:1863,1868,_ZN7testing14IsNotSubstringEPKcS1_RKNSt7__cxx1112basic_stringIcSt11char_traitsIcESaIcEEES9_
FN:1871,1875,_ZN7testing11IsSubstringEPKcS1_RKNSt7__cxx1112basic_stringIwSt11char_traitsIwESaIwEEES9_
FN:1877,1882,_ZN7testing14IsNotSubstringEPKcS1_RKNSt7__cxx1112basic_stringIwSt11char_traitsIwESaIwEEES9_
FN:1977,1981,_ZN7testing8internal11ChopLowBitsEPji
FN:1989,2015,_ZN7testing8internal15CodePointToUtf8B5cxx11Ej
FN:2024,2027,_ZN7testing8internal20IsUtf16SurrogatePairEww
FN:2030,2041,_ZN7testing8internal37CreateCodePointFromUtf16SurrogatePairEww
FN:2056,2076,_ZN7testing8internal16WideStringToUtf8B5cxx11EPKwi
FN:2080,2084,_ZN7testing8internal6String15ShowWideCStringB5cxx11EPKw
FN:209,221,_ZN7testing8internalL18OpenFileForWritingERKNSt7__cxx1112basic_stringIcSt11char_traitsIcESaIcEEE
FN:2092,2098,_ZN7testing8internal6String17WideCStringEqualsEPKwS3_
FN:2101,2110,_ZN7testing8internal14CmpHelperSTREQEPKcS2_PKwS4_
FN:2113,2123,_ZN7testing8internal14CmpHelperSTRNEEPKcS2_PKwS4_
FN:2131,2135,_ZN7testing8internal6String28CaseInsensitiveCStringEqualsEPKcS3_
FN:2149,2169,_ZN7testing8internal6String32CaseInsensitiveWideCStringEqualsEPKwS3_
FN:2173,2180,_ZN7testing8internal6String23EndsWithCaseInsensitiveERKNSt7__cxx1112basic_stringIcSt11char_traitsIcESaIcEEES9_
FN:2183,2185,_ZN7testing8internal6String15FormatIntWidth2B5cxx11Ei
FN:2188,2192,_ZN7testing8internal6String15FormatIntWidthNB5cxx11Eii
FN:2195,2199,_ZN7testing8internal6String15FormatHexUInt32B5cxx11Ej
FN:2202,2204,_ZN7testing8internal6String12FormatHexIntB5cxx11Ei
FN:2207,2212,_ZN7testing8internal6String10FormatByteB5cxx11Eh
FN:2216,2232,_ZN7testing8internal20StringStreamToStringEPNSt7__cxx1118basic_stringstreamIcSt11char_traitsIcESaIcEEE
FN:2235,2246,_ZN7testing8internal17AppendUserMessageERKNSt7__cxx1112basic_stringIcSt11char_traitsIcESaIcEEERKNS_7MessageE
FN:2253,2254,_ZN7testing10TestResultC2Ev
FN:2257,2257,_ZN7testing10TestResultD2Ev
FN:2262,2265,_ZNK7testing10TestResult17GetTestPartResultEi
FN:2270,2273,_ZNK7testing10TestResult15GetTestPropertyEi
FN:2276,2276,_ZN7testing10TestResult20ClearTestPartResultsEv
FN:2279,2281,_ZN7testing10TestResult17AddTestPartResultERKNS_14TestPartResultE
FN:228,235,_ZN7testingL16GetDefaultFilterEv
FN:2286,2300,_ZN7testing10TestResult14RecordPropertyERKNSt7__cxx1112basic_stringIcSt11char_traitsIcESaIcEEERKNS_12TestPropertyE
FN:2326,2328,_ZN7testing13ArrayAsVectorILm10EEESt6vectorINSt7__cxx1112basic_stringIcSt11char_traitsIcESaIcEEESaIS7_EERAT__KPKc
FN:2326,2328,_ZN7testing13ArrayAsVectorILm8EEESt6vectorINSt7__cxx1112basic_stringIcSt11char_traitsIcESaIcEEESaIS7_EERAT__KPKc
FN:2330,2343,_ZN7testingL31GetReservedAttributesForElementERKNSt7__cxx1112basic_stringIcSt11char_traitsIcESaIcEEE
FN:2348,2361,_ZN7testingL37GetReservedOutputAttributesForElementERKNSt7__cxx1112basic_stringIcSt11char_traitsIcESaIcEEE
FN:2364,2376,_ZN7testingL14FormatWordListERKSt6vectorINSt7__cxx1112basic_stringIcSt11char_traitsIcESaIcEEESaIS6_EE
FN:2378,2389,_ZN7testingL24ValidateTestPropertyNameERKNSt7__cxx1112basic_stringIcSt11char_traitsIcESaIcEEERKSt6vectorIS5_SaIS5_EE
FN:239,246,_ZN7testingL18GetDefaultFailFastEv
FN:2393,2397,_ZN7testing10TestResult20ValidateTestPropertyERKNSt7__cxx1112basic_stringIcSt11char_traitsIcESaIcEEERKNS_12TestPropertyE
FN:2400,2405,_ZN7testing10TestResult5ClearEv
FN:2408,2410,_ZN7testingL15TestPartSkippedERKNS_14TestPartResultE
FN:2413,2415,_ZNK7testing10TestResult7SkippedEv
FN:2418,2423,_ZNK7testing10TestResult6FailedEv
FN:2426,2428,_ZN7testingL21TestPartFatallyFailedERKNS_14TestPartResultE
FN:2431,2433,_ZNK7testing10TestResult15HasFatalFailureEv
FN:2436,2438,_ZN7testingL24TestPartNonfatallyFailedERKNS_14TestPartResultE
FN:2441,2443,_ZNK7testing10TestResult18HasNonfatalFailureEv
FN:2447,2449,_ZNK7testing10TestResult16total_part_countEv
FN:2452,2454,_ZNK7testing10TestResult19test_property_countEv
FN:2461,2461,_ZN7testing4TestC2Ev
FN:2466,2466,_ZN7testing4TestD0Ev
FN:2466,2466,_ZN7testing4TestD2Ev
FN:2471,2471,_ZN7testing4Test5SetUpEv
FN:2476,2476,_ZN7testing4Test8TearDownEv
FN:2479,2481,_ZN7testing4Test14RecordPropertyERKNSt7__cxx1112basic_stringIcSt11char_traitsIcESaIcEEES8_
FN:2485,2495,_ZN7testing8internal30ReportFailureInUnknownLocationENS_14TestPartResult4TypeERKNSt7__cxx1112basic_stringIcSt11char_traitsIcESaIcEEE
FN:2504,2563,_ZN7testing4Test19HasSameFixtureClassEv
FN:2570,2581,_ZN7testing8internalL25FormatCxxExceptionMessageEPKcS2_
FN:2586,2588,_ZN7testing8internal26GoogleTestFailureExceptionC2ERKNS_14TestPartResultE
FN:2601,2614,_ZN7testing8internal38HandleSehExceptionsInMethodIfSupportedINS0_12UnitTestImplEbEET0_PT_MS4_FS3_vEPKc
FN:2601,2614,_ZN7testing8internal38HandleSehExceptionsInMethodIfSupportedINS0_15TestFactoryBaseEPNS_4TestEEET0_PT_MS6_FS5_vEPKc
FN:2601,2614,_ZN7testing8internal38HandleSehExceptionsInMethodIfSupportedINS_4TestEvEET0_PT_MS4_FS3_vEPKc
FN:2601,2614,_ZN7testing8internal38HandleSehExceptionsInMethodIfSupportedINS_9TestSuiteEvEET0_PT_MS4_FS3_vEPKc
FN:2620,2672,_ZN7testing8internal35HandleExceptionsInMethodIfSupportedINS0_12UnitTestImplEbEET0_PT_MS4_FS3_vEPKc
FN:2620,2672,_ZN7testing8internal35HandleExceptionsInMethodIfSupportedINS0_15TestFactoryBaseEPNS_4TestEEET0_PT_MS6_FS5_vEPKc
FN:2620,2672,_ZN7testing8internal35HandleExceptionsInMethodIfSupportedINS_4TestEvEET0_PT_MS4_FS3_vEPKc
FN:2620,2672,_ZN7testing8internal35HandleExceptionsInMethodIfSupportedINS_9TestSuiteEvEET0_PT_MS4_FS3_vEPKc
FN:2677,2697,_ZN7testing4Test3RunEv
FN:2700,2702,_ZN7testing4Test15HasFatalFailureEv
FN:2705,2709,_ZN7testing4Test18HasNonfatalFailureEv
FN:2712,2714,_ZN7testing4Test9IsSkippedEv
FN:2720,2738,_ZN7testing8TestInfoC2ERKNSt7__cxx1112basic_stringIcSt11char_traitsIcESaIcEEES8_PKcSA_NS_8internal12CodeLocationEPKvPNSB_15TestFactoryBaseE
FN:2741,2741,_ZN7testing8TestInfoD2Ev
FN:2763,2773,_ZN7testing8internal23MakeAndRegisterTestInfoEPKcS2_S2_S2_NS0_12CodeLocationEPKvPFvvES7_PNS0_15TestFactoryBaseE
FN:2775,2791,_ZN7testing8internal26ReportInvalidTestSuiteTypeEPKcNS0_12CodeLocationE
FN:2796,2802,_ZN7testing8internal12UnitTestImpl26RegisterParameterizedTestsEv
FN:2808,2854,_ZN7testing8TestInfo3RunEv
FN:2857,2876,_ZN7testing8TestInfo4SkipEv
FN:2881,2883,_ZNK7testing9TestSuite21successful_test_countEv
FN:2886,2888,_ZNK7testing9TestSuite18skipped_test_countEv
FN:2891,2893,_ZNK7testing9TestSuite17failed_test_countEv
FN:2896,2898,_ZNK7testing9TestSuite30reportable_disabled_test_countEv
FN:2901,2903,_ZNK7testing9TestSuite19disabled_test_countEv
FN:2906,2908,_ZNK7testing9TestSuite21reportable_test_countEv
FN:2911,2913,_ZNK7testing9TestSuite17test_to_run_countEv
FN:2916,2918,_ZNK7testing9TestSuite16total_test_countEv
FN:2929,2938,_ZN7testing9TestSuiteC2EPKcS2_PFvvES4_
FN:2941,2944,_ZN7testing9TestSuiteD0Ev
FN:2941,2944,_ZN7testing9TestSuiteD2Ev
FN:2948,2951,_ZNK7testing9TestSuite11GetTestInfoEi
FN:2955,2958,_ZN7testing9TestSuite18GetMutableTestInfoEi
FN:2962,2965,_ZN7testing9TestSuite11AddTestInfoEPNS_8TestInfoE
FN:2968,3039,_ZN7testing9TestSuite3RunEv
FN:2987,2993,_ZZN7testing9TestSuite3RunEvENKUlPKNS_8TestInfoES3_E_clES3_S3_
FN:3042,3069,_ZN7testing9TestSuite4SkipEv
FN:3072,3075,_ZN7testing9TestSuite11ClearResultEv
FN:3078,3080,_ZN7testing9TestSuite12ShuffleTestsEPNS_8internal6RandomE
FN:3083,3087,_ZN7testing9TestSuite14UnshuffleTestsEv
FN:3094,3098,_ZN7testingL19FormatCountableNounEiPKcS1_
FN:3101,3103,_ZN7testingL15FormatTestCountEi
FN:3106,3108,_ZN7testingL20FormatTestSuiteCountEi
FN:3114,3131,_ZN7testingL26TestPartResultTypeToStringENS_14TestPartResult4TypeE
FN:3139,3148,_ZN7testing8internalL27PrintTestPartResultToStringERKNS_14TestPartResultE
FN:3151,3166,_ZN7testing8internalL19PrintTestPartResultERKNS_14TestPartResultE
FN:3222,3233,_ZN7testing8internalL16GetAnsiColorCodeENS0_12_GLOBAL__N_110GTestColorE
FN:3238,3271,_ZN7testing8internal14ShouldUseColorEb
FN:3279,3326,_ZN7testing8internalL13ColoredPrintfENS0_12_GLOBAL__N_110GTestColorEPKcz
FN:3333,3347,_ZN7testing8internalL29PrintFullTestCommentIfPresentERKNS_8TestInfoE
FN:3354,3354,_ZN7testing8internal27PrettyUnitTestResultPrinterC2Ev
FN:3355,3357,_ZN7testing8internal27PrettyUnitTestResultPrinter13PrintTestNameEPKcS3_
FN:3360,3360,_ZN7testing8internal27PrettyUnitTestResultPrinter18OnTestProgramStartERKNS_8UnitTestE
FN:3363,3363,_ZN7testing8internal27PrettyUnitTestResultPrinter22OnEnvironmentsSetUpEndERKNS_8UnitTestE
FN:3382,3382,_ZN7testing8internal27PrettyUnitTestResultPrinter25OnEnvironmentsTearDownEndERKNS_8UnitTestE
FN:3384,3384,_ZN7testing8internal27PrettyUnitTestResultPrinter16OnTestProgramEndERKNS_8UnitTestE
FN:3393,3426,_ZN7testing8internal27PrettyUnitTestResultPrinter20OnTestIterationStartERKNS_8UnitTestEi
FN:3428,3433,_ZN7testing8internal27PrettyUnitTestResultPrinter24OnEnvironmentsSetUpStartERKNS_8UnitTestE
FN:3436,3447,_ZN7testing8internal27PrettyUnitTestResultPrinter15OnTestCaseStartERKNS_9TestSuiteE
FN:3464,3469,_ZN7testing8internal27PrettyUnitTestResultPrinter11OnTestStartERKNS_8TestInfoE
FN:3471,3476,_ZN7testing8internal27PrettyUnitTestResultPrinter14OnTestDisabledERKNS_8TestInfoE
FN:3479,3491,_ZN7testing8internal27PrettyUnitTestResultPrinter16OnTestPartResultERKNS_14TestPartResultE
FN:3493,3512,_ZN7testing8internal27PrettyUnitTestResultPrinter9OnTestEndERKNS_8TestInfoE
FN:3515,3524,_ZN7testing8internal27PrettyUnitTestResultPrinter13OnTestCaseEndERKNS_9TestSuiteE
FN:3538,3543,_ZN7testing8internal27PrettyUnitTestResultPrinter27OnEnvironmentsTearDownStartERKNS_8UnitTestE
FN:3546,3569,_ZN7testing8internal27PrettyUnitTestResultPrinter16PrintFailedTestsERKNS_8UnitTestE
FN:3573,3591,_ZN7testing8internal27PrettyUnitTestResultPrinter21PrintFailedTestSuitesERKNS_8UnitTestE
FN:3594,3615,_ZN7testing8internal27PrettyUnitTestResultPrinter17PrintSkippedTestsERKNS_8UnitTestE
FN:3617,3653,_ZN7testing8internal27PrettyUnitTestResultPrinter18OnTestIterationEndERKNS_8UnitTestEi
FN:3662,3662,_ZN7testing8internal26BriefUnitTestResultPrinterC2Ev
FN:3663,3665,_ZN7testing8internal26BriefUnitTestResultPrinter13PrintTestNameEPKcS3_
FN:3668,3668,_ZN7testing8internal26BriefUnitTestResultPrinter18OnTestProgramStartERKNS_8UnitTestE
FN:3669,3670,_ZN7testing8internal26BriefUnitTestResultPrinter20OnTestIterationStartERKNS_8UnitTestEi
FN:3671,3671,_ZN7testing8internal26BriefUnitTestResultPrinter24OnEnvironmentsSetUpStartERKNS_8UnitTestE
FN:3672,3672,_ZN7testing8internal26BriefUnitTestResultPrinter22OnEnvironmentsSetUpEndERKNS_8UnitTestE
FN:3674,3674,_ZN7testing8internal26BriefUnitTestResultPrinter15OnTestCaseStartERKNS_9TestSuiteE
FN:3679,3679,_ZN7testing8internal26BriefUnitTestResultPrinter11OnTestStartERKNS_8TestInfoE
FN:3680,3680,_ZN7testing8internal26BriefUnitTestResultPrinter14OnTestDisabledERKNS_8TestInfoE
FN:3685,3685,_ZN7testing8internal26BriefUnitTestResultPrinter13OnTestCaseEndERKNS_9TestSuiteE
FN:3690,3690,_ZN7testing8internal26BriefUnitTestResultPrinter27OnEnvironmentsTearDownStartERKNS_8UnitTestE
FN:3691,3691,_ZN7testing8internal26BriefUnitTestResultPrinter25OnEnvironmentsTearDownEndERKNS_8UnitTestE
FN:3693,3693,_ZN7testing8internal26BriefUnitTestResultPrinter16OnTestProgramEndERKNS_8UnitTestE
FN:3697,3709,_ZN7testing8internal26BriefUnitTestResultPrinter16OnTestPartResultERKNS_14TestPartResultE
FN:3711,3726,_ZN7testing8internal26BriefUnitTestResultPrinter9OnTestEndERKNS_8TestInfoE
FN:3728,3758,_ZN7testing8internal26BriefUnitTestResultPrinter18OnTestIterationEndERKNS_8UnitTestEi
FN:3767,3767,_ZN7testing8internal17TestEventRepeaterC2Ev
FN:3774,3774,_ZNK7testing8internal17TestEventRepeater18forwarding_enabledEv
FN:3775,3775,_ZN7testing8internal17TestEventRepeater22set_forwarding_enabledEb
FN:3811,3813,_ZN7testing8internal17TestEventRepeaterD0Ev
FN:3811,3813,_ZN7testing8internal17TestEventRepeaterD2Ev
FN:3815,3817,_ZN7testing8internal17TestEventRepeater6AppendEPNS_17TestEventListenerE
FN:3819,3828,_ZN7testing8internal17TestEventRepeater7ReleaseEPNS_17TestEventListenerE
FN:3851,3851,_ZN7testing8internal17TestEventRepeater18OnTestProgramStartERKNS_8UnitTestE
FN:3852,3852,_ZN7testing8internal17TestEventRepeater24OnEnvironmentsSetUpStartERKNS_8UnitTestE
FN:3855,3855,_ZN7testing8internal17TestEventRepeater15OnTestCaseStartERKNS_9TestSuiteE
FN:3857,3857,_ZN7testing8internal17TestEventRepeater16OnTestSuiteStartERKNS_9TestSuiteE
FN:3858,3858,_ZN7testing8internal17TestEventRepeater11OnTestStartERKNS_8TestInfoE
FN:3859,3859,_ZN7testing8internal17TestEventRepeater14OnTestDisabledERKNS_8TestInfoE
FN:3860,3860,_ZN7testing8internal17TestEventRepeater16OnTestPartResultERKNS_14TestPartResultE
FN:3861,3861,_ZN7testing8internal17TestEventRepeater27OnEnvironmentsTearDownStartERKNS_8UnitTestE
FN:3862,3862,_ZN7testing8internal17TestEventRepeater22OnEnvironmentsSetUpEndERKNS_8UnitTestE
FN:3863,3863,_ZN7testing8internal17TestEventRepeater25OnEnvironmentsTearDownEndERKNS_8UnitTestE
FN:3864,3864,_ZN7testing8internal17TestEventRepeater9OnTestEndERKNS_8TestInfoE
FN:3867,3867,_ZN7testing8internal17TestEventRepeater13OnTestCaseEndERKNS_9TestSuiteE
FN:3869,3869,_ZN7testing8internal17TestEventRepeater14OnTestSuiteEndERKNS_9TestSuiteE
FN:3870,3870,_ZN7testing8internal17TestEventRepeater16OnTestProgramEndERKNS_8UnitTestE
FN:3875,3882,_ZN7testing8internal17TestEventRepeater20OnTestIterationStartERKNS_8UnitTestEi
FN:3884,3891,_ZN7testing8internal17TestEventRepeater18OnTestIterationEndERKNS_8UnitTestEi
FN:3911,3913,_ZN7testing8internal24XmlUnitTestResultPrinter24IsNormalizableWhitespaceEh
FN:3917,3919,_ZN7testing8internal24XmlUnitTestResultPrinter19IsValidXmlCharacterEh
FN:3931,3933,_ZN7testing8internal24XmlUnitTestResultPrinter18EscapeXmlAttributeERKNSt7__cxx1112basic_stringIcSt11char_traitsIcESaIcEEE
FN:3992,3997,_ZN7testing8internal24XmlUnitTestResultPrinterC2EPKc
FN:400,414,_ZN7testing8internal6Random8GenerateEj
FN:4000,4007,_ZN7testing8internal24XmlUnitTestResultPrinter18OnTestIterationEndERKNS_8UnitTestEi
FN:4009,4016,_ZN7testing8internal24XmlUnitTestResultPrinter23ListTestsMatchingFilterERKSt6vectorIPNS_9TestSuiteESaIS4_EE
FN:4028,4070,_ZN7testing8internal24XmlUnitTestResultPrinter9EscapeXmlERKNSt7__cxx1112basic_stringIcSt11char_traitsIcESaIcEEEb
FN:4075,4084,_ZN7testing8internal24XmlUnitTestResultPrinter26RemoveInvalidXmlCharactersERKNSt7__cxx1112basic_stringIcSt11char_traitsIcESaIcEEE
FN:4103,4114,_ZN7testing8internal27FormatTimeInMillisAsSecondsB5cxx11El
FN:4116,4133,_ZN7testing8internalL17PortableLocaltimeElP2tm
FN:4137,4149,_ZN7testing8internal32FormatEpochTimeInMillisAsIso8601B5cxx11El
FN:4152,4169,_ZN7testing8internal24XmlUnitTestResultPrinter21OutputXmlCDataSectionEPSoPKc
FN:4171,4183,_ZN7testing8internal24XmlUnitTestResultPrinter18OutputXmlAttributeEPSoRKNSt7__cxx1112basic_stringIcSt11char_traitsIcESaIcEEESA_SA_
FN:4186,4220,_ZN7testing8internal24XmlUnitTestResultPrinter31OutputXmlTestSuiteForTestResultEPSoRKNS_10TestResultE
FN:419,419,_ZN7testing8internalL18GTestIsInitializedEv
FN:4223,4267,_ZN7testing8internal24XmlUnitTestResultPrinter17OutputXmlTestInfoEPSoPKcRKNS_8TestInfoE
FN:424,431,_ZN7testing8internalL20SumOverTestSuiteListERKSt6vectorIPNS_9TestSuiteESaIS3_EEMS2_KFivE
FN:4269,4313,_ZN7testing8internal24XmlUnitTestResultPrinter19OutputXmlTestResultEPSoRKNS_10TestResultE
FN:4316,4347,_ZN7testing8internal24XmlUnitTestResultPrinter17PrintXmlTestSuiteEPSoRKNS_9TestSuiteE
FN:434,436,_ZN7testing8internalL15TestSuitePassedEPKNS_9TestSuiteE
FN:4350,4392,_ZN7testing8internal24XmlUnitTestResultPrinter16PrintXmlUnitTestEPSoRKNS_8UnitTestE
FN:439,441,_ZN7testing8internalL15TestSuiteFailedEPKNS_9TestSuiteE
FN:4394,4414,_ZN7testing8internal24XmlUnitTestResultPrinter17PrintXmlTestsListEPSoRKSt6vectorIPNS_9TestSuiteESaIS5_EE
FN:4418,4427,_ZN7testing8internal24XmlUnitTestResultPrinter29TestPropertiesAsXmlAttributesB5cxx11ERKNS_10TestResultE
FN:4429,4447,_ZN7testing8internal24XmlUnitTestResultPrinter23OutputXmlTestPropertiesEPSoRKNS_10TestResultE
FN:445,447,_ZN7testing8internalL18ShouldRunTestSuiteEPKNS_9TestSuiteE
FN:450,452,_ZN7testing8internal12AssertHelperC2ENS_14TestPartResult4TypeEPKciS5_
FN:4516,4521,_ZN7testing8internal25JsonUnitTestResultPrinterC2EPKc
FN:4523,4530,_ZN7testing8internal25JsonUnitTestResultPrinter18OnTestIterationEndERKNS_8UnitTestEi
FN:4533,4570,_ZN7testing8internal25JsonUnitTestResultPrinter10EscapeJsonERKNSt7__cxx1112basic_stringIcSt11char_traitsIcESaIcEEE
FN:454,454,_ZN7testing8internal12AssertHelperD2Ev
FN:457,464,_ZNK7testing8internal12AssertHelperaSERKNS_7MessageE
FN:4576,4580,_ZN7testing8internalL28FormatTimeInMillisAsDurationEl
FN:4584,4595,_ZN7testing8internalL32FormatEpochTimeInMillisAsRFC3339El
FN:4597,4599,_ZN7testing8internalL6IndentEm
FN:4601,4617,_ZN7testing8internal25JsonUnitTestResultPrinter13OutputJsonKeyEPSoRKNSt7__cxx1112basic_stringIcSt11char_traitsIcESaIcEEESA_SA_SA_b
FN:4619,4632,_ZN7testing8internal25JsonUnitTestResultPrinter13OutputJsonKeyEPSoRKNSt7__cxx1112basic_stringIcSt11char_traitsIcESaIcEEESA_iSA_b
FN:4635,4674,_ZN7testing8internal25JsonUnitTestResultPrinter32OutputJsonTestSuiteForTestResultEPSoRKNS_10TestResultE
FN:4677,4722,_ZN7testing8internal25JsonUnitTestResultPrinter18OutputJsonTestInfoEPSoPKcRKNS_8TestInfoE
FN:4724,4751,_ZN7testing8internal25JsonUnitTestResultPrinter20OutputJsonTestResultEPSoRKNS_10TestResultE
FN:4754,4794,_ZN7testing8internal25JsonUnitTestResultPrinter18PrintJsonTestSuiteEPSoRKNS_9TestSuiteE
FN:479,483,_ZN7testing8internal12_GLOBAL__N_111FailureTestC2ERKNS0_12CodeLocationENSt7__cxx1112basic_stringIcSt11char_traitsIcESaIcEEEb
FN:4797,4851,_ZN7testing8internal25JsonUnitTestResultPrinter17PrintJsonUnitTestEPSoRKNS_8UnitTestE
FN:485,492,_ZN7testing8internal12_GLOBAL__N_111FailureTest8TestBodyEv
FN:4853,4877,_ZN7testing8internal25JsonUnitTestResultPrinter17PrintJsonTestListEPSoRKSt6vectorIPNS_9TestSuiteESaIS5_EE
FN:4880,4890,_ZN7testing8internal25JsonUnitTestResultPrinter20TestPropertiesAsJsonERKNS_10TestResultERKNSt7__cxx1112basic_stringIcSt11char_traitsIcESaIcEEE
FN:4902,4920,_ZN7testing8internal17StreamingListener9UrlEncodeB5cxx11EPKc
FN:4922,4961,_ZN7testing8internal17StreamingListener12SocketWriter14MakeConnectionEv
FN:4971,5019,_ZN7testing8internal18OsStackTraceGetter17CurrentStackTraceB5cxx11Eii
FN:502,504,_ZN7testing8internal33GetIgnoredParameterizedTestSuitesB5cxx11Ev
FN:5021,5031,_ZN7testing8internal18OsStackTraceGetter16UponLeavingGTestEv
FN:5038,5050,_ZN7testing8internal23ScopedPrematureExitFileC2EPKc
FN:5052,5063,_ZN7testing8internal23ScopedPrematureExitFileD2Ev
FN:507,509,_ZN7testing8internal13MarkAsIgnoredC2EPKc
FN:5077,5080,_ZN7testing18TestEventListenersC2Ev
FN:5082,5082,_ZN7testing18TestEventListenersD2Ev
FN:5088,5090,_ZN7testing18TestEventListeners6AppendEPNS_17TestEventListenerE
FN:5095,5101,_ZN7testing18TestEventListeners7ReleaseEPNS_17TestEventListenerE
FN:5105,5105,_ZN7testing18TestEventListeners8repeaterEv
FN:5112,5120,_ZN7testing18TestEventListeners23SetDefaultResultPrinterEPNS_17TestEventListenerE
FN:5127,5135,_ZN7testing18TestEventListeners22SetDefaultXmlGeneratorEPNS_17TestEventListenerE
FN:513,555,_ZN7testing8internal23InsertSyntheticTestCaseERKNSt7__cxx1112basic_stringIcSt11char_traitsIcESaIcEEENS0_12CodeLocationEb
FN:5139,5141,_ZNK7testing18TestEventListeners22EventForwardingEnabledEv
FN:5143,5145,_ZN7testing18TestEventListeners23SuppressEventForwardingEb
FN:5156,5168,_ZN7testing8UnitTest11GetInstanceEv
FN:5171,5173,_ZNK7testing8UnitTest27successful_test_suite_countEv
FN:5176,5178,_ZNK7testing8UnitTest23failed_test_suite_countEv
FN:5181,5183,_ZNK7testing8UnitTest22total_test_suite_countEv
FN:5187,5189,_ZNK7testing8UnitTest23test_suite_to_run_countEv
FN:5193,5195,_ZNK7testing8UnitTest26successful_test_case_countEv
FN:5196,5198,_ZNK7testing8UnitTest22failed_test_case_countEv
FN:5199,5201,_ZNK7testing8UnitTest21total_test_case_countEv
FN:5202,5204,_ZNK7testing8UnitTest22test_case_to_run_countEv
FN:5208,5210,_ZNK7testing8UnitTest21successful_test_countEv
FN:5213,5215,_ZNK7testing8UnitTest18skipped_test_countEv
FN:5218,5218,_ZNK7testing8UnitTest17failed_test_countEv
FN:5221,5223,_ZNK7testing8UnitTest30reportable_disabled_test_countEv
FN:5226,5228,_ZNK7testing8UnitTest19disabled_test_countEv
FN:5231,5233,_ZNK7testing8UnitTest21reportable_test_countEv
FN:5236,5236,_ZNK7testing8UnitTest16total_test_countEv
FN:5239,5239,_ZNK7testing8UnitTest17test_to_run_countEv
FN:5243,5245,_ZNK7testing8UnitTest15start_timestampEv
FN:5248,5250,_ZNK7testing8UnitTest12elapsed_timeEv
FN:5254,5254,_ZNK7testing8UnitTest6PassedEv
FN:5258,5258,_ZNK7testing8UnitTest6FailedEv
FN:5262,5264,_ZNK7testing8UnitTest12GetTestSuiteEi
FN:5268,5270,_ZNK7testing8UnitTest11GetTestCaseEi
FN:5275,5277,_ZNK7testing8UnitTest18ad_hoc_test_resultEv
FN:5281,5283,_ZN7testing8UnitTest19GetMutableTestSuiteEi
FN:5287,5287,_ZN7testing8UnitTest9listenersEv
FN:5299,5306,_ZN7testing8UnitTest14AddEnvironmentEPNS_11EnvironmentE
FN:5312,5382,_ZN7testing8UnitTest17AddTestPartResultENS_14TestPartResult4TypeEPKciRKNSt7__cxx1112basic_stringIcSt11char_traitsIcESaIcEEESC_
FN:5389,5392,_ZN7testing8UnitTest14RecordPropertyERKNSt7__cxx1112basic_stringIcSt11char_traitsIcESaIcEEES8_
FN:5399,5489,_ZN7testing8UnitTest3RunEv
FN:5494,5496,_ZNK7testing8UnitTest20original_working_dirEv
FN:5501,5505,_ZNK7testing8UnitTest18current_test_suiteEv
FN:5509,5513,_ZNK7testing8UnitTest17current_test_caseEv
FN:551,554,_ZZN7testing8internal23InsertSyntheticTestCaseERKNSt7__cxx1112basic_stringIcSt11char_traitsIcESaIcEEENS0_12CodeLocationEbENKUlvE_clEv
FN:5518,5522,_ZNK7testing8UnitTest17current_test_infoEv
FN:5525,5525,_ZNK7testing8UnitTest11random_seedEv
FN:5530,5532,_ZN7testing8UnitTest27parameterized_test_registryEv
FN:5535,5535,_ZN7testing8UnitTestC2Ev
FN:5538,5538,_ZN7testing8UnitTestD0Ev
FN:5538,5538,_ZN7testing8UnitTestD2Ev
FN:5542,5546,_ZN7testing8UnitTest14PushGTestTraceERKNS_8internal9TraceInfoE
FN:5549,5552,_ZN7testing8UnitTest13PopGTestTraceEv
FN:5556,5583,_ZN7testing8internal12UnitTestImplC2EPNS_8UnitTestE
FN:557,561,_ZN7testing8internal34RegisterTypeParameterizedTestSuiteEPKcNS0_12CodeLocationE
FN:5585,5593,_ZN7testing8internal12UnitTestImplD0Ev
FN:5585,5593,_ZN7testing8internal12UnitTestImplD2Ev
FN:5600,5615,_ZN7testing8internal12UnitTestImpl14RecordPropertyERKNS_12TestPropertyE
FN:5620,5623,_ZN7testing8internal12UnitTestImpl32SuppressTestEventsIfInSubprocessEv
FN:5628,5647,_ZN7testing8internal12UnitTestImpl18ConfigureXmlOutputEv
FN:563,566,_ZN7testing8internal47RegisterTypeParameterizedTestSuiteInstantiationEPKc
FN:5652,5664,_ZN7testing8internal12UnitTestImpl24ConfigureStreamingOutputEv
FN:5672,5712,_ZN7testing8internal12UnitTestImpl19PostFlagParsingInitEv
FN:568,572,_ZN7testing8internal34TypeParameterizedTestSuiteRegistry17RegisterTestSuiteEPKcNS0_12CodeLocationE
FN:5725,5725,_ZN7testing8internal15TestSuiteNameIsC2ERKNSt7__cxx1112basic_stringIcSt11char_traitsIcESaIcEEE
FN:5728,5731,_ZNK7testing8internal15TestSuiteNameIsclEPKNS_9TestSuiteE
FN:574,583,_ZN7testing8internal34TypeParameterizedTestSuiteRegistry21RegisterInstantiationEPKc
FN:5749,5781,_ZN7testing8internal12UnitTestImpl12GetTestSuiteEPKcS3_PFvvES5_
FN:5785,5785,_ZN7testing8internalL16SetUpEnvironmentEPNS_11EnvironmentE
FN:5786,5786,_ZN7testing8internalL19TearDownEnvironmentEPNS_11EnvironmentE
FN:5797,5987,_ZN7testing8internal12UnitTestImpl11RunAllTestsEv
FN:585,619,_ZN7testing8internal34TypeParameterizedTestSuiteRegistry22CheckForInstantiationsEv
FN:5994,6008,_ZN7testing8internal30WriteToShardStatusFileIfNeededEv
FN:6017,6056,_ZN7testing8internal11ShouldShardEPKcS2_b
FN:6061,6073,_ZN7testing8internal17Int32FromEnvOrDieEPKci
FN:6079,6081,_ZN7testing8internal20ShouldRunTestOnShardEiii
FN:6090,6143,_ZN7testing8internal12UnitTestImpl11FilterTestsENS1_18ReactionToShardingE
FN:614,617,_ZZN7testing8internal34TypeParameterizedTestSuiteRegistry22CheckForInstantiationsEvENKUlvE_clEv
FN:6149,6165,_ZN7testing8internalL14PrintOnOneLineEPKci
FN:6168,6220,_ZN7testing8internal12UnitTestImpl23ListTestsMatchingFilterEv
FN:6227,6233,_ZN7testing8internal12UnitTestImpl25set_os_stack_trace_getterEPNS0_27OsStackTraceGetterInterfaceE
FN:6238,6248,_ZN7testing8internal12UnitTestImpl21os_stack_trace_getterEv
FN:624,633,_ZN7testing8internal8GetArgvsB5cxx11Ev
FN:6251,6259,_ZN7testing8internal12UnitTestImpl19current_test_resultEv
FN:6263,6275,_ZN7testing8internal12UnitTestImpl12ShuffleTestsEv
FN:6278,6285,_ZN7testing8internal12UnitTestImpl14UnshuffleTestsEv
FN:6298,6302,_ZN7testing8internal31GetCurrentOsStackTraceExceptTopB5cxx11Ei
FN:6310,6310,_ZN7testing8internal6IsTrueEb
FN:6312,6319,_ZN7testing8internal10AlwaysTrueEv
FN:6324,6331,_ZN7testing8internal10SkipPrefixEPKcPS2_
FN:6338,6364,_ZN7testing8internalL14ParseFlagValueEPKcS2_b
FN:6376,6386,_ZN7testing8internalL9ParseFlagEPKcS2_Pb
FN:638,648,_ZN7testing8internal24GetCurrentExecutableNameEv
FN:6392,6402,_ZN7testing8internal9ParseFlagEPKcS2_Pi
FN:6409,6419,_ZN7testing8internalL9ParseFlagINSt7__cxx1112basic_stringIcSt11char_traitsIcESaIcEEEEEbPKcS9_PT_
FN:6427,6433,_ZN7testing8internalL23HasGoogleTestFlagPrefixEPKc
FN:6444,6476,_ZN7testing8internalL17PrintColorEncodedEPKc
FN:654,662,_ZN7testing8internal15UnitTestOptions15GetOutputFormatB5cxx11Ev
FN:6574,6606,_ZN7testing8internalL19ParseGoogleTestFlagEPKc
FN:6609,6623,_ZN7testing8internalL17LoadFlagsFromFileERKNSt7__cxx1112basic_stringIcSt11char_traitsIcESaIcEEE
FN:6630,6677,_ZN7testing8internal28ParseGoogleTestFlagsOnlyImplIcEEvPiPPT_
FN:6630,6677,_ZN7testing8internal28ParseGoogleTestFlagsOnlyImplIwEEvPiPPT_
FN:667,694,_ZN7testing8internal15UnitTestOptions27GetAbsolutePathToOutputFileB5cxx11Ev
FN:6685,6748,_ZN7testing8internal24ParseGoogleTestFlagsOnlyEPiPPc
FN:6749,6751,_ZN7testing8internal24ParseGoogleTestFlagsOnlyEPiPPw
FN:6758,6781,_ZN7testing8internal18InitGoogleTestImplIcEEvPiPPT_
FN:6758,6781,_ZN7testing8internal18InitGoogleTestImplIwEEvPiPPT_
FN:6794,6800,_ZN7testing14InitGoogleTestEPiPPc
FN:6804,6810,_ZN7testing14InitGoogleTestEPiPPw
FN:6814,6826,_ZN7testing14InitGoogleTestEv
FN:6834,6847,_ZN7testingL13GetDirFromEnvESt16initializer_listIPKcES2_c
FN:6850,6860,_ZN7testing7TempDirB5cxx11Ev
FN:6865,6868,_ZN7testingL29GetCurrentExecutableDirectoryEv
FN:6872,6885,_ZN7testing6SrcDirB5cxx11Ev
FN:6892,6899,_ZN7testing11ScopedTrace9PushTraceEPKciNSt7__cxx1112basic_stringIcSt11char_traitsIcESaIcEEE
FN:6902,6904,_ZN7testing11ScopedTraceD2Ev
FN:703,748,_ZN7testing8internalL20PatternMatchesStringERKNSt7__cxx1112basic_stringIcSt11char_traitsIcESaIcEEEPKcSA_
FN:752,755,_ZN7testing8internal12_GLOBAL__N_113IsGlobPatternERKNSt7__cxx1112basic_stringIcSt11char_traitsIcESaIcEEE
FN:754,754,_ZZN7testing8internal12_GLOBAL__N_113IsGlobPatternERKNSt7__cxx1112basic_stringIcSt11char_traitsIcESaIcEEEENKUlcE_clEc
FN:759,759,_ZN7testing8internal12_GLOBAL__N_114UnitTestFilterC2Ev
FN:762,776,_ZN7testing8internal12_GLOBAL__N_114UnitTestFilterC2ERKNSt7__cxx1112basic_stringIcSt11char_traitsIcESaIcEEE
FN:780,788,_ZNK7testing8internal12_GLOBAL__N_114UnitTestFilter11MatchesNameERKNSt7__cxx1112basic_stringIcSt11char_traitsIcESaIcEEE
FN:783,787,_ZZNK7testing8internal12_GLOBAL__N_114UnitTestFilter11MatchesNameERKNSt7__cxx1112basic_stringIcSt11char_traitsIcESaIcEEEENKUlSA_E_clESA_
FN:802,827,_ZN7testing8internal12_GLOBAL__N_133PositiveAndNegativeUnitTestFilterC2ERKNSt7__cxx1112basic_stringIcSt11char_traitsIcESaIcEEE
FN:832,835,_ZNK7testing8internal12_GLOBAL__N_133PositiveAndNegativeUnitTestFilter11MatchesTestERKNSt7__cxx1112basic_stringIcSt11char_traitsIcESaIcEEESA_
FN:839,842,_ZNK7testing8internal12_GLOBAL__N_133PositiveAndNegativeUnitTestFilter11MatchesNameERKNSt7__cxx1112basic_stringIcSt11char_traitsIcESaIcEEE
FN:850,853,_ZN7testing8internal15UnitTestOptions13MatchesFilterERKNSt7__cxx1112basic_stringIcSt11char_traitsIcESaIcEEEPKc
FN:857,863,_ZN7testing8internal15UnitTestOptions17FilterMatchesTestERKNSt7__cxx1112basic_stringIcSt11char_traitsIcESaIcEEES9_
FN:907,911,_ZN7testing32ScopedFakeTestPartResultReporterC2EPNS_19TestPartResultArrayE
FN:916,920,_ZN7testing32ScopedFakeTestPartResultReporterC2ENS0_13InterceptModeEPNS_19TestPartResultArrayE
FN:922,931,_ZN7testing32ScopedFakeTestPartResultReporter4InitEv
FN:935,942,_ZN7testing32ScopedFakeTestPartResultReporterD0Ev
FN:935,942,_ZN7testing32ScopedFakeTestPartResultReporterD2Ev
FN:946,949,_ZN7testing32ScopedFakeTestPartResultReporter20ReportTestPartResultERKNS_14TestPartResultE
FN:962,962,_ZN7testing8internal13GetTestTypeIdEv
FN:971,1005,_ZN7testing8internalL13HasOneFailureEPKcS2_S2_RKNS_19TestPartResultArrayENS_14TestPartResult4TypeERKNSt7__cxx1112basic_stringIcSt11char_traitsIcESaIcEEE
FNDA:0,_ZN7testing8internal20SingleFailureCheckerC2EPKNS_19TestPartResultArrayENS_14TestPartResult4TypeERKNSt7__cxx1112basic_stringIcSt11char_traitsIcESaIcEEE
FNDA:0,_ZN7testing8internal20SingleFailureCheckerD2Ev
FNDA:1,_ZN7testing8internal35DefaultGlobalTestPartResultReporterC2EPNS0_12UnitTestImplE
FNDA:0,_ZN7testing8internal35DefaultGlobalTestPartResultReporter20ReportTestPartResultERKNS_14TestPartResultE
FNDA:1,_ZN7testing8internal38DefaultPerThreadTestPartResultReporterC2EPNS0_12UnitTestImplE
FNDA:0,_ZN7testing8internal38DefaultPerThreadTestPartResultReporter20ReportTestPartResultERKNS_14TestPartResultE
FNDA:0,_ZN7testing8internal12UnitTestImpl31GetGlobalTestPartResultReporterEv
FNDA:0,_ZN7testing8internal12UnitTestImpl31SetGlobalTestPartResultReporterEPNS_31TestPartResultReporterInterfaceE
FNDA:0,_ZN7testing8internal12UnitTestImpl41GetTestPartResultReporterForCurrentThreadEv
FNDA:0,_ZN7testing8internal12UnitTestImpl41SetTestPartResultReporterForCurrentThreadEPNS_31TestPartResultReporterInterfaceE
FNDA:0,_ZNK7testing8internal12UnitTestImpl27successful_test_suite_countEv
FNDA:2,_ZNK7testing8internal12UnitTestImpl23failed_test_suite_countEv
FNDA:2,_ZNK7testing8internal12UnitTestImpl22total_test_suite_countEv
FNDA:2,_ZNK7testing8internal12UnitTestImpl23test_suite_to_run_countEv
FNDA:1,_ZNK7testing8internal12UnitTestImpl21successful_test_countEv
FNDA:1,_ZNK7testing8internal12UnitTestImpl18skipped_test_countEv
FNDA:0,_ZNK7testing8internal12UnitTestImpl17failed_test_countEv
FNDA:1,_ZNK7testing8internal12UnitTestImpl30reportable_disabled_test_countEv
FNDA:0,_ZNK7testing8internal12UnitTestImpl19disabled_test_countEv
FNDA:0,_ZNK7testing8internal12UnitTestImpl21reportable_test_countEv
FNDA:0,_ZNK7testing8internal12UnitTestImpl16total_test_countEv
FNDA:2,_ZNK7testing8internal12UnitTestImpl17test_to_run_countEv
FNDA:0,_ZN7testing8internal12UnitTestImpl28CurrentOsStackTraceExceptTopB5cxx11Ei
FNDA:19,_ZN7testing8internal5TimerC2Ev
FNDA:19,_ZN7testing8internal5Timer7ElapsedEv
FNDA:20,_ZN7testing8internal15GetTimeInMillisEv
FNDA:9,_ZN7testing8internal6String13CStringEqualsEPKcS3_
FNDA:0,_ZN7testing8internalL24StreamWideCharsToMessageEPKwmPNS_7MessageE
FNDA:4,_ZN7testing8internal11SplitStringERKNSt7__cxx1112basic_stringIcSt11char_traitsIcESaIcEEEcPSt6vectorIS6_SaIS6_EE
FNDA:69,_ZN7testing7MessageC2Ev
FNDA:0,_ZN7testing7MessagelsEPKw
FNDA:0,_ZN7testing7MessagelsEPw
FNDA:0,_ZN7testing7MessagelsERKNSt7__cxx1112basic_stringIwSt11char_traitsIwESaIwEEE
FNDA:69,_ZNK7testing7Message9GetStringB5cxx11Ev
FNDA:0,_ZN7testing8internal13edit_distance21CalculateOptimalEditsERKSt6vectorImSaImEES6_
FNDA:0,_ZN7testing8internal13edit_distance12_GLOBAL__N_115InternalStrings5GetIdERKNSt7__cxx1112basic_stringIcSt11char_traitsIcESaIcEEE
FNDA:0,_ZN7testing8internal13edit_distance21CalculateOptimalEditsERKSt6vectorINSt7__cxx1112basic_stringIcSt11char_traitsIcESaIcEEESaIS8_EESC_
FNDA:0,_ZN7testing8internal13edit_distance12_GLOBAL__N_14HunkC2Emm
FNDA:0,_ZN7testing8internal13edit_distance12_GLOBAL__N_14Hunk8PushLineEcPKc
FNDA:0,_ZN7testing8internal13edit_distance12_GLOBAL__N_14Hunk7PrintToEPSo
FNDA:0,_ZNK7testing8internal13edit_distance12_GLOBAL__N_14Hunk9has_editsEv
FNDA:0,_ZN7testing8internal13edit_distance12_GLOBAL__N_14Hunk10FlushEditsEv
FNDA:0,_ZNK7testing8internal13edit_distance12_GLOBAL__N_14Hunk11PrintHeaderEPSo
FNDA:0,_ZN7testing8internal13edit_distance17CreateUnifiedDiffERKSt6vectorINSt7__cxx1112basic_stringIcSt11char_traitsIcESaIcEEESaIS8_EESC_m
FNDA:0,_ZN7testing8internal12_GLOBAL__N_118SplitEscapedStringERKNSt7__cxx1112basic_stringIcSt11char_traitsIcESaIcEEE
FNDA:0,_ZN7testing8internal9EqFailureEPKcS2_RKNSt7__cxx1112basic_stringIcSt11char_traitsIcESaIcEEESA_b
FNDA:0,_ZN7testing8internal30GetBoolAssertionFailureMessageB5cxx11ERKNS_15AssertionResultEPKcS5_S5_
FNDA:0,_ZN7testing8internal20DoubleNearPredFormatEPKcS2_S2_ddd
FNDA:0,_ZN7testing8internal15FloatingPointLEIdEENS_15AssertionResultEPKcS4_T_S5_
FNDA:0,_ZN7testing8internal15FloatingPointLEIfEENS_15AssertionResultEPKcS4_T_S5_
FNDA:0,_ZN7testing7FloatLEEPKcS1_ff
FNDA:0,_ZN7testing8DoubleLEEPKcS1_dd
FNDA:0,_ZN7testing8internal14CmpHelperSTREQEPKcS2_S2_S2_
FNDA:0,_ZN7testing8internal18CmpHelperSTRCASEEQEPKcS2_S2_S2_
FNDA:0,_ZN7testing8internal14CmpHelperSTRNEEPKcS2_S2_S2_
FNDA:0,_ZN7testing8internal18CmpHelperSTRCASENEEPKcS2_S2_S2_
FNDA:0,_ZN7testing12_GLOBAL__N_115IsSubstringPredEPKcS2_
FNDA:0,_ZN7testing12_GLOBAL__N_115IsSubstringPredEPKwS2_
FNDA:0,_ZN7testing12_GLOBAL__N_115IsSubstringPredINSt7__cxx1112basic_stringIcSt11char_traitsIcESaIcEEEEEbRKT_SA_
FNDA:0,_ZN7testing12_GLOBAL__N_115IsSubstringPredINSt7__cxx1112basic_stringIwSt11char_traitsIwESaIwEEEEEbRKT_SA_
FNDA:0,_ZN7testing12_GLOBAL__N_115IsSubstringImplINSt7__cxx1112basic_stringIcSt11char_traitsIcESaIcEEEEENS_15AssertionResultEbPKcSA_RKT_SD_
FNDA:0,_ZN7testing12_GLOBAL__N_115IsSubstringImplINSt7__cxx1112basic_stringIwSt11char_traitsIwESaIwEEEEENS_15AssertionResultEbPKcSA_RKT_SD_
FNDA:0,_ZN7testing12_GLOBAL__N_115IsSubstringImplIPKcEENS_15AssertionResultEbS3_S3_RKT_S7_
FNDA:0,_ZN7testing12_GLOBAL__N_115IsSubstringImplIPKwEENS_15AssertionResultEbPKcS6_RKT_S9_
FNDA:0,_ZN7testing11IsSubstringEPKcS1_S1_S1_
FNDA:0,_ZN7testing11IsSubstringEPKcS1_PKwS3_
FNDA:0,_ZN7testing14IsNotSubstringEPKcS1_S1_S1_
FNDA:0,_ZN7testing14IsNotSubstringEPKcS1_PKwS3_
FNDA:0,_ZN7testing11IsSubstringEPKcS1_RKNSt7__cxx1112basic_stringIcSt11char_traitsIcESaIcEEES9_
FNDA:0,_ZN7testing14IsNotSubstringEPKcS1_RKNSt7__cxx1112basic_stringIcSt11char_traitsIcESaIcEEES9_
FNDA:0,_ZN7testing11IsSubstringEPKcS1_RKNSt7__cxx1112basic_stringIwSt11char_traitsIwESaIwEEES9_
FNDA:0,_ZN7testing14IsNotSubstringEPKcS1_RKNSt7__cxx1112basic_stringIwSt11char_traitsIwESaIwEEES9_
FNDA:0,_ZN7testing8internal11ChopLowBitsEPji
FNDA:0,_ZN7testing8internal15CodePointToUtf8B5cxx11Ej
FNDA:0,_ZN7testing8internal20IsUtf16SurrogatePairEww
FNDA:0,_ZN7testing8internal37CreateCodePointFromUtf16SurrogatePairEww
FNDA:0,_ZN7testing8internal16WideStringToUtf8B5cxx11EPKwi
FNDA:0,_ZN7testing8internal6String15ShowWideCStringB5cxx11EPKw
FNDA:0,_ZN7testing8internalL18OpenFileForWritingERKNSt7__cxx1112basic_stringIcSt11char_traitsIcESaIcEEE
FNDA:0,_ZN7testing8internal6String17WideCStringEqualsEPKwS3_
FNDA:0,_ZN7testing8internal14CmpHelperSTREQEPKcS2_PKwS4_
FNDA:0,_ZN7testing8internal14CmpHelperSTRNEEPKcS2_PKwS4_
FNDA:2,_ZN7testing8internal6String28CaseInsensitiveCStringEqualsEPKcS3_
FNDA:0,_ZN7testing8internal6String32CaseInsensitiveWideCStringEqualsEPKwS3_
FNDA:1,_ZN7testing8internal6String23EndsWithCaseInsensitiveERKNSt7__cxx1112basic_stringIcSt11char_traitsIcESaIcEEES9_
FNDA:0,_ZN7testing8internal6String15FormatIntWidth2B5cxx11Ei
FNDA:0,_ZN7testing8internal6String15FormatIntWidthNB5cxx11Eii
FNDA:0,_ZN7testing8internal6String15FormatHexUInt32B5cxx11Ej
FNDA:0,_ZN7testing8internal6String12FormatHexIntB5cxx11Ei
FNDA:0,_ZN7testing8internal6String10FormatByteB5cxx11Eh
FNDA:69,_ZN7testing8internal20StringStreamToStringEPNSt7__cxx1118basic_stringstreamIcSt11char_traitsIcESaIcEEE
FNDA:0,_ZN7testing8internal17AppendUserMessageERKNSt7__cxx1112basic_stringIcSt11char_traitsIcESaIcEEERKNS_7MessageE
FNDA:19,_ZN7testing10TestResultC2Ev
FNDA:19,_ZN7testing10TestResultD2Ev
FNDA:0,_ZNK7testing10TestResult17GetTestPartResultEi
FNDA:0,_ZNK7testing10TestResult15GetTestPropertyEi
FNDA:0,_ZN7testing10TestResult20ClearTestPartResultsEv
FNDA:0,_ZN7testing10TestResult17AddTestPartResultERKNS_14TestPartResultE
FNDA:1,_ZN7testingL16GetDefaultFilterEv
FNDA:0,_ZN7testing10TestResult14RecordPropertyERKNSt7__cxx1112basic_stringIcSt11char_traitsIcESaIcEEERKNS_12TestPropertyE
FNDA:0,_ZN7testing13ArrayAsVectorILm10EEESt6vectorINSt7__cxx1112basic_stringIcSt11char_traitsIcESaIcEEESaIS7_EERAT__KPKc
FNDA:0,_ZN7testing13ArrayAsVectorILm8EEESt6vectorINSt7__cxx1112basic_stringIcSt11char_traitsIcESaIcEEESaIS7_EERAT__KPKc
FNDA:0,_ZN7testingL31GetReservedAttributesForElementERKNSt7__cxx1112basic_stringIcSt11char_traitsIcESaIcEEE
FNDA:0,_ZN7testingL37GetReservedOutputAttributesForElementERKNSt7__cxx1112basic_stringIcSt11char_traitsIcESaIcEEE
FNDA:0,_ZN7testingL14FormatWordListERKSt6vectorINSt7__cxx1112basic_stringIcSt11char_traitsIcESaIcEEESaIS6_EE
FNDA:0,_ZN7testingL24ValidateTestPropertyNameERKNSt7__cxx1112basic_stringIcSt11char_traitsIcESaIcEEERKSt6vectorIS5_SaIS5_EE
FNDA:1,_ZN7testingL18GetDefaultFailFastEv
FNDA:0,_ZN7testing10TestResult20ValidateTestPropertyERKNSt7__cxx1112basic_stringIcSt11char_traitsIcESaIcEEERKNS_12TestPropertyE
FNDA:18,_ZN7testing10TestResult5ClearEv
FNDA:0,_ZN7testingL15TestPartSkippedERKNS_14TestPartResultE
FNDA:87,_ZNK7testing10TestResult7SkippedEv
FNDA:177,_ZNK7testing10TestResult6FailedEv
FNDA:0,_ZN7testingL21TestPartFatallyFailedERKNS_14TestPartResultE
FNDA:35,_ZNK7testing10TestResult15HasFatalFailureEv
FNDA:0,_ZN7testingL24TestPartNonfatallyFailedERKNS_14TestPartResultE
FNDA:0,_ZNK7testing10TestResult18HasNonfatalFailureEv
FNDA:177,_ZNK7testing10TestResult16total_part_countEv
FNDA:0,_ZNK7testing10TestResult19test_property_countEv
FNDA:17,_ZN7testing4TestC2Ev
FNDA:0,_ZN7testing4TestD0Ev
FNDA:17,_ZN7testing4TestD2Ev
FNDA:17,_ZN7testing4Test5SetUpEv
FNDA:17,_ZN7testing4Test8TearDownEv
FNDA:0,_ZN7testing4Test14RecordPropertyERKNSt7__cxx1112basic_stringIcSt11char_traitsIcESaIcEEES8_
FNDA:0,_ZN7testing8internal30ReportFailureInUnknownLocationENS_14TestPartResult4TypeERKNSt7__cxx1112basic_stringIcSt11char_traitsIcESaIcEEE
FNDA:17,_ZN7testing4Test19HasSameFixtureClassEv
FNDA:0,_ZN7testing8internalL25FormatCxxExceptionMessageEPKcS2_
FNDA:0,_ZN7testing8internal26GoogleTestFailureExceptionC2ERKNS_14TestPartResultE
FNDA:1,_ZN7testing8internal38HandleSehExceptionsInMethodIfSupportedINS0_12UnitTestImplEbEET0_PT_MS4_FS3_vEPKc
FNDA:17,_ZN7testing8internal38HandleSehExceptionsInMethodIfSupportedINS0_15TestFactoryBaseEPNS_4TestEEET0_PT_MS6_FS5_vEPKc
FNDA:68,_ZN7testing8internal38HandleSehExceptionsInMethodIfSupportedINS_4TestEvEET0_PT_MS4_FS3_vEPKc
FNDA:2,_ZN7testing8internal38HandleSehExceptionsInMethodIfSupportedINS_9TestSuiteEvEET0_PT_MS4_FS3_vEPKc
FNDA:1,_ZN7testing8internal35HandleExceptionsInMethodIfSupportedINS0_12UnitTestImplEbEET0_PT_MS4_FS3_vEPKc
FNDA:17,_ZN7testing8internal35HandleExceptionsInMethodIfSupportedINS0_15TestFactoryBaseEPNS_4TestEEET0_PT_MS6_FS5_vEPKc
FNDA:68,_ZN7testing8internal35HandleExceptionsInMethodIfSupportedINS_4TestEvEET0_PT_MS4_FS3_vEPKc
FNDA:2,_ZN7testing8internal35HandleExceptionsInMethodIfSupportedINS_9TestSuiteEvEET0_PT_MS4_FS3_vEPKc
FNDA:17,_ZN7testing4Test3RunEv
FNDA:35,_ZN7testing4Test15HasFatalFailureEv
FNDA:0,_ZN7testing4Test18HasNonfatalFailureEv
FNDA:35,_ZN7testing4Test9IsSkippedEv
FNDA:17,_ZN7testing8TestInfoC2ERKNSt7__cxx1112basic_stringIcSt11char_traitsIcESaIcEEES8_PKcSA_NS_8internal12CodeLocationEPKvPNSB_15TestFactoryBaseE
FNDA:17,_ZN7testing8TestInfoD2Ev
FNDA:17,_ZN7testing8internal23MakeAndRegisterTestInfoEPKcS2_S2_S2_NS0_12CodeLocationEPKvPFvvES7_PNS0_15TestFactoryBaseE
FNDA:0,_ZN7testing8internal26ReportInvalidTestSuiteTypeEPKcNS0_12CodeLocationE
FNDA:1,_ZN7testing8internal12UnitTestImpl26RegisterParameterizedTestsEv
FNDA:17,_ZN7testing8TestInfo3RunEv
FNDA:0,_ZN7testing8TestInfo4SkipEv
FNDA:1,_ZNK7testing9TestSuite21successful_test_countEv
FNDA:1,_ZNK7testing9TestSuite18skipped_test_countEv
FNDA:2,_ZNK7testing9TestSuite17failed_test_countEv
FNDA:1,_ZNK7testing9TestSuite30reportable_disabled_test_countEv
FNDA:0,_ZNK7testing9TestSuite19disabled_test_countEv
FNDA:0,_ZNK7testing9TestSuite21reportable_test_countEv
FNDA:4,_ZNK7testing9TestSuite17test_to_run_countEv
FNDA:18,_ZNK7testing9TestSuite16total_test_countEv
FNDA:1,_ZN7testing9TestSuiteC2EPKcS2_PFvvES4_
FNDA:1,_ZN7testing9TestSuiteD0Ev
FNDA:1,_ZN7testing9TestSuiteD2Ev
FNDA:0,_ZNK7testing9TestSuite11GetTestInfoEi
FNDA:17,_ZN7testing9TestSuite18GetMutableTestInfoEi
FNDA:17,_ZN7testing9TestSuite11AddTestInfoEPNS_8TestInfoE
FNDA:1,_ZN7testing9TestSuite3RunEv
FNDA:48,_ZZN7testing9TestSuite3RunEvENKUlPKNS_8TestInfoES3_E_clES3_S3_
FNDA:0,_ZN7testing9TestSuite4SkipEv
FNDA:1,_ZN7testing9TestSuite11ClearResultEv
FNDA:0,_ZN7testing9TestSuite12ShuffleTestsEPNS_8internal6RandomE
FNDA:1,_ZN7testing9TestSuite14UnshuffleTestsEv
FNDA:7,_ZN7testingL19FormatCountableNounEiPKcS1_
FNDA:3,_ZN7testingL15FormatTestCountEi
FNDA:2,_ZN7testingL20FormatTestSuiteCountEi
FNDA:0,_ZN7testingL26TestPartResultTypeToStringENS_14TestPartResult4TypeE
FNDA:0,_ZN7testing8internalL27PrintTestPartResultToStringERKNS_14TestPartResultE
FNDA:0,_ZN7testing8internalL19PrintTestPartResultERKNS_14TestPartResultE
FNDA:41,_ZN7testing8internalL16GetAnsiColorCodeENS0_12_GLOBAL__N_110GTestColorE
FNDA:1,_ZN7testing8internal14ShouldUseColorEb
FNDA:41,_ZN7testing8internalL13ColoredPrintfENS0_12_GLOBAL__N_110GTestColorEPKcz
FNDA:0,_ZN7testing8internalL29PrintFullTestCommentIfPresentERKNS_8TestInfoE
FNDA:1,_ZN7testing8internal27PrettyUnitTestResultPrinterC2Ev
FNDA:34,_ZN7testing8internal27PrettyUnitTestResultPrinter13PrintTestNameEPKcS3_
FNDA:1,_ZN7testing8internal27PrettyUnitTestResultPrinter18OnTestProgramStartERKNS_8UnitTestE
FNDA:1,_ZN7testing8internal27PrettyUnitTestResultPrinter22OnEnvironmentsSetUpEndERKNS_8UnitTestE
FNDA:1,_ZN7testing8internal27PrettyUnitTestResultPrinter25OnEnvironmentsTearDownEndERKNS_8UnitTestE
FNDA:1,_ZN7testing8internal27PrettyUnitTestResultPrinter16OnTestProgramEndERKNS_8UnitTestE
FNDA:1,_ZN7testing8internal27PrettyUnitTestResultPrinter20OnTestIterationStartERKNS_8UnitTestEi
FNDA:1,_ZN7testing8internal27PrettyUnitTestResultPrinter24OnEnvironmentsSetUpStartERKNS_8UnitTestE
FNDA:1,_ZN7testing8internal27PrettyUnitTestResultPrinter15OnTestCaseStartERKNS_9TestSuiteE
FNDA:17,_ZN7testing8internal27PrettyUnitTestResultPrinter11OnTestStartERKNS_8TestInfoE
FNDA:0,_ZN7testing8internal27PrettyUnitTestResultPrinter14OnTestDisabledERKNS_8TestInfoE
FNDA:0,_ZN7testing8internal27PrettyUnitTestResultPrinter16OnTestPartResultERKNS_14TestPartResultE
FNDA:17,_ZN7testing8internal27PrettyUnitTestResultPrinter9OnTestEndERKNS_8TestInfoE
FNDA:1,_ZN7testing8internal27PrettyUnitTestResultPrinter13OnTestCaseEndERKNS_9TestSuiteE
FNDA:1,_ZN7testing8internal27PrettyUnitTestResultPrinter27OnEnvironmentsTearDownStartERKNS_8UnitTestE
FNDA:0,_ZN7testing8internal27PrettyUnitTestResultPrinter16PrintFailedTestsERKNS_8UnitTestE
FNDA:0,_ZN7testing8internal27PrettyUnitTestResultPrinter21PrintFailedTestSuitesERKNS_8UnitTestE
FNDA:0,_ZN7testing8internal27PrettyUnitTestResultPrinter17PrintSkippedTestsERKNS_8UnitTestE
FNDA:1,_ZN7testing8internal27PrettyUnitTestResultPrinter18OnTestIterationEndERKNS_8UnitTestEi
FNDA:0,_ZN7testing8internal26BriefUnitTestResultPrinterC2Ev
FNDA:0,_ZN7testing8internal26BriefUnitTestResultPrinter13PrintTestNameEPKcS3_
FNDA:0,_ZN7testing8internal26BriefUnitTestResultPrinter18OnTestProgramStartERKNS_8UnitTestE
FNDA:0,_ZN7testing8internal26BriefUnitTestResultPrinter20OnTestIterationStartERKNS_8UnitTestEi
FNDA:0,_ZN7testing8internal26BriefUnitTestResultPrinter24OnEnvironmentsSetUpStartERKNS_8UnitTestE
FNDA:0,_ZN7testing8internal26BriefUnitTestResultPrinter22OnEnvironmentsSetUpEndERKNS_8UnitTestE
FNDA:0,_ZN7testing8internal26BriefUnitTestResultPrinter15OnTestCaseStartERKNS_9TestSuiteE
FNDA:0,_ZN7testing8internal26BriefUnitTestResultPrinter11OnTestStartERKNS_8TestInfoE
FNDA:0,_ZN7testing8internal26BriefUnitTestResultPrinter14OnTestDisabledERKNS_8TestInfoE
FNDA:0,_ZN7testing8internal26BriefUnitTestResultPrinter13OnTestCaseEndERKNS_9TestSuiteE
FNDA:0,_ZN7testing8internal26BriefUnitTestResultPrinter27OnEnvironmentsTearDownStartERKNS_8UnitTestE
FNDA:0,_ZN7testing8internal26BriefUnitTestResultPrinter25OnEnvironmentsTearDownEndERKNS_8UnitTestE
FNDA:0,_ZN7testing8internal26BriefUnitTestResultPrinter16OnTestProgramEndERKNS_8UnitTestE
FNDA:0,_ZN7testing8internal26BriefUnitTestResultPrinter16OnTestPartResultERKNS_14TestPartResultE
FNDA:0,_ZN7testing8internal26BriefUnitTestResultPrinter9OnTestEndERKNS_8TestInfoE
FNDA:0,_ZN7testing8internal26BriefUnitTestResultPrinter18OnTestIterationEndERKNS_8UnitTestEi
FNDA:1,_ZN7testing8internal17TestEventRepeaterC2Ev
FNDA:0,_ZNK7testing8internal17TestEventRepeater18forwarding_enabledEv
FNDA:0,_ZN7testing8internal17TestEventRepeater22set_forwarding_enabledEb
FNDA:1,_ZN7testing8internal17TestEventRepeaterD0Ev
FNDA:1,_ZN7testing8internal17TestEventRepeaterD2Ev
FNDA:1,_ZN7testing8internal17TestEventRepeater6AppendEPNS_17TestEventListenerE
FNDA:1,_ZN7testing8internal17TestEventRepeater7ReleaseEPNS_17TestEventListenerE
FNDA:1,_ZN7testing8internal17TestEventRepeater18OnTestProgramStartERKNS_8UnitTestE
FNDA:1,_ZN7testing8internal17TestEventRepeater24OnEnvironmentsSetUpStartERKNS_8UnitTestE
FNDA:1,_ZN7testing8internal17TestEventRepeater15OnTestCaseStartERKNS_9TestSuiteE
FNDA:1,_ZN7testing8internal17TestEventRepeater16OnTestSuiteStartERKNS_9TestSuiteE
FNDA:17,_ZN7testing8internal17TestEventRepeater11OnTestStartERKNS_8TestInfoE
FNDA:0,_ZN7testing8internal17TestEventRepeater14OnTestDisabledERKNS_8TestInfoE
FNDA:0,_ZN7testing8internal17TestEventRepeater16OnTestPartResultERKNS_14TestPartResultE
FNDA:1,_ZN7testing8internal17TestEventRepeater27OnEnvironmentsTearDownStartERKNS_8UnitTestE
FNDA:1,_ZN7testing8internal17TestEventRepeater22OnEnvironmentsSetUpEndERKNS_8UnitTestE
FNDA:1,_ZN7testing8internal17TestEventRepeater25OnEnvironmentsTearDownEndERKNS_8UnitTestE
FNDA:17,_ZN7testing8internal17TestEventRepeater9OnTestEndERKNS_8TestInfoE
FNDA:1,_ZN7testing8internal17TestEventRepeater13OnTestCaseEndERKNS_9TestSuiteE
FNDA:1,_ZN7testing8internal17TestEventRepeater14OnTestSuiteEndERKNS_9TestSuiteE
FNDA:1,_ZN7testing8internal17TestEventRepeater16OnTestProgramEndERKNS_8UnitTestE
FNDA:1,_ZN7testing8internal17TestEventRepeater20OnTestIterationStartERKNS_8UnitTestEi
FNDA:1,_ZN7testing8internal17TestEventRepeater18OnTestIterationEndERKNS_8UnitTestEi
FNDA:0,_ZN7testing8internal24XmlUnitTestResultPrinter24IsNormalizableWhitespaceEh
FNDA:0,_ZN7testing8internal24XmlUnitTestResultPrinter19IsValidXmlCharacterEh
FNDA:0,_ZN7testing8internal24XmlUnitTestResultPrinter18EscapeXmlAttributeERKNSt7__cxx1112basic_stringIcSt11char_traitsIcESaIcEEE
FNDA:0,_ZN7testing8internal24XmlUnitTestResultPrinterC2EPKc
FNDA:0,_ZN7testing8internal6Random8GenerateEj
FNDA:0,_ZN7testing8internal24XmlUnitTestResultPrinter18OnTestIterationEndERKNS_8UnitTestEi
FNDA:0,_ZN7testing8internal24XmlUnitTestResultPrinter23ListTestsMatchingFilterERKSt6vectorIPNS_9TestSuiteESaIS4_EE
FNDA:0,_ZN7testing8internal24XmlUnitTestResultPrinter9EscapeXmlERKNSt7__cxx1112basic_stringIcSt11char_traitsIcESaIcEEEb
FNDA:0,_ZN7testing8internal24XmlUnitTestResultPrinter26RemoveInvalidXmlCharactersERKNSt7__cxx1112basic_stringIcSt11char_traitsIcESaIcEEE
FNDA:0,_ZN7testing8internal27FormatTimeInMillisAsSecondsB5cxx11El
FNDA:0,_ZN7testing8internalL17PortableLocaltimeElP2tm
FNDA:0,_ZN7testing8internal32FormatEpochTimeInMillisAsIso8601B5cxx11El
FNDA:0,_ZN7testing8internal24XmlUnitTestResultPrinter21OutputXmlCDataSectionEPSoPKc
FNDA:0,_ZN7testing8internal24XmlUnitTestResultPrinter18OutputXmlAttributeEPSoRKNSt7__cxx1112basic_stringIcSt11char_traitsIcESaIcEEESA_SA_
FNDA:0,_ZN7testing8internal24XmlUnitTestResultPrinter31OutputXmlTestSuiteForTestResultEPSoRKNS_10TestResultE
FNDA:2,_ZN7testing8internalL18GTestIsInitializedEv
FNDA:0,_ZN7testing8internal24XmlUnitTestResultPrinter17OutputXmlTestInfoEPSoPKcRKNS_8TestInfoE
FNDA:5,_ZN7testing8internalL20SumOverTestSuiteListERKSt6vectorIPNS_9TestSuiteESaIS3_EEMS2_KFivE
FNDA:0,_ZN7testing8internal24XmlUnitTestResultPrinter19OutputXmlTestResultEPSoRKNS_10TestResultE
FNDA:0,_ZN7testing8internal24XmlUnitTestResultPrinter17PrintXmlTestSuiteEPSoRKNS_9TestSuiteE
FNDA:0,_ZN7testing8internalL15TestSuitePassedEPKNS_9TestSuiteE
FNDA:0,_ZN7testing8internal24XmlUnitTestResultPrinter16PrintXmlUnitTestEPSoRKNS_8UnitTestE
FNDA:2,_ZN7testing8internalL15TestSuiteFailedEPKNS_9TestSuiteE
FNDA:0,_ZN7testing8internal24XmlUnitTestResultPrinter17PrintXmlTestsListEPSoRKSt6vectorIPNS_9TestSuiteESaIS5_EE
FNDA:0,_ZN7testing8internal24XmlUnitTestResultPrinter29TestPropertiesAsXmlAttributesB5cxx11ERKNS_10TestResultE
FNDA:0,_ZN7testing8internal24XmlUnitTestResultPrinter23OutputXmlTestPropertiesEPSoRKNS_10TestResultE
FNDA:2,_ZN7testing8internalL18ShouldRunTestSuiteEPKNS_9TestSuiteE
FNDA:0,_ZN7testing8internal12AssertHelperC2ENS_14TestPartResult4TypeEPKciS5_
FNDA:0,_ZN7testing8internal25JsonUnitTestResultPrinterC2EPKc
FNDA:0,_ZN7testing8internal25JsonUnitTestResultPrinter18OnTestIterationEndERKNS_8UnitTestEi
FNDA:0,_ZN7testing8internal25JsonUnitTestResultPrinter10EscapeJsonERKNSt7__cxx1112basic_stringIcSt11char_traitsIcESaIcEEE
FNDA:0,_ZN7testing8internal12AssertHelperD2Ev
FNDA:0,_ZNK7testing8internal12AssertHelperaSERKNS_7MessageE
FNDA:0,_ZN7testing8internalL28FormatTimeInMillisAsDurationEl
FNDA:0,_ZN7testing8internalL32FormatEpochTimeInMillisAsRFC3339El
FNDA:0,_ZN7testing8internalL6IndentEm
FNDA:0,_ZN7testing8internal25JsonUnitTestResultPrinter13OutputJsonKeyEPSoRKNSt7__cxx1112basic_stringIcSt11char_traitsIcESaIcEEESA_SA_SA_b
FNDA:0,_ZN7testing8internal25JsonUnitTestResultPrinter13OutputJsonKeyEPSoRKNSt7__cxx1112basic_stringIcSt11char_traitsIcESaIcEEESA_iSA_b
FNDA:0,_ZN7testing8internal25JsonUnitTestResultPrinter32OutputJsonTestSuiteForTestResultEPSoRKNS_10TestResultE
FNDA:0,_ZN7testing8internal25JsonUnitTestResultPrinter18OutputJsonTestInfoEPSoPKcRKNS_8TestInfoE
FNDA:0,_ZN7testing8internal25JsonUnitTestResultPrinter20OutputJsonTestResultEPSoRKNS_10TestResultE
FNDA:0,_ZN7testing8internal25JsonUnitTestResultPrinter18PrintJsonTestSuiteEPSoRKNS_9TestSuiteE
FNDA:0,_ZN7testing8internal12_GLOBAL__N_111FailureTestC2ERKNS0_12CodeLocationENSt7__cxx1112basic_stringIcSt11char_traitsIcESaIcEEEb
FNDA:0,_ZN7testing8internal25JsonUnitTestResultPrinter17PrintJsonUnitTestEPSoRKNS_8UnitTestE
FNDA:0,_ZN7testing8internal12_GLOBAL__N_111FailureTest8TestBodyEv
FNDA:0,_ZN7testing8internal25JsonUnitTestResultPrinter17PrintJsonTestListEPSoRKSt6vectorIPNS_9TestSuiteESaIS5_EE
FNDA:0,_ZN7testing8internal25JsonUnitTestResultPrinter20TestPropertiesAsJsonERKNS_10TestResultERKNSt7__cxx1112basic_stringIcSt11char_traitsIcESaIcEEE
FNDA:0,_ZN7testing8internal17StreamingListener9UrlEncodeB5cxx11EPKc
FNDA:0,_ZN7testing8internal17StreamingListener12SocketWriter14MakeConnectionEv
FNDA:0,_ZN7testing8internal18OsStackTraceGetter17CurrentStackTraceB5cxx11Eii
FNDA:1,_ZN7testing8internal33GetIgnoredParameterizedTestSuitesB5cxx11Ev
FNDA:87,_ZN7testing8internal18OsStackTraceGetter16UponLeavingGTestEv
FNDA:1,_ZN7testing8internal23ScopedPrematureExitFileC2EPKc
FNDA:1,_ZN7testing8internal23ScopedPrematureExitFileD2Ev
FNDA:0,_ZN7testing8internal13MarkAsIgnoredC2EPKc
FNDA:1,_ZN7testing18TestEventListenersC2Ev
FNDA:1,_ZN7testing18TestEventListenersD2Ev
FNDA:1,_ZN7testing18TestEventListeners6AppendEPNS_17TestEventListenerE
FNDA:1,_ZN7testing18TestEventListeners7ReleaseEPNS_17TestEventListenerE
FNDA:19,_ZN7testing18TestEventListeners8repeaterEv
FNDA:1,_ZN7testing18TestEventListeners23SetDefaultResultPrinterEPNS_17TestEventListenerE
FNDA:0,_ZN7testing18TestEventListeners22SetDefaultXmlGeneratorEPNS_17TestEventListenerE
FNDA:0,_ZN7testing8internal23InsertSyntheticTestCaseERKNSt7__cxx1112basic_stringIcSt11char_traitsIcESaIcEEENS0_12CodeLocationEb
FNDA:0,_ZNK7testing18TestEventListeners22EventForwardingEnabledEv
FNDA:0,_ZN7testing18TestEventListeners23SuppressEventForwardingEb
FNDA:248,_ZN7testing8UnitTest11GetInstanceEv
FNDA:0,_ZNK7testing8UnitTest27successful_test_suite_countEv
FNDA:0,_ZNK7testing8UnitTest23failed_test_suite_countEv
FNDA:0,_ZNK7testing8UnitTest22total_test_suite_countEv
FNDA:2,_ZNK7testing8UnitTest23test_suite_to_run_countEv
FNDA:0,_ZNK7testing8UnitTest26successful_test_case_countEv
FNDA:0,_ZNK7testing8UnitTest22failed_test_case_countEv
FNDA:0,_ZNK7testing8UnitTest21total_test_case_countEv
FNDA:0,_ZNK7testing8UnitTest22test_case_to_run_countEv
FNDA:1,_ZNK7testing8UnitTest21successful_test_countEv
FNDA:1,_ZNK7testing8UnitTest18skipped_test_countEv
FNDA:0,_ZNK7testing8UnitTest17failed_test_countEv
FNDA:1,_ZNK7testing8UnitTest30reportable_disabled_test_countEv
FNDA:0,_ZNK7testing8UnitTest19disabled_test_countEv
FNDA:0,_ZNK7testing8UnitTest21reportable_test_countEv
FNDA:0,_ZNK7testing8UnitTest16total_test_countEv
FNDA:2,_ZNK7testing8UnitTest17test_to_run_countEv
FNDA:0,_ZNK7testing8UnitTest15start_timestampEv
FNDA:1,_ZNK7testing8UnitTest12elapsed_timeEv
FNDA:1,_ZNK7testing8UnitTest6PassedEv
FNDA:0,_ZNK7testing8UnitTest6FailedEv
FNDA:0,_ZNK7testing8UnitTest12GetTestSuiteEi
FNDA:0,_ZNK7testing8UnitTest11GetTestCaseEi
FNDA:0,_ZNK7testing8UnitTest18ad_hoc_test_resultEv
FNDA:0,_ZN7testing8UnitTest19GetMutableTestSuiteEi
FNDA:18,_ZN7testing8UnitTest9listenersEv
FNDA:0,_ZN7testing8UnitTest14AddEnvironmentEPNS_11EnvironmentE
FNDA:0,_ZN7testing8UnitTest17AddTestPartResultENS_14TestPartResult4TypeEPKciRKNSt7__cxx1112basic_stringIcSt11char_traitsIcESaIcEEESC_
FNDA:0,_ZN7testing8UnitTest14RecordPropertyERKNSt7__cxx1112basic_stringIcSt11char_traitsIcESaIcEEES8_
FNDA:1,_ZN7testing8UnitTest3RunEv
FNDA:0,_ZNK7testing8UnitTest20original_working_dirEv
FNDA:0,_ZNK7testing8UnitTest18current_test_suiteEv
FNDA:0,_ZNK7testing8UnitTest17current_test_caseEv
FNDA:0,_ZZN7testing8internal23InsertSyntheticTestCaseERKNSt7__cxx1112basic_stringIcSt11char_traitsIcESaIcEEENS0_12CodeLocationEbENKUlvE_clEv
FNDA:0,_ZNK7testing8UnitTest17current_test_infoEv
FNDA:0,_ZNK7testing8UnitTest11random_seedEv
FNDA:0,_ZN7testing8UnitTest27parameterized_test_registryEv
FNDA:1,_ZN7testing8UnitTestC2Ev
FNDA:0,_ZN7testing8UnitTestD0Ev
FNDA:1,_ZN7testing8UnitTestD2Ev
FNDA:0,_ZN7testing8UnitTest14PushGTestTraceERKNS_8internal9TraceInfoE
FNDA:0,_ZN7testing8UnitTest13PopGTestTraceEv
FNDA:1,_ZN7testing8internal12UnitTestImplC2EPNS_8UnitTestE
FNDA:0,_ZN7testing8internal34RegisterTypeParameterizedTestSuiteEPKcNS0_12CodeLocationE
FNDA:1,_ZN7testing8internal12UnitTestImplD0Ev
FNDA:1,_ZN7testing8internal12UnitTestImplD2Ev
FNDA:0,_ZN7testing8internal12UnitTestImpl14RecordPropertyERKNS_12TestPropertyE
FNDA:1,_ZN7testing8internal12UnitTestImpl32SuppressTestEventsIfInSubprocessEv
FNDA:1,_ZN7testing8internal12UnitTestImpl18ConfigureXmlOutputEv
FNDA:0,_ZN7testing8internal47RegisterTypeParameterizedTestSuiteInstantiationEPKc
FNDA:1,_ZN7testing8internal12UnitTestImpl24ConfigureStreamingOutputEv
FNDA:2,_ZN7testing8internal12UnitTestImpl19PostFlagParsingInitEv
FNDA:0,_ZN7testing8internal34TypeParameterizedTestSuiteRegistry17RegisterTestSuiteEPKcNS0_12CodeLocationE
FNDA:17,_ZN7testing8internal15TestSuiteNameIsC2ERKNSt7__cxx1112basic_stringIcSt11char_traitsIcESaIcEEE
FNDA:16,_ZNK7testing8internal15TestSuiteNameIsclEPKNS_9TestSuiteE
FNDA:0,_ZN7testing8internal34TypeParameterizedTestSuiteRegistry21RegisterInstantiationEPKc
FNDA:17,_ZN7testing8internal12UnitTestImpl12GetTestSuiteEPKcS3_PFvvES5_
FNDA:0,_ZN7testing8internalL16SetUpEnvironmentEPNS_11EnvironmentE
FNDA:0,_ZN7testing8internalL19TearDownEnvironmentEPNS_11EnvironmentE
FNDA:1,_ZN7testing8internal12UnitTestImpl11RunAllTestsEv
FNDA:1,_ZN7testing8internal34TypeParameterizedTestSuiteRegistry22CheckForInstantiationsEv
FNDA:1,_ZN7testing8internal30WriteToShardStatusFileIfNeededEv
FNDA:2,_ZN7testing8internal11ShouldShardEPKcS2_b
FNDA:4,_ZN7testing8internal17Int32FromEnvOrDieEPKci
FNDA:0,_ZN7testing8internal20ShouldRunTestOnShardEiii
FNDA:1,_ZN7testing8internal12UnitTestImpl11FilterTestsENS1_18ReactionToShardingE
FNDA:0,_ZZN7testing8internal34TypeParameterizedTestSuiteRegistry22CheckForInstantiationsEvENKUlvE_clEv
FNDA:0,_ZN7testing8internalL14PrintOnOneLineEPKci
FNDA:0,_ZN7testing8internal12UnitTestImpl23ListTestsMatchingFilterEv
FNDA:0,_ZN7testing8internal12UnitTestImpl25set_os_stack_trace_getterEPNS0_27OsStackTraceGetterInterfaceE
FNDA:87,_ZN7testing8internal12UnitTestImpl21os_stack_trace_getterEv
FNDA:2,_ZN7testing8internal8GetArgvsB5cxx11Ev
FNDA:70,_ZN7testing8internal12UnitTestImpl19current_test_resultEv
FNDA:0,_ZN7testing8internal12UnitTestImpl12ShuffleTestsEv
FNDA:1,_ZN7testing8internal12UnitTestImpl14UnshuffleTestsEv
FNDA:0,_ZN7testing8internal31GetCurrentOsStackTraceExceptTopB5cxx11Ei
FNDA:43,_ZN7testing8internal6IsTrueEb
FNDA:8,_ZN7testing8internal10AlwaysTrueEv
FNDA:0,_ZN7testing8internal10SkipPrefixEPKcPS2_
FNDA:0,_ZN7testing8internalL14ParseFlagValueEPKcS2_b
FNDA:0,_ZN7testing8internalL9ParseFlagEPKcS2_Pb
FNDA:0,_ZN7testing8internal24GetCurrentExecutableNameEv
FNDA:0,_ZN7testing8internal9ParseFlagEPKcS2_Pi
FNDA:0,_ZN7testing8internalL9ParseFlagINSt7__cxx1112basic_stringIcSt11char_traitsIcESaIcEEEEEbPKcS9_PT_
FNDA:0,_ZN7testing8internalL23HasGoogleTestFlagPrefixEPKc
FNDA:0,_ZN7testing8internalL17PrintColorEncodedEPKc
FNDA:1,_ZN7testing8internal15UnitTestOptions15GetOutputFormatB5cxx11Ev
FNDA:0,_ZN7testing8internalL19ParseGoogleTestFlagEPKc
FNDA:0,_ZN7testing8internalL17LoadFlagsFromFileERKNSt7__cxx1112basic_stringIcSt11char_traitsIcESaIcEEE
FNDA:1,_ZN7testing8internal28ParseGoogleTestFlagsOnlyImplIcEEvPiPPT_
FNDA:0,_ZN7testing8internal28ParseGoogleTestFlagsOnlyImplIwEEvPiPPT_
FNDA:0,_ZN7testing8internal15UnitTestOptions27GetAbsolutePathToOutputFileB5cxx11Ev
FNDA:1,_ZN7testing8internal24ParseGoogleTestFlagsOnlyEPiPPc
FNDA:0,_ZN7testing8internal24ParseGoogleTestFlagsOnlyEPiPPw
FNDA:1,_ZN7testing8internal18InitGoogleTestImplIcEEvPiPPT_
FNDA:0,_ZN7testing8internal18InitGoogleTestImplIwEEvPiPPT_
FNDA:1,_ZN7testing14InitGoogleTestEPiPPc
FNDA:0,_ZN7testing14InitGoogleTestEPiPPw
FNDA:0,_ZN7testing14InitGoogleTestEv
FNDA:0,_ZN7testingL13GetDirFromEnvESt16initializer_listIPKcES2_c
FNDA:0,_ZN7testing7TempDirB5cxx11Ev
FNDA:0,_ZN7testingL29GetCurrentExecutableDirectoryEv
FNDA:0,_ZN7testing6SrcDirB5cxx11Ev
FNDA:0,_ZN7testing11ScopedTrace9PushTraceEPKciNSt7__cxx1112basic_stringIcSt11char_traitsIcESaIcEEE
FNDA:0,_ZN7testing11ScopedTraceD2Ev
FNDA:87,_ZN7testing8internalL20PatternMatchesStringERKNSt7__cxx1112basic_stringIcSt11char_traitsIcESaIcEEEPKcSA_
FNDA:5,_ZN7testing8internal12_GLOBAL__N_113IsGlobPatternERKNSt7__cxx1112basic_stringIcSt11char_traitsIcESaIcEEE
FNDA:14,_ZZN7testing8internal12_GLOBAL__N_113IsGlobPatternERKNSt7__cxx1112basic_stringIcSt11char_traitsIcESaIcEEEENKUlcE_clEc
FNDA:2,_ZN7testing8internal12_GLOBAL__N_114UnitTestFilterC2Ev
FNDA:3,_ZN7testing8internal12_GLOBAL__N_114UnitTestFilterC2ERKNSt7__cxx1112basic_stringIcSt11char_traitsIcESaIcEEE
FNDA:69,_ZNK7testing8internal12_GLOBAL__N_114UnitTestFilter11MatchesNameERKNSt7__cxx1112basic_stringIcSt11char_traitsIcESaIcEEE
FNDA:87,_ZZNK7testing8internal12_GLOBAL__N_114UnitTestFilter11MatchesNameERKNSt7__cxx1112basic_stringIcSt11char_traitsIcESaIcEEEENKUlSA_E_clESA_
FNDA:1,_ZN7testing8internal12_GLOBAL__N_133PositiveAndNegativeUnitTestFilterC2ERKNSt7__cxx1112basic_stringIcSt11char_traitsIcESaIcEEE
FNDA:17,_ZNK7testing8internal12_GLOBAL__N_133PositiveAndNegativeUnitTestFilter11MatchesTestERKNSt7__cxx1112basic_stringIcSt11char_traitsIcESaIcEEESA_
FNDA:17,_ZNK7testing8internal12_GLOBAL__N_133PositiveAndNegativeUnitTestFilter11MatchesNameERKNSt7__cxx1112basic_stringIcSt11char_traitsIcESaIcEEE
FNDA:0,_ZN7testing8internal15UnitTestOptions13MatchesFilterERKNSt7__cxx1112basic_stringIcSt11char_traitsIcESaIcEEEPKc
FNDA:0,_ZN7testing8internal15UnitTestOptions17FilterMatchesTestERKNSt7__cxx1112basic_stringIcSt11char_traitsIcESaIcEEES9_
FNDA:0,_ZN7testing32ScopedFakeTestPartResultReporterC2EPNS_19TestPartResultArrayE
FNDA:0,_ZN7testing32ScopedFakeTestPartResultReporterC2ENS0_13InterceptModeEPNS_19TestPartResultArrayE
FNDA:0,_ZN7testing32ScopedFakeTestPartResultReporter4InitEv
FNDA:0,_ZN7testing32ScopedFakeTestPartResultReporterD0Ev
FNDA:0,_ZN7testing32ScopedFakeTestPartResultReporterD2Ev
FNDA:0,_ZN7testing32ScopedFakeTestPartResultReporter20ReportTestPartResultERKNS_14TestPartResultE
FNDA:18,_ZN7testing8internal13GetTestTypeIdEv
FNDA:0,_ZN7testing8internalL13HasOneFailureEPKcS2_S2_RKNS_19TestPartResultArrayENS_14TestPartResult4TypeERKNSt7__cxx1112basic_stringIcSt11char_traitsIcESaIcEEE
FNF:425
FNH:167
DA:209,0
DA:210,0
DA:211,0
DA:212,0
DA:214,0
DA:215,0
DA:217,0
DA:218,0
DA:220,0
DA:221,0
DA:228,1
DA:230,1
DA:231,1
DA:232,0
DA:234,1
DA:239,1
DA:241,1
DA:242,1
DA:243,0
DA:245,1
DA:400,0
DA:403,0
DA:405,0
DA:406,0
DA:407,0
DA:408,0
DA:413,0
DA:419,2
DA:424,5
DA:426,5
DA:427,10
DA:428,5
DA:430,5
DA:434,0
DA:435,0
DA:439,2
DA:440,2
DA:445,2
DA:446,2
DA:450,0
DA:451,0
DA:452,0
DA:454,0
DA:457,0
DA:458,0
DA:459,0
DA:460,0
DA:461,0
DA:464,0
DA:479,0
DA:481,0
DA:482,0
DA:483,0
DA:485,0
DA:486,0
DA:487,0
DA:488,0
DA:490,0
DA:492,0
DA:502,1
DA:503,1
DA:507,0
DA:508,0
DA:509,0
DA:513,0
DA:515,0
DA:516,0
DA:518,0
DA:527,0
DA:536,0
DA:537,0
DA:538,0
DA:543,0
DA:544,0
DA:546,0
DA:547,0
DA:551,0
DA:552,0
DA:553,0
DA:555,0
DA:557,0
DA:559,0
DA:561,0
DA:563,0
DA:564,0
DA:566,0
DA:568,0
DA:570,0
DA:571,0
DA:572,0
DA:574,0
DA:576,0
DA:577,0
DA:578,0
DA:580,0
DA:581,0
DA:583,0
DA:585,1
DA:586,1
DA:587,1
DA:588,0
DA:589,0
DA:591,0
DA:592,0
DA:604,0
DA:605,0
DA:607,0
DA:608,0
DA:609,0
DA:614,0
DA:615,0
DA:616,0
DA:618,0
DA:619,1
DA:624,2
DA:631,2
DA:638,0
DA:639,0
DA:644,0
DA:647,0
DA:648,0
DA:654,1
DA:655,1
DA:656,1
DA:657,1
DA:659,1
DA:661,4
DA:662,1
DA:667,0
DA:668,0
DA:669,0
DA:671,0
DA:672,0
DA:674,0
DA:675,0
DA:676,0
DA:677,0
DA:679,0
DA:680,0
DA:682,0
DA:683,0
DA:684,0
DA:685,0
DA:686,0
DA:688,0
DA:690,0
DA:691,0
DA:692,0
DA:693,0
DA:694,0
DA:703,87
DA:705,87
DA:706,87
DA:707,87
DA:709,87
DA:710,87
DA:712,1491
DA:713,1474
DA:714,1136
DA:715,408
DA:716,408
DA:717,1
DA:718,1
DA:719,1
DA:721,407
DA:722,0
DA:723,0
DA:724,0
DA:725,0
DA:726,0
DA:728,0
DA:729,728
DA:733,728
DA:734,728
DA:735,728
DA:736,728
DA:740,745
DA:741,675
DA:742,675
DA:743,675
DA:745,70
DA:747,17
DA:752,5
DA:753,5
DA:754,19
DA:759,2
DA:762,3
DA:764,3
DA:765,3
DA:766,3
DA:769,6
DA:770,6
DA:771,6
DA:772,3
DA:773,6
DA:775,3
DA:776,6
DA:780,69
DA:781,138
DA:782,69
DA:783,87
DA:784,87
DA:786,174
DA:787,69
DA:802,1
DA:803,1
DA:806,1
DA:807,1
DA:809,1
DA:810,0
DA:811,0
DA:816,0
DA:817,0
DA:818,0
DA:819,0
DA:820,0
DA:821,0
DA:825,1
DA:827,2
DA:832,17
DA:834,17
DA:839,17
DA:840,34
DA:841,34
DA:850,0
DA:852,0
DA:857,0
DA:861,0
DA:862,0
DA:907,0
DA:908,0
DA:909,0
DA:910,0
DA:911,0
DA:916,0
DA:917,0
DA:918,0
DA:919,0
DA:920,0
DA:922,0
DA:923,0
DA:924,0
DA:925,0
DA:926,0
DA:928,0
DA:929,0
DA:931,0
DA:935,0
DA:936,0
DA:937,0
DA:938,0
DA:940,0
DA:942,0
DA:946,0
DA:948,0
DA:949,0
DA:962,18
DA:971,0
DA:977,0
DA:979,0
DA:980,0
DA:981,0
DA:982,0
DA:983,0
DA:984,0
DA:985,0
DA:987,0
DA:990,0
DA:991,0
DA:992,0
DA:993,0
DA:994,0
DA:997,0
DA:998,0
DA:999,0
DA:1000,0
DA:1001,0
DA:1004,0
DA:1005,0
DA:1010,0
DA:1012,0
DA:1013,0
DA:1019,0
DA:1020,0
DA:1021,0
DA:1023,1
DA:1024,1
DA:1025,1
DA:1027,0
DA:1029,0
DA:1030,0
DA:1031,0
DA:1033,1
DA:1034,1
DA:1035,1
DA:1037,0
DA:1039,0
DA:1040,0
DA:1044,0
DA:1045,0
DA:1046,0
DA:1047,0
DA:1050,0
DA:1052,0
DA:1053,0
DA:1054,0
DA:1058,0
DA:1059,0
DA:1063,0
DA:1065,0
DA:1066,0
DA:1069,0
DA:1070,0
DA:1074,2
DA:1075,2
DA:1079,2
DA:1080,2
DA:1085,2
DA:1086,2
DA:1090,1
DA:1091,1
DA:1095,1
DA:1096,1
DA:1100,0
DA:1101,0
DA:1105,1
DA:1106,1
DA:1107,1
DA:1111,0
DA:1112,0
DA:1116,0
DA:1117,0
DA:1121,0
DA:1122,0
DA:1126,2
DA:1127,2
DA:1140,0
DA:1141,0
DA:1145,0
DA:1151,19
DA:1154,19
DA:1155,76
DA:1156,38
DA:1157,57
DA:1174,20
DA:1175,60
DA:1176,80
DA:1177,60
DA:1178,60
DA:1224,9
DA:1225,9
DA:1227,9
DA:1229,9
DA:1236,0
DA:1238,0
DA:1239,0
DA:1240,0
DA:1241,0
DA:1243,0
DA:1244,0
DA:1247,0
DA:1251,4
DA:1253,4
DA:1254,4
DA:1255,6
DA:1256,6
DA:1257,6
DA:1258,4
DA:1259,4
DA:1261,2
DA:1262,2
DA:1265,4
DA:1266,8
DA:1275,69
DA:1278,69
DA:1279,69
DA:1283,0
DA:1284,0
DA:1286,0
DA:1287,0
DA:1293,0
DA:1294,0
DA:1295,0
DA:1301,69
DA:1302,69
DA:1308,0
DA:1310,0
DA:1311,0
DA:1312,0
DA:1313,0
DA:1316,0
DA:1317,0
DA:1318,0
DA:1321,0
DA:1322,0
DA:1323,0
DA:1326,0
DA:1327,0
DA:1328,0
DA:1330,0
DA:1331,0
DA:1332,0
DA:1335,0
DA:1336,0
DA:1337,0
DA:1338,0
DA:1339,0
DA:1340,0
DA:1341,0
DA:1342,0
DA:1343,0
DA:1347,0
DA:1348,0
DA:1354,0
DA:1355,0
DA:1356,0
DA:1357,0
DA:1358,0
DA:1359,0
DA:1361,0
DA:1362,0
DA:1363,0
DA:1370,0
DA:1371,0
DA:1372,0
DA:1373,0
DA:1374,0
DA:1384,0
DA:1387,0
DA:1389,0
DA:1390,0
DA:1391,0
DA:1393,0
DA:1394,0
DA:1396,0
DA:1397,0
DA:1398,0
DA:1408,0
DA:1409,0
DA:1410,0
DA:1411,0
DA:1412,0
DA:1413,0
DA:1415,0
DA:1416,0
DA:1417,0
DA:1418,0
DA:1419,0
DA:1420,0
DA:1421,0
DA:1422,0
DA:1423,0
DA:1424,0
DA:1425,0
DA:1426,0
DA:1427,0
DA:1428,0
DA:1429,0
DA:1431,0
DA:1433,0
DA:1434,0
DA:1435,0
DA:1436,0
DA:1437,0
DA:1438,0
DA:1439,0
DA:1441,0
DA:1443,0
DA:1446,0
DA:1447,0
DA:1448,0
DA:1449,0
DA:1455,0
DA:1456,0
DA:1457,0
DA:1458,0
DA:1460,0
DA:1461,0
DA:1463,0
DA:1464,0
DA:1466,0
DA:1467,0
DA:1483,0
DA:1486,0
DA:1488,0
DA:1489,0
DA:1490,0
DA:1492,0
DA:1493,0
DA:1494,0
DA:1495,0
DA:1499,0
DA:1500,0
DA:1501,0
DA:1502,0
DA:1507,0
DA:1508,0
DA:1509,0
DA:1511,0
DA:1512,0
DA:1513,0
DA:1514,0
DA:1516,0
DA:1520,0
DA:1522,0
DA:1524,0
DA:1525,0
DA:1527,0
DA:1528,0
DA:1532,0
DA:1533,0
DA:1536,0
DA:1538,0
DA:1541,0
DA:1542,0
DA:1543,0
DA:1544,0
DA:1553,0
DA:1554,0
DA:1555,0
DA:1556,0
DA:1557,0
DA:1558,0
DA:1560,0
DA:1561,0
DA:1562,0
DA:1563,0
DA:1564,0
DA:1565,0
DA:1566,0
DA:1569,0
DA:1572,0
DA:1573,0
DA:1574,0
DA:1593,0
DA:1597,0
DA:1598,0
DA:1599,0
DA:1600,0
DA:1601,0
DA:1603,0
DA:1604,0
DA:1605,0
DA:1608,0
DA:1609,0
DA:1612,0
DA:1613,0
DA:1614,0
DA:1615,0
DA:1616,0
DA:1617,0
DA:1619,0
DA:1621,0
DA:1622,0
DA:1625,0
DA:1628,0
DA:1629,0
DA:1630,0
DA:1631,0
DA:1632,0
DA:1633,0
DA:1634,0
DA:1635,0
DA:1638,0
DA:1641,0
DA:1642,0
DA:1645,0
DA:1647,0
DA:1648,0
DA:1655,0
DA:1656,0
DA:1657,0
DA:1658,0
DA:1659,0
DA:1660,0
DA:1661,0
DA:1662,0
DA:1664,0
DA:1665,0
DA:1667,0
DA:1669,0
DA:1670,0
DA:1671,0
DA:1672,0
DA:1673,0
DA:1674,0
DA:1679,0
DA:1682,0
DA:1683,0
DA:1687,0
DA:1688,0
DA:1689,0
DA:1696,0
DA:1697,0
DA:1698,0
DA:1700,0
DA:1701,0
DA:1702,0
DA:1705,0
DA:1706,0
DA:1707,0
DA:1708,0
DA:1714,0
DA:1716,0
DA:1721,0
DA:1723,0
DA:1729,0
DA:1732,0
DA:1733,0
DA:1736,0
DA:1737,0
DA:1741,0
DA:1744,0
DA:1745,0
DA:1748,0
DA:1749,0
DA:1753,0
DA:1756,0
DA:1757,0
DA:1759,0
DA:1760,0
DA:1761,0
DA:1766,0
DA:1769,0
DA:1770,0
DA:1772,0
DA:1773,0
DA:1774,0
DA:1788,0
DA:1789,0
DA:1791,0
DA:1794,0
DA:1795,0
DA:1797,0
DA:1802,0
DA:1803,0
DA:1811,0
DA:1816,0
DA:1817,0
DA:1819,0
DA:1820,0
DA:1822,0
DA:1823,0
DA:1824,0
DA:1825,0
DA:1826,0
DA:1835,0
DA:1837,0
DA:1840,0
DA:1842,0
DA:1845,0
DA:1848,0
DA:1851,0
DA:1854,0
DA:1857,0
DA:1860,0
DA:1863,0
DA:1867,0
DA:1871,0
DA:1874,0
DA:1877,0
DA:1881,0
DA:1977,0
DA:1978,0
DA:1979,0
DA:1980,0
DA:1989,0
DA:1990,0
DA:1991,0
DA:1994,0
DA:1995,0
DA:1996,0
DA:1997,0
DA:1998,0
DA:1999,0
DA:2000,0
DA:2001,0
DA:2002,0
DA:2003,0
DA:2004,0
DA:2005,0
DA:2006,0
DA:2008,0
DA:2009,0
DA:2010,0
DA:2011,0
DA:2012,0
DA:2014,0
DA:2024,0
DA:2026,0
DA:2030,0
DA:2032,0
DA:2033,0
DA:2034,0
DA:2040,0
DA:2056,0
DA:2057,0
DA:2059,0
DA:2060,0
DA:2063,0
DA:2064,0
DA:2065,0
DA:2067,0
DA:2068,0
DA:2070,0
DA:2073,0
DA:2075,0
DA:2076,0
DA:2080,0
DA:2081,0
DA:2083,0
DA:2092,0
DA:2093,0
DA:2095,0
DA:2097,0
DA:2101,0
DA:2104,0
DA:2105,0
DA:2108,0
DA:2109,0
DA:2113,0
DA:2116,0
DA:2117,0
DA:2120,0
DA:2121,0
DA:2122,0
DA:2131,2
DA:2132,2
DA:2133,2
DA:2134,2
DA:2149,0
DA:2151,0
DA:2153,0
DA:2158,0
DA:2173,1
DA:2175,1
DA:2176,1
DA:2177,2
DA:2178,1
DA:2179,1
DA:2183,0
DA:2184,0
DA:2188,0
DA:2189,0
DA:2190,0
DA:2191,0
DA:2192,0
DA:2195,0
DA:2196,0
DA:2197,0
DA:2198,0
DA:2199,0
DA:2202,0
DA:2203,0
DA:2207,0
DA:2208,0
DA:2209,0
DA:2210,0
DA:2211,0
DA:2212,0
DA:2216,69
DA:2217,69
DA:2218,69
DA:2219,69
DA:2221,69
DA:2222,69
DA:2223,936
DA:2224,867
DA:2225,0
DA:2227,867
DA:2231,138
DA:2232,69
DA:2235,0
DA:2238,0
DA:2239,0
DA:2240,0
DA:2242,0
DA:2243,0
DA:2245,0
DA:2246,0
DA:2253,19
DA:2254,19
DA:2257,19
DA:2262,0
DA:2263,0
DA:2264,0
DA:2270,0
DA:2271,0
DA:2272,0
DA:2276,0
DA:2279,0
DA:2280,0
DA:2281,0
DA:2286,0
DA:2288,0
DA:2289,0
DA:2291,0
DA:2292,0
DA:2293,0
DA:2294,0
DA:2295,0
DA:2296,0
DA:2297,0
DA:2299,0
DA:2300,0
DA:2326,0
DA:2327,0
DA:2330,0
DA:2332,0
DA:2333,0
DA:2334,0
DA:2335,0
DA:2336,0
DA:2337,0
DA:2339,0
DA:2342,0
DA:2348,0
DA:2350,0
DA:2351,0
DA:2352,0
DA:2353,0
DA:2354,0
DA:2355,0
DA:2357,0
DA:2360,0
DA:2364,0
DA:2365,0
DA:2366,0
DA:2367,0
DA:2368,0
DA:2370,0
DA:2371,0
DA:2373,0
DA:2375,0
DA:2376,0
DA:2378,0
DA:2381,0
DA:2382,0
DA:2383,0
DA:2384,0
DA:2385,0
DA:2386,0
DA:2388,0
DA:2393,0
DA:2395,0
DA:2396,0
DA:2400,18
DA:2401,18
DA:2402,18
DA:2403,18
DA:2404,18
DA:2405,18
DA:2408,0
DA:2409,0
DA:2413,87
DA:2414,87
DA:2418,177
DA:2419,177
DA:2420,0
DA:2422,177
DA:2426,0
DA:2427,0
DA:2431,35
DA:2432,35
DA:2436,0
DA:2437,0
DA:2441,0
DA:2442,0
DA:2447,177
DA:2448,177
DA:2452,0
DA:2453,0
DA:2461,17
DA:2466,17
DA:2471,17
DA:2476,17
DA:2479,0
DA:2480,0
DA:2481,0
DA:2485,0
DA:2489,0
DA:2495,0
DA:2504,17
DA:2505,17
DA:2506,17
DA:2509,17
DA:2510,17
DA:2511,17
DA:2514,17
DA:2515,17
DA:2516,17
DA:2518,17
DA:2520,0
DA:2522,0
DA:2524,0
DA:2531,0
DA:2533,0
DA:2536,0
DA:2537,0
DA:2538,0
DA:2539,0
DA:2540,0
DA:2541,0
DA:2542,0
DA:2543,0
DA:2544,0
DA:2548,0
DA:2549,0
DA:2550,0
DA:2551,0
DA:2552,0
DA:2553,0
DA:2554,0
DA:2555,0
DA:2556,0
DA:2557,0
DA:2559,0
DA:2562,17
DA:2570,0
DA:2572,0
DA:2573,0
DA:2574,0
DA:2576,0
DA:2578,0
DA:2580,0
DA:2581,0
DA:2586,0
DA:2587,0
DA:2588,0
DA:2601,88
DA:2612,88
DA:2620,88
DA:2645,88
DA:2648,88
DA:2649,0
DA:2651,0
DA:2655,0
DA:2656,0
DA:2657,0
DA:2659,0
DA:2660,0
DA:2661,0
DA:2665,0
DA:2670,0
DA:2677,17
DA:2678,17
DA:2680,17
DA:2681,17
DA:2682,17
DA:2685,17
DA:2686,17
DA:2687,17
DA:2694,17
DA:2695,17
DA:2700,35
DA:2701,35
DA:2705,0
DA:2708,0
DA:2712,35
DA:2713,35
DA:2720,17
DA:2725,17
DA:2726,17
DA:2728,51
DA:2729,17
DA:2730,17
DA:2731,17
DA:2732,17
DA:2733,17
DA:2734,17
DA:2735,17
DA:2736,17
DA:2737,17
DA:2738,17
DA:2741,17
DA:2763,17
DA:2770,85
DA:2771,17
DA:2772,17
DA:2775,0
DA:2777,0
DA:2779,0
DA:2780,0
DA:2781,0
DA:2782,0
DA:2783,0
DA:2784,0
DA:2785,0
DA:2786,0
DA:2788,0
DA:2790,0
DA:2791,0
DA:2796,1
DA:2797,1
DA:2798,1
DA:2799,1
DA:2800,1
DA:2802,1
DA:2808,17
DA:2809,17
DA:2810,17
DA:2811,0
DA:2812,0
DA:2816,17
DA:2817,17
DA:2820,17
DA:2821,17
DA:2822,17
DA:2823,17
DA:2826,34
DA:2827,17
DA:2833,17
DA:2836,17
DA:2839,17
DA:2841,17
DA:2842,17
DA:2846,17
DA:2849,17
DA:2853,17
DA:2857,0
DA:2858,0
DA:2860,0
DA:2861,0
DA:2863,0
DA:2866,0
DA:2868,0
DA:2869,0
DA:2870,0
DA:2874,0
DA:2875,0
DA:2876,0
DA:2881,1
DA:2882,1
DA:2886,1
DA:2887,1
DA:2891,2
DA:2892,2
DA:2896,1
DA:2897,1
DA:2901,0
DA:2902,0
DA:2906,0
DA:2907,0
DA:2911,4
DA:2912,4
DA:2916,18
DA:2917,18
DA:2929,1
DA:2931,1
DA:2932,2
DA:2933,1
DA:2934,1
DA:2935,1
DA:2936,1
DA:2937,1
DA:2938,2
DA:2941,3
DA:2943,1
DA:2944,2
DA:2948,0
DA:2949,0
DA:2950,0
DA:2955,17
DA:2956,17
DA:2957,17
DA:2962,17
DA:2963,17
DA:2964,17
DA:2965,17
DA:2968,1
DA:2969,1
DA:2971,1
DA:2972,1
DA:2974,1
DA:2986,1
DA:2987,48
DA:2988,48
DA:2989,0
DA:2992,48
DA:2996,1
DA:2999,1
DA:3002,1
DA:3003,1
DA:3007,1
DA:3009,1
DA:3010,1
DA:3011,18
DA:3012,17
DA:3013,0
DA:3015,17
DA:3017,17
DA:3018,0
DA:3019,0
DA:3020,0
DA:3022,0
DA:3025,1
DA:3027,1
DA:3028,1
DA:3032,1
DA:3035,1
DA:3038,1
DA:3042,0
DA:3043,0
DA:3045,0
DA:3046,0
DA:3048,0
DA:3051,0
DA:3054,0
DA:3057,0
DA:3058,0
DA:3062,0
DA:3065,0
DA:3068,0
DA:3072,1
DA:3073,1
DA:3074,1
DA:3075,1
DA:3078,0
DA:3079,0
DA:3080,0
DA:3083,1
DA:3084,18
DA:3085,17
DA:3087,1
DA:3094,7
DA:3096,14
DA:3097,21
DA:3101,3
DA:3102,3
DA:3106,2
DA:3107,2
DA:3114,0
DA:3115,0
DA:3116,0
DA:3117,0
DA:3118,0
DA:3119,0
DA:3121,0
DA:3126,0
DA:3128,0
DA:3129,0
DA:3139,0
DA:3141,0
DA:3143,0
DA:3144,0
DA:3145,0
DA:3146,0
DA:3147,0
DA:3151,0
DA:3152,0
DA:3153,0
DA:3154,0
DA:3166,0
DA:3222,41
DA:3223,41
DA:3224,0
DA:3225,0
DA:3226,41
DA:3227,41
DA:3228,0
DA:3229,0
DA:3230,0
DA:3231,0
DA:3238,1
DA:3239,1
DA:3240,1
DA:3242,1
DA:3249,1
DA:3251,3
DA:3252,2
DA:3253,2
DA:3254,2
DA:3255,2
DA:3256,2
DA:3257,2
DA:3258,4
DA:3259,7
DA:3260,1
DA:3264,0
DA:3265,0
DA:3266,0
DA:3267,0
DA:3271,1
DA:3279,41
DA:3280,41
DA:3281,41
DA:3285,41
DA:3290,41
DA:3292,41
DA:3293,0
DA:3294,0
DA:3295,0
DA:3321,41
DA:3322,41
DA:3323,41
DA:3325,41
DA:3333,0
DA:3334,0
DA:3335,0
DA:3337,0
DA:3338,0
DA:3339,0
DA:3340,0
DA:3341,0
DA:3343,0
DA:3344,0
DA:3347,0
DA:3354,1
DA:3355,34
DA:3356,34
DA:3357,34
DA:3360,1
DA:3363,1
DA:3382,1
DA:3384,1
DA:3393,1
DA:3395,1
DA:3396,0
DA:3398,1
DA:3399,1
DA:3403,1
DA:3404,0
DA:3408,1
DA:3409,0
DA:3410,0
DA:3415,1
DA:3416,0
DA:3421,1
DA:3422,3
DA:3423,2
DA:3424,2
DA:3425,1
DA:3426,2
DA:3428,1
DA:3430,1
DA:3431,1
DA:3432,1
DA:3433,1
DA:3436,1
DA:3437,1
DA:3438,1
DA:3439,1
DA:3440,1
DA:3441,1
DA:3442,1
DA:3444,0
DA:3446,1
DA:3447,2
DA:3464,17
DA:3465,17
DA:3466,17
DA:3467,17
DA:3468,17
DA:3469,17
DA:3471,0
DA:3472,0
DA:3473,0
DA:3474,0
DA:3475,0
DA:3476,0
DA:3479,0
DA:3481,0
DA:3483,0
DA:3484,0
DA:3485,0
DA:3488,0
DA:3489,0
DA:3493,17
DA:3494,17
DA:3495,17
DA:3496,0
DA:3497,0
DA:3499,0
DA:3501,17
DA:3502,17
DA:3504,17
DA:3505,34
DA:3506,34
DA:3509,0
DA:3511,17
DA:3512,17
DA:3515,1
DA:3516,1
DA:3518,1
DA:3519,1
DA:3520,1
DA:3521,2
DA:3522,2
DA:3523,1
DA:3524,1
DA:3538,1
DA:3540,1
DA:3541,1
DA:3542,1
DA:3543,1
DA:3546,0
DA:3547,0
DA:3548,0
DA:3549,0
DA:3551,0
DA:3552,0
DA:3553,0
DA:3554,0
DA:3556,0
DA:3557,0
DA:3558,0
DA:3559,0
DA:3561,0
DA:3562,0
DA:3563,0
DA:3564,0
DA:3567,0
DA:3569,0
DA:3573,0
DA:3575,0
DA:3576,0
DA:3577,0
DA:3578,0
DA:3579,0
DA:3581,0
DA:3582,0
DA:3583,0
DA:3584,0
DA:3587,0
DA:3588,0
DA:3591,0
DA:3594,0
DA:3595,0
DA:3596,0
DA:3597,0
DA:3600,0
DA:3601,0
DA:3602,0
DA:3603,0
DA:3605,0
DA:3606,0
DA:3607,0
DA:3608,0
DA:3610,0
DA:3611,0
DA:3612,0
DA:3617,1
DA:3619,1
DA:3620,3
DA:3621,2
DA:3622,2
DA:3623,1
DA:3624,2
DA:3625,2
DA:3627,1
DA:3628,1
DA:3629,1
DA:3631,1
DA:3632,1
DA:3633,0
DA:3634,0
DA:3635,0
DA:3638,1
DA:3639,0
DA:3640,0
DA:3643,1
DA:3644,1
DA:3645,0
DA:3646,0
DA:3648,0
DA:3652,1
DA:3653,1
DA:3662,0
DA:3663,0
DA:3664,0
DA:3665,0
DA:3668,0
DA:3669,0
DA:3670,0
DA:3671,0
DA:3672,0
DA:3674,0
DA:3679,0
DA:3680,0
DA:3685,0
DA:3690,0
DA:3691,0
DA:3693,0
DA:3697,0
DA:3699,0
DA:3701,0
DA:3702,0
DA:3703,0
DA:3706,0
DA:3707,0
DA:3711,0
DA:3712,0
DA:3713,0
DA:3714,0
DA:3715,0
DA:3717,0
DA:3718,0
DA:3719,0
DA:3722,0
DA:3724,0
DA:3726,0
DA:3728,0
DA:3730,0
DA:3731,0
DA:3732,0
DA:3733,0
DA:3734,0
DA:3735,0
DA:3736,0
DA:3738,0
DA:3739,0
DA:3740,0
DA:3742,0
DA:3743,0
DA:3744,0
DA:3745,0
DA:3748,0
DA:3749,0
DA:3750,0
DA:3751,0
DA:3753,0
DA:3757,0
DA:3758,0
DA:3767,1
DA:3774,0
DA:3775,0
DA:3811,2
DA:3812,1
DA:3813,2
DA:3815,1
DA:3816,1
DA:3817,1
DA:3819,1
DA:3820,1
DA:3821,0
DA:3822,0
DA:3823,0
DA:3827,1
DA:3851,2
DA:3852,2
DA:3855,2
DA:3857,2
DA:3858,34
DA:3859,0
DA:3860,0
DA:3861,2
DA:3862,2
DA:3863,2
DA:3864,34
DA:3867,2
DA:3869,2
DA:3870,2
DA:3875,1
DA:3877,1
DA:3878,2
DA:3879,1
DA:3882,1
DA:3884,1
DA:3886,1
DA:3887,2
DA:3888,1
DA:3891,1
DA:3911,0
DA:3912,0
DA:3917,0
DA:3918,0
DA:3931,0
DA:3932,0
DA:3992,0
DA:3993,0
DA:3994,0
DA:3995,0
DA:3997,0
DA:4000,0
DA:4002,0
DA:4003,0
DA:4004,0
DA:4005,0
DA:4006,0
DA:4007,0
DA:4009,0
DA:4011,0
DA:4012,0
DA:4013,0
DA:4014,0
DA:4015,0
DA:4016,0
DA:4028,0
DA:4030,0
DA:4032,0
DA:4033,0
DA:4034,0
DA:4035,0
DA:4036,0
DA:4037,0
DA:4038,0
DA:4039,0
DA:4040,0
DA:4041,0
DA:4042,0
DA:4043,0
DA:4044,0
DA:4045,0
DA:4046,0
DA:4048,0
DA:4049,0
DA:4050,0
DA:4051,0
DA:4052,0
DA:4054,0
DA:4055,0
DA:4056,0
DA:4057,0
DA:4058,0
DA:4059,0
DA:4060,0
DA:4061,0
DA:4063,0
DA:4065,0
DA:4069,0
DA:4070,0
DA:4075,0
DA:4077,0
DA:4078,0
DA:4079,0
DA:4080,0
DA:4081,0
DA:4083,0
DA:4084,0
DA:4103,0
DA:4104,0
DA:4108,0
DA:4110,0
DA:4111,0
DA:4112,0
DA:4113,0
DA:4114,0
DA:4116,0
DA:4131,0
DA:4137,0
DA:4138,0
DA:4139,0
DA:4140,0
DA:4142,0
DA:4143,0
DA:4144,0
DA:4145,0
DA:4146,0
DA:4147,0
DA:4148,0
DA:4152,0
DA:4154,0
DA:4155,0
DA:4157,0
DA:4158,0
DA:4159,0
DA:4160,0
DA:4161,0
DA:4162,0
DA:4164,0
DA:4165,0
DA:4167,0
DA:4168,0
DA:4169,0
DA:4171,0
DA:4175,0
DA:4177,0
DA:4180,0
DA:4182,0
DA:4183,0
DA:4186,0
DA:4189,0
DA:4190,0
DA:4191,0
DA:4192,0
DA:4193,0
DA:4194,0
DA:4195,0
DA:4196,0
DA:4197,0
DA:4198,0
DA:4200,0
DA:4201,0
DA:4204,0
DA:4205,0
DA:4206,0
DA:4207,0
DA:4208,0
DA:4209,0
DA:4210,0
DA:4211,0
DA:4213,0
DA:4216,0
DA:4219,0
DA:4220,0
DA:4223,0
DA:4226,0
DA:4227,0
DA:4229,0
DA:4230,0
DA:4233,0
DA:4234,0
DA:4236,0
DA:4237,0
DA:4240,0
DA:4241,0
DA:4245,0
DA:4246,0
DA:4247,0
DA:4248,0
DA:4249,0
DA:4250,0
DA:4253,0
DA:4254,0
DA:4255,0
DA:4256,0
DA:4257,0
DA:4259,0
DA:4260,0
DA:4261,0
DA:4263,0
DA:4264,0
DA:4266,0
DA:4267,0
DA:4269,0
DA:4271,0
DA:4272,0
DA:4273,0
DA:4274,0
DA:4275,0
DA:4276,0
DA:4277,0
DA:4279,0
DA:4281,0
DA:4282,0
DA:4283,0
DA:4284,0
DA:4285,0
DA:4286,0
DA:4287,0
DA:4288,0
DA:4289,0
DA:4290,0
DA:4292,0
DA:4294,0
DA:4295,0
DA:4297,0
DA:4298,0
DA:4299,0
DA:4300,0
DA:4301,0
DA:4304,0
DA:4305,0
DA:4307,0
DA:4308,0
DA:4310,0
DA:4311,0
DA:4313,0
DA:4316,0
DA:4318,0
DA:4319,0
DA:4320,0
DA:4321,0
DA:4322,0
DA:4323,0
DA:4324,0
DA:4325,0
DA:4326,0
DA:4328,0
DA:4329,0
DA:4330,0
DA:4332,0
DA:4334,0
DA:4335,0
DA:4336,0
DA:4338,0
DA:4339,0
DA:4341,0
DA:4342,0
DA:4343,0
DA:4344,0
DA:4346,0
DA:4347,0
DA:4350,0
DA:4352,0
DA:4354,0
DA:4355,0
DA:4357,0
DA:4358,0
DA:4359,0
DA:4360,0
DA:4361,0
DA:4363,0
DA:4364,0
DA:4365,0
DA:4366,0
DA:4367,0
DA:4369,0
DA:4371,0
DA:4372,0
DA:4373,0
DA:4375,0
DA:4377,0
DA:4378,0
DA:4380,0
DA:4381,0
DA:4382,0
DA:4387,0
DA:4388,0
DA:4391,0
DA:4392,0
DA:4394,0
DA:4396,0
DA:4398,0
DA:4399,0
DA:4401,0
DA:4402,0
DA:4403,0
DA:4405,0
DA:4406,0
DA:4407,0
DA:4408,0
DA:4410,0
DA:4411,0
DA:4413,0
DA:4414,0
DA:4418,0
DA:4420,0
DA:4421,0
DA:4422,0
DA:4423,0
DA:4424,0
DA:4426,0
DA:4427,0
DA:4429,0
DA:4431,0
DA:4432,0
DA:4434,0
DA:4435,0
DA:4438,0
DA:4439,0
DA:4440,0
DA:4441,0
DA:4442,0
DA:4443,0
DA:4444,0
DA:4446,0
DA:4447,0
DA:4516,0
DA:4517,0
DA:4518,0
DA:4519,0
DA:4521,0
DA:4523,0
DA:4525,0
DA:4526,0
DA:4527,0
DA:4528,0
DA:4529,0
DA:4530,0
DA:4533,0
DA:4534,0
DA:4536,0
DA:4537,0
DA:4538,0
DA:4539,0
DA:4542,0
DA:4543,0
DA:4544,0
DA:4545,0
DA:4546,0
DA:4547,0
DA:4548,0
DA:4549,0
DA:4550,0
DA:4551,0
DA:4552,0
DA:4553,0
DA:4554,0
DA:4555,0
DA:4556,0
DA:4557,0
DA:4558,0
DA:4559,0
DA:4560,0
DA:4561,0
DA:4563,0
DA:4565,0
DA:4569,0
DA:4570,0
DA:4576,0
DA:4577,0
DA:4578,0
DA:4579,0
DA:4580,0
DA:4584,0
DA:4585,0
DA:4586,0
DA:4587,0
DA:4589,0
DA:4590,0
DA:4591,0
DA:4592,0
DA:4593,0
DA:4594,0
DA:4597,0
DA:4598,0
DA:4601,0
DA:4608,0
DA:4610,0
DA:4613,0
DA:4615,0
DA:4616,0
DA:4617,0
DA:4619,0
DA:4623,0
DA:4625,0
DA:4628,0
DA:4630,0
DA:4631,0
DA:4632,0
DA:4635,0
DA:4638,0
DA:4639,0
DA:4640,0
DA:4641,0
DA:4642,0
DA:4643,0
DA:4644,0
DA:4645,0
DA:4646,0
DA:4647,0
DA:4648,0
DA:4649,0
DA:4650,0
DA:4651,0
DA:4653,0
DA:4656,0
DA:4657,0
DA:4658,0
DA:4659,0
DA:4660,0
DA:4661,0
DA:4662,0
DA:4663,0
DA:4664,0
DA:4665,0
DA:4666,0
DA:4667,0
DA:4670,0
DA:4673,0
DA:4674,0
DA:4677,0
DA:4680,0
DA:4681,0
DA:4682,0
DA:4684,0
DA:4685,0
DA:4687,0
DA:4688,0
DA:4691,0
DA:4692,0
DA:4696,0
DA:4697,0
DA:4698,0
DA:4699,0
DA:4700,0
DA:4702,0
DA:4705,0
DA:4706,0
DA:4707,0
DA:4708,0
DA:4709,0
DA:4712,0
DA:4713,0
DA:4715,0
DA:4716,0
DA:4717,0
DA:4719,0
DA:4721,0
DA:4722,0
DA:4724,0
DA:4726,0
DA:4728,0
DA:4729,0
DA:4730,0
DA:4731,0
DA:4732,0
DA:4733,0
DA:4736,0
DA:4738,0
DA:4740,0
DA:4741,0
DA:4745,0
DA:4746,0
DA:4749,0
DA:4750,0
DA:4751,0
DA:4754,0
DA:4756,0
DA:4757,0
DA:4759,0
DA:4760,0
DA:4761,0
DA:4763,0
DA:4764,0
DA:4766,0
DA:4768,0
DA:4769,0
DA:4771,0
DA:4773,0
DA:4774,0
DA:4776,0
DA:4777,0
DA:4780,0
DA:4782,0
DA:4783,0
DA:4784,0
DA:4785,0
DA:4786,0
DA:4788,0
DA:4790,0
DA:4793,0
DA:4794,0
DA:4797,0
DA:4799,0
DA:4800,0
DA:4801,0
DA:4803,0
DA:4805,0
DA:4807,0
DA:4809,0
DA:4810,0
DA:4811,0
DA:4814,0
DA:4815,0
DA:4817,0
DA:4818,0
DA:4821,0
DA:4822,0
DA:4824,0
DA:4825,0
DA:4827,0
DA:4828,0
DA:4829,0
DA:4830,0
DA:4831,0
DA:4833,0
DA:4835,0
DA:4841,0
DA:4842,0
DA:4843,0
DA:4845,0
DA:4850,0
DA:4851,0
DA:4853,0
DA:4855,0
DA:4856,0
DA:4857,0
DA:4858,0
DA:4859,0
DA:4860,0
DA:4862,0
DA:4864,0
DA:4865,0
DA:4867,0
DA:4868,0
DA:4869,0
DA:4871,0
DA:4876,0
DA:4877,0
DA:4880,0
DA:4882,0
DA:4883,0
DA:4884,0
DA:4885,0
DA:4886,0
DA:4887,0
DA:4889,0
DA:4890,0
DA:4902,0
DA:4903,0
DA:4904,0
DA:4905,0
DA:4906,0
DA:4907,0
DA:4911,0
DA:4912,0
DA:4913,0
DA:4914,0
DA:4915,0
DA:4916,0
DA:4919,0
DA:4920,0
DA:4922,0
DA:4923,0
DA:4924,0
DA:4926,0
DA:4927,0
DA:4928,0
DA:4929,0
DA:4930,0
DA:4935,0
DA:4936,0
DA:4937,0
DA:4938,0
DA:4942,0
DA:4943,0
DA:4944,0
DA:4946,0
DA:4948,0
DA:4949,0
DA:4950,0
DA:4955,0
DA:4957,0
DA:4958,0
DA:4959,0
DA:4961,0
DA:4971,0
DA:5017,0
DA:5021,87
DA:5031,87
DA:5038,1
DA:5039,3
DA:5042,1
DA:5046,0
DA:5047,0
DA:5048,0
DA:5050,1
DA:5052,2
DA:5054,1
DA:5055,0
DA:5056,0
DA:5057,0
DA:5058,0
DA:5059,0
DA:5063,1
DA:5077,1
DA:5078,1
DA:5079,1
DA:5080,1
DA:5082,1
DA:5088,1
DA:5089,1
DA:5090,1
DA:5095,1
DA:5096,1
DA:5097,1
DA:5098,0
DA:5099,0
DA:5100,1
DA:5105,19
DA:5112,1
DA:5113,1
DA:5116,1
DA:5117,1
DA:5118,1
DA:5120,1
DA:5127,0
DA:5128,0
DA:5131,0
DA:5132,0
DA:5133,0
DA:5135,0
DA:5139,0
DA:5140,0
DA:5143,0
DA:5144,0
DA:5145,0
DA:5156,248
DA:5165,248
DA:5166,248
DA:5171,0
DA:5172,0
DA:5176,0
DA:5177,0
DA:5181,0
DA:5182,0
DA:5187,2
DA:5188,2
DA:5193,0
DA:5194,0
DA:5196,0
DA:5197,0
DA:5199,0
DA:5200,0
DA:5202,0
DA:5203,0
DA:5208,1
DA:5209,1
DA:5213,1
DA:5214,1
DA:5218,0
DA:5221,1
DA:5222,1
DA:5226,0
DA:5227,0
DA:5231,0
DA:5232,0
DA:5236,0
DA:5239,2
DA:5243,0
DA:5244,0
DA:5248,1
DA:5249,1
DA:5254,1
DA:5258,0
DA:5262,0
DA:5263,0
DA:5268,0
DA:5269,0
DA:5275,0
DA:5276,0
DA:5281,0
DA:5282,0
DA:5287,18
DA:5299,0
DA:5300,0
DA:5301,0
DA:5304,0
DA:5305,0
DA:5312,0
DA:5317,0
DA:5318,0
DA:5320,0
DA:5321,0
DA:5322,0
DA:5324,0
DA:5325,0
DA:5326,0
DA:5327,0
DA:5328,0
DA:5332,0
DA:5333,0
DA:5335,0
DA:5338,0
DA:5339,0
DA:5340,0
DA:5343,0
DA:5350,0
DA:5361,0
DA:5372,0
DA:5374,0
DA:5382,0
DA:5389,0
DA:5391,0
DA:5392,0
DA:5399,1
DA:5402,1
DA:5425,1
DA:5428,1
DA:5435,1
DA:5484,1
DA:5487,1
DA:5488,1
DA:5489,1
DA:5494,0
DA:5495,0
DA:5501,0
DA:5503,0
DA:5504,0
DA:5505,0
DA:5509,0
DA:5511,0
DA:5512,0
DA:5513,0
DA:5518,0
DA:5520,0
DA:5521,0
DA:5522,0
DA:5525,0
DA:5530,0
DA:5531,0
DA:5535,1
DA:5538,1
DA:5542,0
DA:5544,0
DA:5545,0
DA:5546,0
DA:5549,0
DA:5550,0
DA:5551,0
DA:5552,0
DA:5556,1
DA:5557,1
DA:5559,1
DA:5560,1
DA:5561,1
DA:5563,1
DA:5565,1
DA:5566,1
DA:5567,1
DA:5568,1
DA:5569,1
DA:5570,1
DA:5571,1
DA:5572,1
DA:5573,1
DA:5574,1
DA:5575,1
DA:5576,1
DA:5578,1
DA:5581,7
DA:5582,1
DA:5583,1
DA:5585,2
DA:5587,1
DA:5590,1
DA:5592,1
DA:5593,2
DA:5600,0
DA:5601,0
DA:5604,0
DA:5605,0
DA:5606,0
DA:5607,0
DA:5608,0
DA:5609,0
DA:5611,0
DA:5612,0
DA:5614,0
DA:5615,0
DA:5620,1
DA:5621,1
DA:5622,0
DA:5623,1
DA:5628,1
DA:5629,1
DA:5631,1
DA:5632,0
DA:5633,0
DA:5634,1
DA:5635,0
DA:5636,0
DA:5637,1
DA:5638,0
DA:5639,0
DA:5647,2
DA:5652,1
DA:5653,1
DA:5654,1
DA:5655,0
DA:5656,0
DA:5657,0
DA:5658,0
DA:5660,0
DA:5661,0
DA:5664,1
DA:5672,2
DA:5674,2
DA:5675,1
DA:5683,1
DA:5684,1
DA:5690,1
DA:5694,1
DA:5696,1
DA:5697,0
DA:5702,1
DA:5712,2
DA:5725,17
DA:5728,16
DA:5729,32
DA:5730,32
DA:5749,17
DA:5754,17
DA:5755,51
DA:5756,102
DA:5758,17
DA:5761,1
DA:5762,1
DA:5764,3
DA:5766,3
DA:5771,0
DA:5772,0
DA:5776,1
DA:5779,1
DA:5780,1
DA:5781,1
DA:5785,0
DA:5786,0
DA:5797,1
DA:5800,1
DA:5803,1
DA:5807,1
DA:5813,1
DA:5818,1
DA:5821,1
DA:5829,1
DA:5835,1
DA:5836,1
DA:5839,1
DA:5841,0
DA:5842,0
DA:5845,1
DA:5848,1
DA:5850,1
DA:5852,1
DA:5853,1
DA:5857,1
DA:5860,1
DA:5868,1
DA:5869,1
DA:5872,2
DA:5875,1
DA:5877,1
DA:5880,1
DA:5881,0
DA:5885,0
DA:5889,1
DA:5892,1
DA:5895,1
DA:5896,1
DA:5897,1
DA:5898,1
DA:5903,1
DA:5907,0
DA:5908,0
DA:5910,0
DA:5911,0
DA:5912,0
DA:5913,0
DA:5914,0
DA:5916,0
DA:5917,1
DA:5918,2
DA:5920,1
DA:5921,1
DA:5922,0
DA:5923,0
DA:5924,0
DA:5926,0
DA:5929,0
DA:5933,0
DA:5935,0
DA:5942,1
DA:5943,1
DA:5944,1
DA:5946,1
DA:5950,1
DA:5953,1
DA:5956,1
DA:5957,0
DA:5966,1
DA:5968,1
DA:5970,0
DA:5974,1
DA:5976,1
DA:5977,0
DA:5986,1
DA:5994,1
DA:5995,1
DA:5996,1
DA:5997,0
DA:5998,0
DA:5999,0
DA:6003,0
DA:6004,0
DA:6006,0
DA:6008,1
DA:6017,2
DA:6019,2
DA:6020,0
DA:6023,2
DA:6024,2
DA:6026,2
DA:6027,2
DA:6028,0
DA:6029,0
DA:6030,0
DA:6031,0
DA:6032,0
DA:6033,0
DA:6034,0
DA:6035,0
DA:6036,0
DA:6037,0
DA:6038,0
DA:6039,0
DA:6040,0
DA:6041,0
DA:6042,0
DA:6043,0
DA:6044,0
DA:6045,0
DA:6046,0
DA:6047,0
DA:6048,0
DA:6049,0
DA:6050,0
DA:6051,0
DA:6052,0
DA:6053,0
DA:6055,0
DA:6061,4
DA:6062,4
DA:6063,4
DA:6064,4
DA:6067,0
DA:6068,0
DA:6070,0
DA:6072,0
DA:6079,0
DA:6080,0
DA:6090,1
DA:6092,1
DA:6093,1
DA:6095,1
DA:6096,1
DA:6098,1
DA:6099,1
DA:6100,3
DA:6105,1
DA:6106,1
DA:6107,2
DA:6108,2
DA:6109,1
DA:6111,18
DA:6112,17
DA:6113,51
DA:6117,34
DA:6118,17
DA:6119,17
DA:6122,17
DA:6123,17
DA:6125,17
DA:6126,17
DA:6130,17
DA:6131,0
DA:6132,17
DA:6133,17
DA:6135,17
DA:6136,17
DA:6138,17
DA:6139,17
DA:6140,17
DA:6141,1
DA:6142,1
DA:6143,1
DA:6149,0
DA:6150,0
DA:6151,0
DA:6152,0
DA:6153,0
DA:6154,0
DA:6156,0
DA:6157,0
DA:6158,0
DA:6160,0
DA:6161,0
DA:6165,0
DA:6168,0
DA:6170,0
DA:6172,0
DA:6173,0
DA:6175,0
DA:6176,0
DA:6177,0
DA:6178,0
DA:6179,0
DA:6180,0
DA:6181,0
DA:6182,0
DA:6185,0
DA:6187,0
DA:6189,0
DA:6190,0
DA:6191,0
DA:6194,0
DA:6196,0
DA:6200,0
DA:6202,0
DA:6203,0
DA:6204,0
DA:6205,0
DA:6206,0
DA:6207,0
DA:6208,0
DA:6209,0
DA:6210,0
DA:6211,0
DA:6212,0
DA:6213,0
DA:6214,0
DA:6216,0
DA:6217,0
DA:6218,0
DA:6220,0
DA:6227,0
DA:6229,0
DA:6230,0
DA:6231,0
DA:6233,0
DA:6238,87
DA:6239,87
DA:6243,1
DA:6247,87
DA:6251,70
DA:6252,70
DA:6253,68
DA:6255,2
DA:6256,0
DA:6258,2
DA:6263,0
DA:6265,0
DA:6268,0
DA:6269,0
DA:6272,0
DA:6273,0
DA:6275,0
DA:6278,1
DA:6279,2
DA:6281,1
DA:6283,1
DA:6285,1
DA:6298,0
DA:6301,0
DA:6310,43
DA:6312,8
DA:6316,8
DA:6318,8
DA:6324,0
DA:6325,0
DA:6326,0
DA:6327,0
DA:6328,0
DA:6330,0
DA:6338,0
DA:6341,0
DA:6344,0
DA:6345,0
DA:6346,0
DA:6347,0
DA:6350,0
DA:6353,0
DA:6354,0
DA:6360,0
DA:6363,0
DA:6364,0
DA:6376,0
DA:6378,0
DA:6381,0
DA:6384,0
DA:6385,0
DA:6392,0
DA:6394,0
DA:6397,0
DA:6400,0
DA:6401,0
DA:6409,0
DA:6411,0
DA:6414,0
DA:6417,0
DA:6418,0
DA:6427,0
DA:6428,0
DA:6429,0
DA:6430,0
DA:6431,0
DA:6432,0
DA:6444,0
DA:6445,0
DA:6452,0
DA:6453,0
DA:6454,0
DA:6455,0
DA:6458,0
DA:6460,0
DA:6461,0
DA:6462,0
DA:6463,0
DA:6464,0
DA:6465,0
DA:6466,0
DA:6467,0
DA:6468,0
DA:6469,0
DA:6470,0
DA:6471,0
DA:6473,0
DA:6475,0
DA:6574,0
DA:6584,0
DA:6585,0
DA:6586,0
DA:6587,0
DA:6588,0
DA:6589,0
DA:6590,0
DA:6591,0
DA:6592,0
DA:6593,0
DA:6594,0
DA:6595,0
DA:6596,0
DA:6597,0
DA:6598,0
DA:6599,0
DA:6600,0
DA:6601,0
DA:6602,0
DA:6603,0
DA:6604,0
DA:6605,0
DA:6609,0
DA:6610,0
DA:6611,0
DA:6612,0
DA:6613,0
DA:6615,0
DA:6616,0
DA:6617,0
DA:6618,0
DA:6619,0
DA:6620,0
DA:6621,0
DA:6623,0
DA:6630,1
DA:6631,1
DA:6632,1
DA:6633,0
DA:6634,0
DA:6638,0
DA:6639,0
DA:6640,0
DA:6642,0
DA:6643,0
DA:6644,0
DA:6645,0
DA:6647,0
DA:6650,0
DA:6653,0
DA:6658,0
DA:6659,0
DA:6663,0
DA:6667,0
DA:6671,1
DA:6675,0
DA:6677,2
DA:6685,1
DA:6735,1
DA:6748,1
DA:6749,0
DA:6750,0
DA:6751,0
DA:6758,1
DA:6760,1
DA:6762,1
DA:6764,1
DA:6765,2
DA:6766,1
DA:6779,1
DA:6780,1
DA:6794,1
DA:6798,1
DA:6800,1
DA:6804,0
DA:6808,0
DA:6810,0
DA:6814,0
DA:6816,0
DA:6817,0
DA:6818,0
DA:6819,0
DA:6824,0
DA:6826,0
DA:6834,0
DA:6837,0
DA:6838,0
DA:6839,0
DA:6840,0
DA:6841,0
DA:6843,0
DA:6846,0
DA:6850,0
DA:6858,0
DA:6865,0
DA:6866,0
DA:6867,0
DA:6868,0
DA:6872,0
DA:6882,0
DA:6883,0
DA:6892,0
DA:6893,0
DA:6894,0
DA:6895,0
DA:6896,0
DA:6898,0
DA:6899,0
DA:6902,0
DA:6903,0
DA:6904,0
LF:2692
LH:734
end_of_record
TN:
SF:/mnt/c/users/t470/desktop/funda/lab11/project2/include/my_lib.hpp
FN:129,129,_ZNK12my_container4ListIiE8IteratoreqERKS2_
FN:130,130,_ZNK12my_container4ListIiE8IteratorneERKS2_
FN:154,154,_ZN12my_container4ListIiE13ConstIteratorC2EPKNS1_4NodeE
FN:156,156,_ZN12my_container4ListIiE13ConstIteratorC2ERKS2_
FN:157,157,_ZNK12my_container4ListIiE13ConstIteratordeEv
FN:158,161,_ZN12my_container4ListIiE13ConstIteratorppEv
FN:162,166,_ZN12my_container4ListIiE13ConstIteratorppEi
FN:204,204,_ZNK12my_container4ListIiE13ConstIteratorneERKS2_
FN:230,230,_ZN12my_container4ListIiE15ReverseIteratorC2EPNS1_4NodeE
FN:232,232,_ZNK12my_container4ListIiE15ReverseIteratordeEv
FN:233,236,_ZN12my_container4ListIiE15ReverseIteratorppEv
FN:279,279,_ZNK12my_container4ListIiE15ReverseIteratorneERKS2_
FN:31,31,_ZN9ContainerIiEC2Ev
FN:37,37,_ZN9ContainerIiED0Ev
FN:37,37,_ZN9ContainerIiED2Ev
FN:386,390,_ZN12my_container4ListIiEC2Ev
FN:391,407,_ZN12my_container4ListIiEC2ERKSt16initializer_listIiE
FN:408,415,_ZN12my_container4ListIiEC2ERKS1_
FN:416,423,_ZN12my_container4ListIiED0Ev
FN:416,423,_ZN12my_container4ListIiED2Ev
FN:425,425,_ZNK12my_container4ListIiE6rbeginEv
FN:427,427,_ZNK12my_container4ListIiE4rendEv
FN:429,429,_ZNK12my_container4ListIiE5beginEv
FN:430,430,_ZNK12my_container4ListIiE3endEv
FN:431,431,_ZNK12my_container4ListIiE6cbeginEv
FN:432,432,_ZNK12my_container4ListIiE4cendEv
FN:434,439,_ZN12my_container4ListIiE5frontEv
FN:440,445,_ZN12my_container4ListIiE4backEv
FN:446,446,_ZNK12my_container4ListIiE5emptyEv
FN:447,447,_ZNK12my_container4ListIiE4sizeEv
FN:448,448,_ZNK12my_container4ListIiE8max_sizeEv
FN:450,466,_ZNK12my_container4ListIiEssERKS1_
FN:467,471,_ZNK12my_container4ListIiEeqERK9ContainerIiE
FN:472,472,_ZNK12my_container4ListIiEneERK9ContainerIiE
FN:473,473,_ZNK12my_container4ListIiEeqERKS1_
FN:474,474,_ZNK12my_container4ListIiEneERKS1_
FN:475,475,_ZNK12my_container4ListIiEltERKS1_
FN:476,476,_ZNK12my_container4ListIiEgtERKS1_
FN:477,477,_ZNK12my_container4ListIiEleERKS1_
FN:478,478,_ZNK12my_container4ListIiEgeERKS1_
FN:480,490,_ZN12my_container4ListIiE5clearEv
FN:49,49,_ZN12my_container4ListIiE4NodeC2Ev
FN:491,501,_ZN12my_container4ListIiE6insertENS1_8IteratorERKi
FN:502,507,_ZN12my_container4ListIiE5eraseENS1_8IteratorE
FN:508,517,_ZN12my_container4ListIiE9push_backERKi
FN:51,51,_ZN12my_container4ListIiE4NodeC2ERKi
FN:518,531,_ZN12my_container4ListIiE8pop_backEv
FN:53,53,_ZN12my_container4ListIiE4NodeC2ERKiRPS2_S6_
FN:532,537,_ZN12my_container4ListIiE10push_frontERKi
FN:538,551,_ZN12my_container4ListIiE9pop_frontEv
FN:54,57,_ZN12my_container4ListIiE4NodeC2ERKiPPS2_S6_
FN:553,568,_ZN12my_container4ListIiE6resizeEm
FN:569,581,_ZN12my_container4ListIiE6resizeEmRKi
FN:583,590,_ZN12my_container4ListIiE4swapERS1_S2_
FN:66,66,_ZNK12my_container4ListIiE6_beginEv
FN:67,67,_ZNK12my_container4ListIiE7_cbeginEv
FN:68,68,_ZNK12my_container4ListIiE4_endEv
FN:69,69,_ZNK12my_container4ListIiE5_cendEv
FN:70,70,_ZNK12my_container4ListIiE5_rendEv
FN:72,72,_ZNK12my_container4ListIiE7_rbeginEv
FN:81,81,_ZN12my_container4ListIiE8IteratorC2EPNS1_4NodeE
FN:82,82,_ZN12my_container4ListIiE8IteratorC2ERKS2_
FN:83,83,_ZNK12my_container4ListIiE8IteratordeEv
FN:84,87,_ZN12my_container4ListIiE8IteratorppEv
FN:88,92,_ZN12my_container4ListIiE8IteratorppEi
FNDA:1,_ZNK12my_container4ListIiE8IteratoreqERKS2_
FNDA:11,_ZNK12my_container4ListIiE8IteratorneERKS2_
FNDA:57,_ZN12my_container4ListIiE13ConstIteratorC2EPKNS1_4NodeE
FNDA:34,_ZN12my_container4ListIiE13ConstIteratorC2ERKS2_
FNDA:69,_ZNK12my_container4ListIiE13ConstIteratordeEv
FNDA:3,_ZN12my_container4ListIiE13ConstIteratorppEv
FNDA:34,_ZN12my_container4ListIiE13ConstIteratorppEi
FNDA:45,_ZNK12my_container4ListIiE13ConstIteratorneERKS2_
FNDA:5,_ZN12my_container4ListIiE15ReverseIteratorC2EPNS1_4NodeE
FNDA:3,_ZNK12my_container4ListIiE15ReverseIteratordeEv
FNDA:3,_ZN12my_container4ListIiE15ReverseIteratorppEv
FNDA:4,_ZNK12my_container4ListIiE15ReverseIteratorneERKS2_
FNDA:23,_ZN9ContainerIiEC2Ev
FNDA:0,_ZN9ContainerIiED0Ev
FNDA:23,_ZN9ContainerIiED2Ev
FNDA:4,_ZN12my_container4ListIiEC2Ev
FNDA:18,_ZN12my_container4ListIiEC2ERKSt16initializer_listIiE
FNDA:1,_ZN12my_container4ListIiEC2ERKS1_
FNDA:0,_ZN12my_container4ListIiED0Ev
FNDA:23,_ZN12my_container4ListIiED2Ev
FNDA:1,_ZNK12my_container4ListIiE6rbeginEv
FNDA:4,_ZNK12my_container4ListIiE4rendEv
FNDA:6,_ZNK12my_container4ListIiE5beginEv
FNDA:11,_ZNK12my_container4ListIiE3endEv
FNDA:12,_ZNK12my_container4ListIiE6cbeginEv
FNDA:45,_ZNK12my_container4ListIiE4cendEv
FNDA:11,_ZN12my_container4ListIiE5frontEv
FNDA:11,_ZN12my_container4ListIiE4backEv
FNDA:4,_ZNK12my_container4ListIiE5emptyEv
FNDA:15,_ZNK12my_container4ListIiE4sizeEv
FNDA:0,_ZNK12my_container4ListIiE8max_sizeEv
FNDA:9,_ZNK12my_container4ListIiEssERKS1_
FNDA:0,_ZNK12my_container4ListIiEeqERK9ContainerIiE
FNDA:0,_ZNK12my_container4ListIiEneERK9ContainerIiE
FNDA:4,_ZNK12my_container4ListIiEeqERKS1_
FNDA:1,_ZNK12my_container4ListIiEneERKS1_
FNDA:3,_ZNK12my_container4ListIiEltERKS1_
FNDA:2,_ZNK12my_container4ListIiEgtERKS1_
FNDA:1,_ZNK12my_container4ListIiEleERKS1_
FNDA:1,_ZNK12my_container4ListIiEgeERKS1_
FNDA:1,_ZN12my_container4ListIiE5clearEv
FNDA:5,_ZN12my_container4ListIiE4NodeC2Ev
FNDA:1,_ZN12my_container4ListIiE6insertENS1_8IteratorERKi
FNDA:1,_ZN12my_container4ListIiE5eraseENS1_8IteratorE
FNDA:8,_ZN12my_container4ListIiE9push_backERKi
FNDA:18,_ZN12my_container4ListIiE4NodeC2ERKi
FNDA:2,_ZN12my_container4ListIiE8pop_backEv
FNDA:1,_ZN12my_container4ListIiE4NodeC2ERKiRPS2_S6_
FNDA:2,_ZN12my_container4ListIiE10push_frontERKi
FNDA:3,_ZN12my_container4ListIiE9pop_frontEv
FNDA:42,_ZN12my_container4ListIiE4NodeC2ERKiPPS2_S6_
FNDA:1,_ZN12my_container4ListIiE6resizeEm
FNDA:1,_ZN12my_container4ListIiE6resizeEmRKi
FNDA:1,_ZN12my_container4ListIiE4swapERS1_S2_
FNDA:10,_ZNK12my_container4ListIiE6_beginEv
FNDA:12,_ZNK12my_container4ListIiE7_cbeginEv
FNDA:11,_ZNK12my_container4ListIiE4_endEv
FNDA:45,_ZNK12my_container4ListIiE5_cendEv
FNDA:4,_ZNK12my_container4ListIiE5_rendEv
FNDA:1,_ZNK12my_container4ListIiE7_rbeginEv
FNDA:18,_ZN12my_container4ListIiE8IteratorC2EPNS1_4NodeE
FNDA:8,_ZN12my_container4ListIiE8IteratorC2ERKS2_
FNDA:10,_ZNK12my_container4ListIiE8IteratordeEv
FNDA:6,_ZN12my_container4ListIiE8IteratorppEv
FNDA:6,_ZN12my_container4ListIiE8IteratorppEi
FNF:65
FNH:60
DA:31,23
DA:37,23
DA:49,5
DA:51,18
DA:53,1
DA:54,42
DA:55,42
DA:56,42
DA:57,42
DA:66,10
DA:67,12
DA:68,11
DA:69,45
DA:70,4
DA:72,1
DA:81,18
DA:82,8
DA:83,10
DA:84,6
DA:85,6
DA:86,6
DA:88,6
DA:89,6
DA:90,6
DA:91,6
DA:129,1
DA:130,11
DA:154,57
DA:156,34
DA:157,69
DA:158,3
DA:159,3
DA:160,3
DA:162,34
DA:163,34
DA:164,34
DA:165,34
DA:204,45
DA:230,5
DA:232,3
DA:233,3
DA:234,3
DA:235,3
DA:279,4
DA:386,4
DA:387,4
DA:388,4
DA:389,4
DA:390,4
DA:391,18
DA:392,18
DA:393,18
DA:394,0
DA:395,0
DA:398,18
DA:399,18
DA:400,18
DA:401,52
DA:402,34
DA:403,34
DA:404,34
DA:407,18
DA:408,1
DA:409,1
DA:410,1
DA:411,1
DA:412,5
DA:413,4
DA:415,1
DA:416,23
DA:417,23
DA:418,81
DA:419,58
DA:420,58
DA:421,58
DA:423,46
DA:425,1
DA:427,4
DA:429,6
DA:430,11
DA:431,12
DA:432,45
DA:434,11
DA:435,11
DA:436,10
DA:438,1
DA:440,11
DA:441,11
DA:442,10
DA:444,1
DA:446,4
DA:447,15
DA:448,0
DA:450,9
DA:451,9
DA:452,3
DA:454,6
DA:455,1
DA:457,20
DA:458,16
DA:459,1
DA:461,15
DA:462,0
DA:465,4
DA:467,0
DA:468,0
DA:469,0
DA:470,0
DA:472,0
DA:473,4
DA:474,1
DA:475,3
DA:476,2
DA:477,1
DA:478,1
DA:480,1
DA:481,1
DA:482,0
DA:484,3
DA:485,2
DA:486,2
DA:487,2
DA:489,1
DA:491,1
DA:492,1
DA:493,1
DA:494,1
DA:495,1
DA:497,1
DA:498,1
DA:499,1
DA:501,1
DA:502,1
DA:503,1
DA:504,1
DA:505,1
DA:506,1
DA:507,1
DA:508,8
DA:509,8
DA:510,2
DA:513,6
DA:514,6
DA:516,8
DA:517,8
DA:518,2
DA:519,2
DA:520,0
DA:522,2
DA:523,0
DA:526,2
DA:527,2
DA:528,2
DA:530,2
DA:531,2
DA:532,2
DA:533,2
DA:534,2
DA:535,2
DA:536,2
DA:537,2
DA:538,3
DA:539,3
DA:540,0
DA:542,3
DA:543,1
DA:546,2
DA:547,2
DA:548,2
DA:549,2
DA:551,3
DA:553,1
DA:554,1
DA:555,0
DA:557,1
DA:558,2
DA:559,1
DA:560,1
DA:561,1
DA:562,1
DA:566,0
DA:569,1
DA:570,1
DA:571,0
DA:573,1
DA:574,0
DA:577,3
DA:578,2
DA:583,1
DA:584,1
DA:585,0
DA:587,4
DA:588,3
LF:193
LH:175
end_of_record
TN:
SF:/mnt/c/users/t470/desktop/funda/lab11/project2/tests/test_my_lib.cpp
FN:104,104,_ZN22ListTest_Iterator_Test8TestBodyEv
FN:104,104,_ZN22ListTest_Iterator_TestC2Ev
FN:104,104,_ZN22ListTest_Iterator_TestD0Ev
FN:104,104,_ZN22ListTest_Iterator_TestD2Ev
FN:113,113,_ZN27ListTest_ConstIterator_Test8TestBodyEv
FN:113,113,_ZN27ListTest_ConstIterator_TestC2Ev
FN:113,113,_ZN27ListTest_ConstIterator_TestD0Ev
FN:113,113,_ZN27ListTest_ConstIterator_TestD2Ev
FN:122,122,_ZN29ListTest_ReverseIterator_Test8TestBodyEv
FN:122,122,_ZN29ListTest_ReverseIterator_TestC2Ev
FN:122,122,_ZN29ListTest_ReverseIterator_TestD0Ev
FN:122,122,_ZN29ListTest_ReverseIterator_TestD2Ev
FN:13,13,_ZN40ListTest_InitializerListConstructor_Test8TestBodyEv
FN:13,13,_ZN40ListTest_InitializerListConstructor_TestC2Ev
FN:13,13,_ZN40ListTest_InitializerListConstructor_TestD0Ev
FN:13,13,_ZN40ListTest_InitializerListConstructor_TestD2Ev
FN:131,131,_ZN33ListTest_ComparisonOperators_Test8TestBodyEv
FN:131,131,_ZN33ListTest_ComparisonOperators_TestC2Ev
FN:131,131,_ZN33ListTest_ComparisonOperators_TestD0Ev
FN:131,131,_ZN33ListTest_ComparisonOperators_TestD2Ev
FN:147,147,_ZN20ListTest_Resize_Test8TestBodyEv
FN:147,147,_ZN20ListTest_Resize_TestC2Ev
FN:147,147,_ZN20ListTest_Resize_TestD0Ev
FN:147,147,_ZN20ListTest_Resize_TestD2Ev
FN:158,158,_ZN18ListTest_Swap_Test8TestBodyEv
FN:158,158,_ZN18ListTest_Swap_TestC2Ev
FN:158,158,_ZN18ListTest_Swap_TestD0Ev
FN:158,158,_ZN18ListTest_Swap_TestD2Ev
FN:168,168,_ZN23ListTest_EdgeCases_Test8TestBodyEv
FN:168,168,_ZN23ListTest_EdgeCases_TestC2Ev
FN:168,168,_ZN23ListTest_EdgeCases_TestD0Ev
FN:168,168,_ZN23ListTest_EdgeCases_TestD2Ev
FN:181,184,main
FN:21,21,_ZN33ListTest_CopyListConstructor_Test8TestBodyEv
FN:21,21,_ZN33ListTest_CopyListConstructor_TestC2Ev
FN:21,21,_ZN33ListTest_CopyListConstructor_TestD0Ev
FN:21,21,_ZN33ListTest_CopyListConstructor_TestD2Ev
FN:27,27,_ZN22ListTest_PushBack_Test8TestBodyEv
FN:27,27,_ZN22ListTest_PushBack_TestC2Ev
FN:27,27,_ZN22ListTest_PushBack_TestD0Ev
FN:27,27,_ZN22ListTest_PushBack_TestD2Ev
FN:38,38,_ZN23ListTest_PushFront_Test8TestBodyEv
FN:38,38,_ZN23ListTest_PushFront_TestC2Ev
FN:38,38,_ZN23ListTest_PushFront_TestD0Ev
FN:38,38,_ZN23ListTest_PushFront_TestD2Ev
FN:49,49,_ZN21ListTest_PopBack_Test8TestBodyEv
FN:49,49,_ZN21ListTest_PopBack_TestC2Ev
FN:49,49,_ZN21ListTest_PopBack_TestD0Ev
FN:49,49,_ZN21ListTest_PopBack_TestD2Ev
FN:60,60,_ZN22ListTest_PopFront_Test8TestBodyEv
FN:60,60,_ZN22ListTest_PopFront_TestC2Ev
FN:60,60,_ZN22ListTest_PopFront_TestD0Ev
FN:60,60,_ZN22ListTest_PopFront_TestD2Ev
FN:7,7,_ZN32ListTest_DefaultConstructor_Test8TestBodyEv
FN:7,7,_ZN32ListTest_DefaultConstructor_TestC2Ev
FN:7,7,_ZN32ListTest_DefaultConstructor_TestD0Ev
FN:7,7,_ZN32ListTest_DefaultConstructor_TestD2Ev
FN:71,71,_ZN20ListTest_Insert_Test8TestBodyEv
FN:71,71,_ZN20ListTest_Insert_TestC2Ev
FN:71,71,_ZN20ListTest_Insert_TestD0Ev
FN:71,71,_ZN20ListTest_Insert_TestD2Ev
FN:86,95,_ZN19ListTest_Erase_Test8TestBodyEv
FN:86,95,_ZN19ListTest_Erase_TestC2Ev
FN:86,95,_ZN19ListTest_Erase_TestD0Ev
FN:86,95,_ZN19ListTest_Erase_TestD2Ev
FN:97,97,_ZN19ListTest_Clear_Test8TestBodyEv
FN:97,97,_ZN19ListTest_Clear_TestC2Ev
FN:97,97,_ZN19ListTest_Clear_TestD0Ev
FN:97,97,_ZN19ListTest_Clear_TestD2Ev
FNDA:1,_ZN22ListTest_Iterator_Test8TestBodyEv
FNDA:1,_ZN22ListTest_Iterator_TestC2Ev
FNDA:1,_ZN22ListTest_Iterator_TestD0Ev
FNDA:1,_ZN22ListTest_Iterator_TestD2Ev
FNDA:1,_ZN27ListTest_ConstIterator_Test8TestBodyEv
FNDA:1,_ZN27ListTest_ConstIterator_TestC2Ev
FNDA:1,_ZN27ListTest_ConstIterator_TestD0Ev
FNDA:1,_ZN27ListTest_ConstIterator_TestD2Ev
FNDA:1,_ZN29ListTest_ReverseIterator_Test8TestBodyEv
FNDA:1,_ZN29ListTest_ReverseIterator_TestC2Ev
FNDA:1,_ZN29ListTest_ReverseIterator_TestD0Ev
FNDA:1,_ZN29ListTest_ReverseIterator_TestD2Ev
FNDA:1,_ZN40ListTest_InitializerListConstructor_Test8TestBodyEv
FNDA:1,_ZN40ListTest_InitializerListConstructor_TestC2Ev
FNDA:1,_ZN40ListTest_InitializerListConstructor_TestD0Ev
FNDA:1,_ZN40ListTest_InitializerListConstructor_TestD2Ev
FNDA:1,_ZN33ListTest_ComparisonOperators_Test8TestBodyEv
FNDA:1,_ZN33ListTest_ComparisonOperators_TestC2Ev
FNDA:1,_ZN33ListTest_ComparisonOperators_TestD0Ev
FNDA:1,_ZN33ListTest_ComparisonOperators_TestD2Ev
FNDA:1,_ZN20ListTest_Resize_Test8TestBodyEv
FNDA:1,_ZN20ListTest_Resize_TestC2Ev
FNDA:1,_ZN20ListTest_Resize_TestD0Ev
FNDA:1,_ZN20ListTest_Resize_TestD2Ev
FNDA:1,_ZN18ListTest_Swap_Test8TestBodyEv
FNDA:1,_ZN18ListTest_Swap_TestC2Ev
FNDA:1,_ZN18ListTest_Swap_TestD0Ev
FNDA:1,_ZN18ListTest_Swap_TestD2Ev
FNDA:1,_ZN23ListTest_EdgeCases_Test8TestBodyEv
FNDA:1,_ZN23ListTest_EdgeCases_TestC2Ev
FNDA:1,_ZN23ListTest_EdgeCases_TestD0Ev
FNDA:1,_ZN23ListTest_EdgeCases_TestD2Ev
FNDA:1,main
FNDA:1,_ZN33ListTest_CopyListConstructor_Test8TestBodyEv
FNDA:1,_ZN33ListTest_CopyListConstructor_TestC2Ev
FNDA:1,_ZN33ListTest_CopyListConstructor_TestD0Ev
FNDA:1,_ZN33ListTest_CopyListConstructor_TestD2Ev
FNDA:1,_ZN22ListTest_PushBack_Test8TestBodyEv
FNDA:1,_ZN22ListTest_PushBack_TestC2Ev
FNDA:1,_ZN22ListTest_PushBack_TestD0Ev
FNDA:1,_ZN22ListTest_PushBack_TestD2Ev
FNDA:1,_ZN23ListTest_PushFront_Test8TestBodyEv
FNDA:1,_ZN23ListTest_PushFront_TestC2Ev
FNDA:1,_ZN23ListTest_PushFront_TestD0Ev
FNDA:1,_ZN23ListTest_PushFront_TestD2Ev
FNDA:1,_ZN21ListTest_PopBack_Test8TestBodyEv
FNDA:1,_ZN21ListTest_PopBack_TestC2Ev
FNDA:1,_ZN21ListTest_PopBack_TestD0Ev
FNDA:1,_ZN21ListTest_PopBack_TestD2Ev
FNDA:1,_ZN22ListTest_PopFront_Test8TestBodyEv
FNDA:1,_ZN22ListTest_PopFront_TestC2Ev
FNDA:1,_ZN22ListTest_PopFront_TestD0Ev
FNDA:1,_ZN22ListTest_PopFront_TestD2Ev
FNDA:1,_ZN32ListTest_DefaultConstructor_Test8TestBodyEv
FNDA:1,_ZN32ListTest_DefaultConstructor_TestC2Ev
FNDA:1,_ZN32ListTest_DefaultConstructor_TestD0Ev
FNDA:1,_ZN32ListTest_DefaultConstructor_TestD2Ev
FNDA:1,_ZN20ListTest_Insert_Test8TestBodyEv
FNDA:1,_ZN20ListTest_Insert_TestC2Ev
FNDA:1,_ZN20ListTest_Insert_TestD0Ev
FNDA:1,_ZN20ListTest_Insert_TestD2Ev
FNDA:1,_ZN19ListTest_Erase_Test8TestBodyEv
FNDA:1,_ZN19ListTest_Erase_TestC2Ev
FNDA:1,_ZN19ListTest_Erase_TestD0Ev
FNDA:1,_ZN19ListTest_Erase_TestD2Ev
FNDA:1,_ZN19ListTest_Clear_Test8TestBodyEv
FNDA:1,_ZN19ListTest_Clear_TestC2Ev
FNDA:1,_ZN19ListTest_Clear_TestD0Ev
FNDA:1,_ZN19ListTest_Clear_TestD2Ev
FNF:69
FNH:69
DA:7,4
DA:8,1
DA:9,1
DA:10,1
DA:11,2
DA:13,4
DA:14,1
DA:15,1
DA:16,1
DA:17,1
DA:18,1
DA:19,2
DA:21,4
DA:22,1
DA:23,1
DA:24,1
DA:25,2
DA:27,4
DA:28,1
DA:29,1
DA:30,1
DA:31,1
DA:33,1
DA:34,1
DA:35,1
DA:36,2
DA:38,4
DA:39,1
DA:40,1
DA:41,1
DA:42,1
DA:44,1
DA:45,1
DA:46,1
DA:47,2
DA:49,4
DA:50,1
DA:51,1
DA:52,1
DA:53,1
DA:55,1
DA:56,1
DA:57,1
DA:58,2
DA:60,4
DA:61,1
DA:62,1
DA:63,1
DA:64,1
DA:66,1
DA:67,1
DA:68,1
DA:69,2
DA:71,4
DA:72,1
DA:73,1
DA:74,1
DA:75,1
DA:77,1
DA:78,1
DA:79,1
DA:81,1
DA:82,1
DA:83,1
DA:84,2
DA:86,4
DA:87,1
DA:88,1
DA:89,1
DA:90,1
DA:92,1
DA:93,1
DA:94,1
DA:95,2
DA:97,4
DA:98,1
DA:99,1
DA:100,1
DA:101,1
DA:102,2
DA:104,4
DA:105,1
DA:106,1
DA:107,4
DA:108,3
DA:110,1
DA:111,2
DA:113,4
DA:114,1
DA:115,1
DA:116,4
DA:117,3
DA:119,1
DA:120,2
DA:122,4
DA:123,1
DA:124,1
DA:125,4
DA:126,3
DA:128,3
DA:129,2
DA:131,4
DA:132,1
DA:133,1
DA:134,1
DA:135,1
DA:137,1
DA:138,1
DA:139,1
DA:140,1
DA:141,1
DA:142,1
DA:143,1
DA:144,1
DA:145,2
DA:147,4
DA:148,1
DA:149,1
DA:150,1
DA:151,1
DA:153,1
DA:154,1
DA:155,1
DA:156,2
DA:158,4
DA:159,1
DA:160,1
DA:162,1
DA:164,1
DA:165,1
DA:166,2
DA:168,4
DA:169,1
DA:170,1
DA:171,1
DA:173,2
DA:174,1
DA:175,1
DA:177,1
DA:178,1
DA:179,2
DA:181,1
DA:182,1
DA:183,1
LF:144
LH:144
end_of_record
TN:
SF:/usr/include/c++/13/atomic
FN:833,833,_ZNSt6atomicIiEC2Ei
FNDA:0,_ZNSt6atomicIiEC2Ei
FNF:1
FNH:0
DA:833,0
LF:1
LH:0
end_of_record
TN:
SF:/usr/include/c++/13/bits/alloc_traits.h
FNF:0
FNH:0
DA:482,195
DA:517,195
DA:540,54
DA:542,54
DA:560,2
DA:562,2
DA:576,335
DA:588,143
DA:722,0
DA:755,2
DA:759,2
DA:792,30
DA:948,64
DA:949,64
LF:14
LH:13
end_of_record
TN:
SF:/usr/include/c++/13/bits/allocated_ptr.h
FN:53,55,_ZNSt15__allocated_ptrISaISt10_List_nodeISt4pairIcPKcEEEEC2ERS6_PS5_
FN:71,75,_ZNSt15__allocated_ptrISaISt10_List_nodeISt4pairIcPKcEEEED2Ev
FN:79,83,_ZNSt15__allocated_ptrISaISt10_List_nodeISt4pairIcPKcEEEEaSEDn
FNDA:0,_ZNSt15__allocated_ptrISaISt10_List_nodeISt4pairIcPKcEEEEC2ERS6_PS5_
FNDA:0,_ZNSt15__allocated_ptrISaISt10_List_nodeISt4pairIcPKcEEEED2Ev
FNDA:0,_ZNSt15__allocated_ptrISaISt10_List_nodeISt4pairIcPKcEEEEaSEDn
FNF:3
FNH:0
DA:53,0
DA:54,0
DA:55,0
DA:71,0
DA:73,0
DA:74,0
DA:75,0
DA:79,0
DA:81,0
DA:82,0
LF:10
LH:0
end_of_record
TN:
SF:/usr/include/c++/13/bits/allocator.h
FNF:0
FNH:0
DA:163,335
DA:168,686
DA:178,0
DA:184,440
DA:191,195
DA:193,0
DA:194,0
DA:195,0
DA:198,195
DA:205,195
DA:207,0
DA:208,0
DA:210,195
DA:217,0
LF:14
LH:7
end_of_record
TN:
SF:/usr/include/c++/13/bits/atomic_base.h
FN:362,362,_ZNSt13__atomic_baseIiEC2Ei
FNDA:0,_ZNSt13__atomic_baseIiEC2Ei
FNF:1
FNH:0
DA:362,0
DA:645,0
LF:2
LH:0
end_of_record
TN:
SF:/usr/include/c++/13/bits/basic_string.h
FN:1032,1033,_ZNKSt7__cxx1112basic_stringIcSt11char_traitsIcESaIcEE6cbeginEv
FN:1071,1072,_ZNKSt7__cxx1112basic_stringIDiSt11char_traitsIDiESaIDiEE4sizeEv
FN:1071,1072,_ZNKSt7__cxx1112basic_stringIDsSt11char_traitsIDsESaIDsEE4sizeEv
FN:1071,1072,_ZNKSt7__cxx1112basic_stringIDuSt11char_traitsIDuESaIDuEE4sizeEv
FN:1071,1072,_ZNKSt7__cxx1112basic_stringIcSt11char_traitsIcESaIcEE4sizeEv
FN:1071,1072,_ZNKSt7__cxx1112basic_stringIwSt11char_traitsIwESaIwEE4sizeEv
FN:1078,1079,_ZNKSt7__cxx1112basic_stringIcSt11char_traitsIcESaIcEE6lengthEv
FN:1078,1079,_ZNKSt7__cxx1112basic_stringIwSt11char_traitsIwESaIwEE6lengthEv
FN:1084,1085,_ZNKSt7__cxx1112basic_stringIcSt11char_traitsIcESaIcEE8max_sizeEv
FN:1084,1085,_ZNKSt7__cxx1112basic_stringIwSt11char_traitsIwESaIwEE8max_sizeEv
FN:1169,1173,_ZNKSt7__cxx1112basic_stringIcSt11char_traitsIcESaIcEE8capacityEv
FN:1211,1212,_ZNSt7__cxx1112basic_stringIcSt11char_traitsIcESaIcEE5clearEv
FN:1220,1221,_ZNKSt7__cxx1112basic_stringIcSt11char_traitsIcESaIcEE5emptyEv
FN:1236,1240,_ZNKSt7__cxx1112basic_stringIcSt11char_traitsIcESaIcEEixEm
FN:124,137,_ZNSt7__cxx1112basic_stringIcSt11char_traitsIcESaIcEE11_S_allocateERS3_m
FN:124,137,_ZNSt7__cxx1112basic_stringIwSt11char_traitsIwESaIwEE11_S_allocateERS3_m
FN:1254,1262,_ZNSt7__cxx1112basic_stringIcSt11char_traitsIcESaIcEEixEm
FN:1366,1367,_ZNSt7__cxx1112basic_stringIcSt11char_traitsIcESaIcEEpLERKS4_
FN:1376,1377,_ZNSt7__cxx1112basic_stringIcSt11char_traitsIcESaIcEEpLEPKc
FN:1386,1390,_ZNSt7__cxx1112basic_stringIcSt11char_traitsIcESaIcEEpLEc
FN:1424,1425,_ZNSt7__cxx1112basic_stringIcSt11char_traitsIcESaIcEE6appendERKS4_
FN:1455,1460,_ZNSt7__cxx1112basic_stringIcSt11char_traitsIcESaIcEE6appendEPKcm
FN:1469,1475,_ZNSt7__cxx1112basic_stringIcSt11char_traitsIcESaIcEE6appendEPKc
FN:1487,1488,_ZNSt7__cxx1112basic_stringIcSt11char_traitsIcESaIcEE6appendEmc
FN:153,154,_ZNSt7__cxx1112basic_stringIcSt11char_traitsIcESaIcEE17_S_to_string_viewESt17basic_string_viewIcS2_E
FN:1561,1568,_ZNSt7__cxx1112basic_stringIcSt11char_traitsIcESaIcEE9push_backEc
FN:1577,1610,_ZNSt7__cxx1112basic_stringIcSt11char_traitsIcESaIcEE6assignERKS4_
FN:163,163,_ZNSt7__cxx1112basic_stringIcSt11char_traitsIcESaIcEE12__sv_wrapperC2ESt17basic_string_viewIcS2_E
FN:1681,1686,_ZNSt7__cxx1112basic_stringIcSt11char_traitsIcESaIcEE6assignEPKc
FN:176,177,_ZNSt7__cxx1112basic_stringIcSt11char_traitsIcESaIcEEC2ENS4_12__sv_wrapperERKS3_
FN:188,189,_ZNSt7__cxx1112basic_stringIcSt11char_traitsIcESaIcEE12_Alloc_hiderC1EPcRKS3_
FN:188,189,_ZNSt7__cxx1112basic_stringIcSt11char_traitsIcESaIcEE12_Alloc_hiderC2EPcRKS3_
FN:188,189,_ZNSt7__cxx1112basic_stringIwSt11char_traitsIwESaIwEE12_Alloc_hiderC2EPwRKS3_
FN:1894,1896,_ZNSt7__cxx1112basic_stringIcSt11char_traitsIcESaIcEE6insertEmRKS4_
FN:192,193,_ZNSt7__cxx1112basic_stringIcSt11char_traitsIcESaIcEE12_Alloc_hiderC1EPcOS3_
FN:1962,1967,_ZNSt7__cxx1112basic_stringIcSt11char_traitsIcESaIcEE6insertEmPKc
FN:2069,2077,_ZNSt7__cxx1112basic_stringIcSt11char_traitsIcESaIcEE5eraseEmm
FN:2089,2096,_ZNSt7__cxx1112basic_stringIcSt11char_traitsIcESaIcEE5eraseEN9__gnu_cxx17__normal_iteratorIPKcS4_EE
FN:2109,2119,_ZNSt7__cxx1112basic_stringIcSt11char_traitsIcESaIcEE5eraseEN9__gnu_cxx17__normal_iteratorIPKcS4_EES9_
FN:212,213,_ZNSt7__cxx1112basic_stringIcSt11char_traitsIcESaIcEE7_M_dataEPc
FN:212,213,_ZNSt7__cxx1112basic_stringIwSt11char_traitsIwESaIwEE7_M_dataEPw
FN:217,218,_ZNSt7__cxx1112basic_stringIcSt11char_traitsIcESaIcEE9_M_lengthEm
FN:217,218,_ZNSt7__cxx1112basic_stringIwSt11char_traitsIwESaIwEE9_M_lengthEm
FN:2204,2210,_ZNSt7__cxx1112basic_stringIcSt11char_traitsIcESaIcEE7replaceEmmPKcm
FN:222,223,_ZNKSt7__cxx1112basic_stringIDiSt11char_traitsIDiESaIDiEE7_M_dataEv
FN:222,223,_ZNKSt7__cxx1112basic_stringIDsSt11char_traitsIDsESaIDsEE7_M_dataEv
FN:222,223,_ZNKSt7__cxx1112basic_stringIDuSt11char_traitsIDuESaIDuEE7_M_dataEv
FN:222,223,_ZNKSt7__cxx1112basic_stringIcSt11char_traitsIcESaIcEE7_M_dataEv
FN:222,223,_ZNKSt7__cxx1112basic_stringIwSt11char_traitsIwESaIwEE7_M_dataEv
FN:2230,2234,_ZNSt7__cxx1112basic_stringIcSt11char_traitsIcESaIcEE7replaceEmmPKc
FN:227,234,_ZNSt7__cxx1112basic_stringIcSt11char_traitsIcESaIcEE13_M_local_dataEv
FN:227,234,_ZNSt7__cxx1112basic_stringIwSt11char_traitsIwESaIwEE13_M_local_dataEv
FN:238,245,_ZNKSt7__cxx1112basic_stringIcSt11char_traitsIcESaIcEE13_M_local_dataEv
FN:238,245,_ZNKSt7__cxx1112basic_stringIwSt11char_traitsIwESaIwEE13_M_local_dataEv
FN:249,250,_ZNSt7__cxx1112basic_stringIcSt11char_traitsIcESaIcEE11_M_capacityEm
FN:249,250,_ZNSt7__cxx1112basic_stringIwSt11char_traitsIwESaIwEE11_M_capacityEm
FN:254,258,_ZNSt7__cxx1112basic_stringIcSt11char_traitsIcESaIcEE13_M_set_lengthEm
FN:254,258,_ZNSt7__cxx1112basic_stringIwSt11char_traitsIwESaIwEE13_M_set_lengthEm
FN:2595,2596,_ZNKSt7__cxx1112basic_stringIcSt11char_traitsIcESaIcEE5c_strEv
FN:2595,2596,_ZNKSt7__cxx1112basic_stringIwSt11char_traitsIwESaIwEE5c_strEv
FN:2608,2609,_ZNKSt7__cxx1112basic_stringIDiSt11char_traitsIDiESaIDiEE4dataEv
FN:2608,2609,_ZNKSt7__cxx1112basic_stringIDsSt11char_traitsIDsESaIDsEE4dataEv
FN:2608,2609,_ZNKSt7__cxx1112basic_stringIDuSt11char_traitsIDuESaIDuEE4dataEv
FN:2608,2609,_ZNKSt7__cxx1112basic_stringIcSt11char_traitsIcESaIcEE4dataEv
FN:2608,2609,_ZNKSt7__cxx1112basic_stringIwSt11char_traitsIwESaIwEE4dataEv
FN:262,271,_ZNKSt7__cxx1112basic_stringIcSt11char_traitsIcESaIcEE11_M_is_localEv
FN:262,271,_ZNKSt7__cxx1112basic_stringIwSt11char_traitsIwESaIwEE11_M_is_localEv
FN:2620,2621,_ZNSt7__cxx1112basic_stringIcSt11char_traitsIcESaIcEE4dataEv
FN:2629,2630,_ZNKSt7__cxx1112basic_stringIcSt11char_traitsIcESaIcEE13get_allocatorEv
FN:2661,2663,_ZNKSt7__cxx1112basic_stringIcSt11char_traitsIcESaIcEE4findERKS4_m
FN:2661,2663,_ZNKSt7__cxx1112basic_stringIwSt11char_traitsIwESaIwEE4findERKS4_m
FN:2695,2699,_ZNKSt7__cxx1112basic_stringIcSt11char_traitsIcESaIcEE4findEPKcm
FN:280,284,_ZNSt7__cxx1112basic_stringIcSt11char_traitsIcESaIcEE10_M_disposeEv
FN:280,284,_ZNSt7__cxx1112basic_stringIwSt11char_traitsIwESaIwEE10_M_disposeEv
FN:288,289,_ZNSt7__cxx1112basic_stringIcSt11char_traitsIcESaIcEE10_M_destroyEm
FN:288,289,_ZNSt7__cxx1112basic_stringIwSt11char_traitsIwESaIwEE10_M_destroyEm
FN:3163,3165,_ZNKSt7__cxx1112basic_stringIcSt11char_traitsIcESaIcEE6substrEmm
FN:3183,3193,_ZNKSt7__cxx1112basic_stringIcSt11char_traitsIcESaIcEE7compareERKS4_
FN:336,337,_ZNSt7__cxx1112basic_stringIcSt11char_traitsIcESaIcEE16_M_get_allocatorEv
FN:336,337,_ZNSt7__cxx1112basic_stringIwSt11char_traitsIwESaIwEE16_M_get_allocatorEv
FN:3383,3394,_ZNKSt7__cxx1112basic_stringIcSt11char_traitsIcESaIcEE7compareEmmPKc
FN:341,342,_ZNKSt7__cxx1112basic_stringIcSt11char_traitsIcESaIcEE16_M_get_allocatorEv
FN:341,342,_ZNKSt7__cxx1112basic_stringIwSt11char_traitsIwESaIwEE16_M_get_allocatorEv
FN:3528,3541,_ZSt12__str_concatINSt7__cxx1112basic_stringIcSt11char_traitsIcESaIcEEEET_PKNS6_10value_typeENS6_9size_typeES9_SA_RKNS6_14allocator_typeE
FN:3571,3579,_ZStplIcSt11char_traitsIcESaIcEENSt7__cxx1112basic_stringIT_T0_T1_EEPKS5_RKS8_
FN:3607,3615,_ZStplIcSt11char_traitsIcESaIcEENSt7__cxx1112basic_stringIT_T0_T1_EERKS8_PKS5_
FN:3625,3631,_ZStplIcSt11char_traitsIcESaIcEENSt7__cxx1112basic_stringIT_T0_T1_EERKS8_S5_
FN:3637,3639,_ZStplIcSt11char_traitsIcESaIcEENSt7__cxx1112basic_stringIT_T0_T1_EEOS8_RKS8_
FN:3651,3669,_ZStplIcSt11char_traitsIcESaIcEENSt7__cxx1112basic_stringIT_T0_T1_EEOS8_S9_
FN:3674,3676,_ZStplIcSt11char_traitsIcESaIcEENSt7__cxx1112basic_stringIT_T0_T1_EEPKS5_OS8_
FN:3688,3690,_ZStplIcSt11char_traitsIcESaIcEENSt7__cxx1112basic_stringIT_T0_T1_EEOS8_PKS5_
FN:3710,3716,_ZSteqIcSt11char_traitsIcESaIcEEbRKNSt7__cxx1112basic_stringIT_T0_T1_EESA_
FN:3727,3732,_ZSteqIcSt11char_traitsIcESaIcEEbRKNSt7__cxx1112basic_stringIT_T0_T1_EEPKS5_
FN:3745,3748,_ZStssIcSt11char_traitsIcESaIcEEDTcl21__char_traits_cmp_catIT0_ELi0EEERKNSt7__cxx1112basic_stringIT_S3_T1_EESB_
FN:386,393,_ZNKSt7__cxx1112basic_stringIcSt11char_traitsIcESaIcEE8_M_checkEmPKc
FN:397,401,_ZNKSt7__cxx1112basic_stringIcSt11char_traitsIcESaIcEE15_M_check_lengthEmmPKc
FN:3994,3997,_ZSt4swapIcSt11char_traitsIcESaIcEEvRNSt7__cxx1112basic_stringIT_T0_T1_EES9_
FN:407,411,_ZNKSt7__cxx1112basic_stringIcSt11char_traitsIcESaIcEE8_M_limitEmm
FN:415,419,_ZNKSt7__cxx1112basic_stringIcSt11char_traitsIcESaIcEE11_M_disjunctEPKc
FN:425,431,_ZNSt7__cxx1112basic_stringIcSt11char_traitsIcESaIcEE7_S_copyEPcPKcm
FN:425,431,_ZNSt7__cxx1112basic_stringIwSt11char_traitsIwESaIwEE7_S_copyEPwPKwm
FN:435,441,_ZNSt7__cxx1112basic_stringIcSt11char_traitsIcESaIcEE7_S_moveEPcPKcm
FN:4407,4408,_ZNKSt15__str_hash_baseIcSaIcENSt7__cxx1112basic_stringIcSt11char_traitsIcES0_EEEclERKS5_
FN:445,451,_ZNSt7__cxx1112basic_stringIcSt11char_traitsIcESaIcEE9_S_assignEPcmc
FN:471,473,_ZNSt7__cxx1112basic_stringIcSt11char_traitsIcESaIcEE13_S_copy_charsEPcN9__gnu_cxx17__normal_iteratorIPKcS4_EESA_
FN:477,478,_ZNSt7__cxx1112basic_stringIcSt11char_traitsIcESaIcEE13_S_copy_charsEPcS5_S5_
FN:482,484,_ZNSt7__cxx1112basic_stringIcSt11char_traitsIcESaIcEE13_S_copy_charsEPcPKcS7_
FN:482,484,_ZNSt7__cxx1112basic_stringIwSt11char_traitsIwESaIwEE13_S_copy_charsEPwPKwS7_
FN:488,498,_ZNSt7__cxx1112basic_stringIcSt11char_traitsIcESaIcEE10_S_compareEmm
FN:522,528,_ZNSt7__cxx1112basic_stringIcSt11char_traitsIcESaIcEEC1Ev
FN:535,540,_ZNSt7__cxx1112basic_stringIcSt11char_traitsIcESaIcEEC2ERKS3_
FN:547,553,_ZNSt7__cxx1112basic_stringIcSt11char_traitsIcESaIcEEC1ERKS4_
FN:547,553,_ZNSt7__cxx1112basic_stringIcSt11char_traitsIcESaIcEEC2ERKS4_
FN:581,589,_ZNSt7__cxx1112basic_stringIcSt11char_traitsIcESaIcEEC2ERKS4_mm
FN:619,628,_ZNSt7__cxx1112basic_stringIcSt11char_traitsIcESaIcEEC2EPKcmRKS3_
FN:641,650,_ZNSt7__cxx1112basic_stringIcSt11char_traitsIcESaIcEEC1IS3_EEPKcRKS3_
FN:641,650,_ZNSt7__cxx1112basic_stringIcSt11char_traitsIcESaIcEEC2IS3_EEPKcRKS3_
FN:641,650,_ZNSt7__cxx1112basic_stringIwSt11char_traitsIwESaIwEEC2IS3_EEPKwRKS3_
FN:664,666,_ZNSt7__cxx1112basic_stringIcSt11char_traitsIcESaIcEEC2IS3_EEmcRKS3_
FN:677,698,_ZNSt7__cxx1112basic_stringIcSt11char_traitsIcESaIcEEC2EOS4_
FN:760,770,_ZNSt7__cxx1112basic_stringIcSt11char_traitsIcESaIcEEC2IN9__gnu_cxx17__normal_iteratorIPKcS4_EEvEET_SB_RKS3_
FN:760,770,_ZNSt7__cxx1112basic_stringIcSt11char_traitsIcESaIcEEC2IPKcvEET_S8_RKS3_
FN:795,796,_ZNSt7__cxx1112basic_stringIcSt11char_traitsIcESaIcEEC2ISt17basic_string_viewIcS2_EvEERKT_RKS3_
FN:803,804,_ZNSt7__cxx1112basic_stringIcSt11char_traitsIcESaIcEED1Ev
FN:803,804,_ZNSt7__cxx1112basic_stringIcSt11char_traitsIcESaIcEED2Ev
FN:803,804,_ZNSt7__cxx1112basic_stringIwSt11char_traitsIwESaIwEED2Ev
FN:812,815,_ZNSt7__cxx1112basic_stringIcSt11char_traitsIcESaIcEEaSERKS4_
FN:823,824,_ZNSt7__cxx1112basic_stringIcSt11char_traitsIcESaIcEEaSEPKc
FN:853,913,_ZNSt7__cxx1112basic_stringIcSt11char_traitsIcESaIcEEaSEOS4_
FN:944,945,_ZNKSt7__cxx1112basic_stringIcSt11char_traitsIcESaIcEEcvSt17basic_string_viewIcS2_EEv
FN:955,956,_ZNSt7__cxx1112basic_stringIcSt11char_traitsIcESaIcEE5beginEv
FN:964,965,_ZNKSt7__cxx1112basic_stringIcSt11char_traitsIcESaIcEE5beginEv
FN:973,974,_ZNSt7__cxx1112basic_stringIcSt11char_traitsIcESaIcEE3endEv
FN:982,983,_ZNKSt7__cxx1112basic_stringIcSt11char_traitsIcESaIcEE3endEv
FNDA:1,_ZNKSt7__cxx1112basic_stringIcSt11char_traitsIcESaIcEE6cbeginEv
FNDA:0,_ZNKSt7__cxx1112basic_stringIDiSt11char_traitsIDiESaIDiEE4sizeEv
FNDA:0,_ZNKSt7__cxx1112basic_stringIDsSt11char_traitsIDsESaIDsEE4sizeEv
FNDA:0,_ZNKSt7__cxx1112basic_stringIDuSt11char_traitsIDuESaIDuEE4sizeEv
FNDA:1452,_ZNKSt7__cxx1112basic_stringIcSt11char_traitsIcESaIcEE4sizeEv
FNDA:0,_ZNKSt7__cxx1112basic_stringIwSt11char_traitsIwESaIwEE4sizeEv
FNDA:1152,_ZNKSt7__cxx1112basic_stringIcSt11char_traitsIcESaIcEE6lengthEv
FNDA:0,_ZNKSt7__cxx1112basic_stringIwSt11char_traitsIwESaIwEE6lengthEv
FNDA:281,_ZNKSt7__cxx1112basic_stringIcSt11char_traitsIcESaIcEE8max_sizeEv
FNDA:0,_ZNKSt7__cxx1112basic_stringIwSt11char_traitsIwESaIwEE8max_sizeEv
FNDA:1287,_ZNKSt7__cxx1112basic_stringIcSt11char_traitsIcESaIcEE8capacityEv
FNDA:0,_ZNSt7__cxx1112basic_stringIcSt11char_traitsIcESaIcEE5clearEv
FNDA:23,_ZNKSt7__cxx1112basic_stringIcSt11char_traitsIcESaIcEE5emptyEv
FNDA:0,_ZNKSt7__cxx1112basic_stringIcSt11char_traitsIcESaIcEEixEm
FNDA:165,_ZNSt7__cxx1112basic_stringIcSt11char_traitsIcESaIcEE11_S_allocateERS3_m
FNDA:0,_ZNSt7__cxx1112basic_stringIwSt11char_traitsIwESaIwEE11_S_allocateERS3_m
FNDA:0,_ZNSt7__cxx1112basic_stringIcSt11char_traitsIcESaIcEEixEm
FNDA:0,_ZNSt7__cxx1112basic_stringIcSt11char_traitsIcESaIcEEpLERKS4_
FNDA:0,_ZNSt7__cxx1112basic_stringIcSt11char_traitsIcESaIcEEpLEPKc
FNDA:867,_ZNSt7__cxx1112basic_stringIcSt11char_traitsIcESaIcEEpLEc
FNDA:17,_ZNSt7__cxx1112basic_stringIcSt11char_traitsIcESaIcEE6appendERKS4_
FNDA:51,_ZNSt7__cxx1112basic_stringIcSt11char_traitsIcESaIcEE6appendEPKcm
FNDA:14,_ZNSt7__cxx1112basic_stringIcSt11char_traitsIcESaIcEE6appendEPKc
FNDA:0,_ZNSt7__cxx1112basic_stringIcSt11char_traitsIcESaIcEE6appendEmc
FNDA:0,_ZNSt7__cxx1112basic_stringIcSt11char_traitsIcESaIcEE17_S_to_string_viewESt17basic_string_viewIcS2_E
FNDA:867,_ZNSt7__cxx1112basic_stringIcSt11char_traitsIcESaIcEE9push_backEc
FNDA:205,_ZNSt7__cxx1112basic_stringIcSt11char_traitsIcESaIcEE6assignERKS4_
FNDA:0,_ZNSt7__cxx1112basic_stringIcSt11char_traitsIcESaIcEE12__sv_wrapperC2ESt17basic_string_viewIcS2_E
FNDA:0,_ZNSt7__cxx1112basic_stringIcSt11char_traitsIcESaIcEE6assignEPKc
FNDA:0,_ZNSt7__cxx1112basic_stringIcSt11char_traitsIcESaIcEEC2ENS4_12__sv_wrapperERKS3_
FNDA:0,_ZNSt7__cxx1112basic_stringIcSt11char_traitsIcESaIcEE12_Alloc_hiderC1EPcRKS3_
FNDA:137,_ZNSt7__cxx1112basic_stringIcSt11char_traitsIcESaIcEE12_Alloc_hiderC2EPcRKS3_
FNDA:0,_ZNSt7__cxx1112basic_stringIwSt11char_traitsIwESaIwEE12_Alloc_hiderC2EPwRKS3_
FNDA:0,_ZNSt7__cxx1112basic_stringIcSt11char_traitsIcESaIcEE6insertEmRKS4_
FNDA:383,_ZNSt7__cxx1112basic_stringIcSt11char_traitsIcESaIcEE12_Alloc_hiderC1EPcOS3_
FNDA:0,_ZNSt7__cxx1112basic_stringIcSt11char_traitsIcESaIcEE6insertEmPKc
FNDA:0,_ZNSt7__cxx1112basic_stringIcSt11char_traitsIcESaIcEE5eraseEmm
FNDA:0,_ZNSt7__cxx1112basic_stringIcSt11char_traitsIcESaIcEE5eraseEN9__gnu_cxx17__normal_iteratorIPKcS4_EE
FNDA:1,_ZNSt7__cxx1112basic_stringIcSt11char_traitsIcESaIcEE5eraseEN9__gnu_cxx17__normal_iteratorIPKcS4_EES9_
FNDA:308,_ZNSt7__cxx1112basic_stringIcSt11char_traitsIcESaIcEE7_M_dataEPc
FNDA:0,_ZNSt7__cxx1112basic_stringIwSt11char_traitsIwESaIwEE7_M_dataEPw
FNDA:1815,_ZNSt7__cxx1112basic_stringIcSt11char_traitsIcESaIcEE9_M_lengthEm
FNDA:0,_ZNSt7__cxx1112basic_stringIwSt11char_traitsIwESaIwEE9_M_lengthEm
FNDA:0,_ZNSt7__cxx1112basic_stringIcSt11char_traitsIcESaIcEE7replaceEmmPKcm
FNDA:0,_ZNKSt7__cxx1112basic_stringIDiSt11char_traitsIDiESaIDiEE7_M_dataEv
FNDA:0,_ZNKSt7__cxx1112basic_stringIDsSt11char_traitsIDsESaIDsEE7_M_dataEv
FNDA:0,_ZNKSt7__cxx1112basic_stringIDuSt11char_traitsIDuESaIDuEE7_M_dataEv
FNDA:6955,_ZNKSt7__cxx1112basic_stringIcSt11char_traitsIcESaIcEE7_M_dataEv
FNDA:0,_ZNKSt7__cxx1112basic_stringIwSt11char_traitsIwESaIwEE7_M_dataEv
FNDA:0,_ZNSt7__cxx1112basic_stringIcSt11char_traitsIcESaIcEE7replaceEmmPKc
FNDA:599,_ZNSt7__cxx1112basic_stringIcSt11char_traitsIcESaIcEE13_M_local_dataEv
FNDA:0,_ZNSt7__cxx1112basic_stringIwSt11char_traitsIwESaIwEE13_M_local_dataEv
FNDA:2090,_ZNKSt7__cxx1112basic_stringIcSt11char_traitsIcESaIcEE13_M_local_dataEv
FNDA:0,_ZNKSt7__cxx1112basic_stringIwSt11char_traitsIwESaIwEE13_M_local_dataEv
FNDA:203,_ZNSt7__cxx1112basic_stringIcSt11char_traitsIcESaIcEE11_M_capacityEm
FNDA:0,_ZNSt7__cxx1112basic_stringIwSt11char_traitsIwESaIwEE11_M_capacityEm
FNDA:1684,_ZNSt7__cxx1112basic_stringIcSt11char_traitsIcESaIcEE13_M_set_lengthEm
FNDA:0,_ZNSt7__cxx1112basic_stringIwSt11char_traitsIwESaIwEE13_M_set_lengthEm
FNDA:1081,_ZNKSt7__cxx1112basic_stringIcSt11char_traitsIcESaIcEE5c_strEv
FNDA:0,_ZNKSt7__cxx1112basic_stringIwSt11char_traitsIwESaIwEE5c_strEv
FNDA:0,_ZNKSt7__cxx1112basic_stringIDiSt11char_traitsIDiESaIDiEE4dataEv
FNDA:0,_ZNKSt7__cxx1112basic_stringIDsSt11char_traitsIDsESaIDsEE4dataEv
FNDA:0,_ZNKSt7__cxx1112basic_stringIDuSt11char_traitsIDuESaIDuEE4dataEv
FNDA:0,_ZNKSt7__cxx1112basic_stringIcSt11char_traitsIcESaIcEE4dataEv
FNDA:0,_ZNKSt7__cxx1112basic_stringIwSt11char_traitsIwESaIwEE4dataEv
FNDA:2090,_ZNKSt7__cxx1112basic_stringIcSt11char_traitsIcESaIcEE11_M_is_localEv
FNDA:0,_ZNKSt7__cxx1112basic_stringIwSt11char_traitsIwESaIwEE11_M_is_localEv
FNDA:0,_ZNSt7__cxx1112basic_stringIcSt11char_traitsIcESaIcEE4dataEv
FNDA:17,_ZNKSt7__cxx1112basic_stringIcSt11char_traitsIcESaIcEE13get_allocatorEv
FNDA:0,_ZNKSt7__cxx1112basic_stringIcSt11char_traitsIcESaIcEE4findERKS4_m
FNDA:0,_ZNKSt7__cxx1112basic_stringIwSt11char_traitsIwESaIwEE4findERKS4_m
FNDA:0,_ZNKSt7__cxx1112basic_stringIcSt11char_traitsIcESaIcEE4findEPKcm
FNDA:672,_ZNSt7__cxx1112basic_stringIcSt11char_traitsIcESaIcEE10_M_disposeEv
FNDA:0,_ZNSt7__cxx1112basic_stringIwSt11char_traitsIwESaIwEE10_M_disposeEv
FNDA:165,_ZNSt7__cxx1112basic_stringIcSt11char_traitsIcESaIcEE10_M_destroyEm
FNDA:0,_ZNSt7__cxx1112basic_stringIwSt11char_traitsIwESaIwEE10_M_destroyEm
FNDA:6,_ZNKSt7__cxx1112basic_stringIcSt11char_traitsIcESaIcEE6substrEmm
FNDA:0,_ZNKSt7__cxx1112basic_stringIcSt11char_traitsIcESaIcEE7compareERKS4_
FNDA:461,_ZNSt7__cxx1112basic_stringIcSt11char_traitsIcESaIcEE16_M_get_allocatorEv
FNDA:0,_ZNSt7__cxx1112basic_stringIwSt11char_traitsIwESaIwEE16_M_get_allocatorEv
FNDA:0,_ZNKSt7__cxx1112basic_stringIcSt11char_traitsIcESaIcEE7compareEmmPKc
FNDA:422,_ZNKSt7__cxx1112basic_stringIcSt11char_traitsIcESaIcEE16_M_get_allocatorEv
FNDA:0,_ZNKSt7__cxx1112basic_stringIwSt11char_traitsIwESaIwEE16_M_get_allocatorEv
FNDA:17,_ZSt12__str_concatINSt7__cxx1112basic_stringIcSt11char_traitsIcESaIcEEEET_PKNS6_10value_typeENS6_9size_typeES9_SA_RKNS6_14allocator_typeE
FNDA:0,_ZStplIcSt11char_traitsIcESaIcEENSt7__cxx1112basic_stringIT_T0_T1_EEPKS5_RKS8_
FNDA:17,_ZStplIcSt11char_traitsIcESaIcEENSt7__cxx1112basic_stringIT_T0_T1_EERKS8_PKS5_
FNDA:0,_ZStplIcSt11char_traitsIcESaIcEENSt7__cxx1112basic_stringIT_T0_T1_EERKS8_S5_
FNDA:17,_ZStplIcSt11char_traitsIcESaIcEENSt7__cxx1112basic_stringIT_T0_T1_EEOS8_RKS8_
FNDA:0,_ZStplIcSt11char_traitsIcESaIcEENSt7__cxx1112basic_stringIT_T0_T1_EEOS8_S9_
FNDA:0,_ZStplIcSt11char_traitsIcESaIcEENSt7__cxx1112basic_stringIT_T0_T1_EEPKS5_OS8_
FNDA:14,_ZStplIcSt11char_traitsIcESaIcEENSt7__cxx1112basic_stringIT_T0_T1_EEOS8_PKS5_
FNDA:0,_ZSteqIcSt11char_traitsIcESaIcEEbRKNSt7__cxx1112basic_stringIT_T0_T1_EESA_
FNDA:2,_ZSteqIcSt11char_traitsIcESaIcEEbRKNSt7__cxx1112basic_stringIT_T0_T1_EEPKS5_
FNDA:0,_ZStssIcSt11char_traitsIcESaIcEEDTcl21__char_traits_cmp_catIT0_ELi0EEERKNSt7__cxx1112basic_stringIT_S3_T1_EESB_
FNDA:12,_ZNKSt7__cxx1112basic_stringIcSt11char_traitsIcESaIcEE8_M_checkEmPKc
FNDA:91,_ZNKSt7__cxx1112basic_stringIcSt11char_traitsIcESaIcEE15_M_check_lengthEmmPKc
FNDA:0,_ZSt4swapIcSt11char_traitsIcESaIcEEvRNSt7__cxx1112basic_stringIT_T0_T1_EES9_
FNDA:6,_ZNKSt7__cxx1112basic_stringIcSt11char_traitsIcESaIcEE8_M_limitEmm
FNDA:26,_ZNKSt7__cxx1112basic_stringIcSt11char_traitsIcESaIcEE11_M_disjunctEPKc
FNDA:524,_ZNSt7__cxx1112basic_stringIcSt11char_traitsIcESaIcEE7_S_copyEPcPKcm
FNDA:0,_ZNSt7__cxx1112basic_stringIwSt11char_traitsIwESaIwEE7_S_copyEPwPKwm
FNDA:0,_ZNSt7__cxx1112basic_stringIcSt11char_traitsIcESaIcEE7_S_moveEPcPKcm
FNDA:0,_ZNKSt15__str_hash_baseIcSaIcENSt7__cxx1112basic_stringIcSt11char_traitsIcES0_EEEclERKS5_
FNDA:0,_ZNSt7__cxx1112basic_stringIcSt11char_traitsIcESaIcEE9_S_assignEPcmc
FNDA:17,_ZNSt7__cxx1112basic_stringIcSt11char_traitsIcESaIcEE13_S_copy_charsEPcN9__gnu_cxx17__normal_iteratorIPKcS4_EESA_
FNDA:124,_ZNSt7__cxx1112basic_stringIcSt11char_traitsIcESaIcEE13_S_copy_charsEPcS5_S5_
FNDA:126,_ZNSt7__cxx1112basic_stringIcSt11char_traitsIcESaIcEE13_S_copy_charsEPcPKcS7_
FNDA:0,_ZNSt7__cxx1112basic_stringIwSt11char_traitsIwESaIwEE13_S_copy_charsEPwPKwS7_
FNDA:0,_ZNSt7__cxx1112basic_stringIcSt11char_traitsIcESaIcEE10_S_compareEmm
FNDA:174,_ZNSt7__cxx1112basic_stringIcSt11char_traitsIcESaIcEEC1Ev
FNDA:17,_ZNSt7__cxx1112basic_stringIcSt11char_traitsIcESaIcEEC2ERKS3_
FNDA:0,_ZNSt7__cxx1112basic_stringIcSt11char_traitsIcESaIcEEC1ERKS4_
FNDA:124,_ZNSt7__cxx1112basic_stringIcSt11char_traitsIcESaIcEEC2ERKS4_
FNDA:6,_ZNSt7__cxx1112basic_stringIcSt11char_traitsIcESaIcEEC2ERKS4_mm
FNDA:0,_ZNSt7__cxx1112basic_stringIcSt11char_traitsIcESaIcEEC2EPKcmRKS3_
FNDA:0,_ZNSt7__cxx1112basic_stringIcSt11char_traitsIcESaIcEEC1IS3_EEPKcRKS3_
FNDA:103,_ZNSt7__cxx1112basic_stringIcSt11char_traitsIcESaIcEEC2IS3_EEPKcRKS3_
FNDA:0,_ZNSt7__cxx1112basic_stringIwSt11char_traitsIwESaIwEEC2IS3_EEPKwRKS3_
FNDA:0,_ZNSt7__cxx1112basic_stringIcSt11char_traitsIcESaIcEEC2IS3_EEmcRKS3_
FNDA:79,_ZNSt7__cxx1112basic_stringIcSt11char_traitsIcESaIcEEC2EOS4_
FNDA:17,_ZNSt7__cxx1112basic_stringIcSt11char_traitsIcESaIcEEC2IN9__gnu_cxx17__normal_iteratorIPKcS4_EEvEET_SB_RKS3_
FNDA:0,_ZNSt7__cxx1112basic_stringIcSt11char_traitsIcESaIcEEC2IPKcvEET_S8_RKS3_
FNDA:0,_ZNSt7__cxx1112basic_stringIcSt11char_traitsIcESaIcEEC2ISt17basic_string_viewIcS2_EvEERKT_RKS3_
FNDA:0,_ZNSt7__cxx1112basic_stringIcSt11char_traitsIcESaIcEED1Ev
FNDA:591,_ZNSt7__cxx1112basic_stringIcSt11char_traitsIcESaIcEED2Ev
FNDA:0,_ZNSt7__cxx1112basic_stringIwSt11char_traitsIwESaIwEED2Ev
FNDA:205,_ZNSt7__cxx1112basic_stringIcSt11char_traitsIcESaIcEEaSERKS4_
FNDA:0,_ZNSt7__cxx1112basic_stringIcSt11char_traitsIcESaIcEEaSEPKc
FNDA:0,_ZNSt7__cxx1112basic_stringIcSt11char_traitsIcESaIcEEaSEOS4_
FNDA:0,_ZNKSt7__cxx1112basic_stringIcSt11char_traitsIcESaIcEEcvSt17basic_string_viewIcS2_EEv
FNDA:11,_ZNSt7__cxx1112basic_stringIcSt11char_traitsIcESaIcEE5beginEv
FNDA:22,_ZNKSt7__cxx1112basic_stringIcSt11char_traitsIcESaIcEE5beginEv
FNDA:55,_ZNSt7__cxx1112basic_stringIcSt11char_traitsIcESaIcEE3endEv
FNDA:22,_ZNKSt7__cxx1112basic_stringIcSt11char_traitsIcESaIcEE3endEv
FNF:134
FNH:57
DA:124,165
DA:126,165
DA:136,165
DA:153,0
DA:154,0
DA:163,0
DA:176,0
DA:177,0
DA:188,137
DA:189,137
DA:192,383
DA:193,383
DA:212,308
DA:213,308
DA:217,1815
DA:218,1815
DA:222,6955
DA:223,6955
DA:227,599
DA:230,599
DA:238,2090
DA:241,2090
DA:249,203
DA:250,203
DA:254,1684
DA:256,1684
DA:257,1684
DA:258,1684
DA:262,2090
DA:264,2090
DA:266,1033
DA:267,0
DA:268,1033
DA:270,1057
DA:280,672
DA:282,672
DA:283,165
DA:284,672
DA:288,165
DA:289,165
DA:336,461
DA:337,461
DA:341,422
DA:342,422
DA:351,529
DA:352,0
DA:353,0
DA:355,529
DA:365,79
DA:386,12
DA:388,12
DA:389,0
DA:392,12
DA:397,91
DA:399,91
DA:400,0
DA:401,91
DA:407,6
DA:409,6
DA:410,6
DA:415,26
DA:417,78
DA:418,78
DA:425,524
DA:427,524
DA:428,130
DA:430,394
DA:431,524
DA:435,0
DA:437,0
DA:438,0
DA:440,0
DA:441,0
DA:445,0
DA:447,0
DA:448,0
DA:450,0
DA:451,0
DA:471,17
DA:473,17
DA:477,124
DA:478,124
DA:482,126
DA:484,126
DA:488,0
DA:490,0
DA:492,0
DA:493,0
DA:494,0
DA:495,0
DA:497,0
DA:522,174
DA:524,522
DA:527,174
DA:528,174
DA:535,17
DA:536,17
DA:539,17
DA:540,17
DA:547,124
DA:548,372
DA:549,124
DA:551,124
DA:553,124
DA:581,6
DA:583,18
DA:585,6
DA:586,6
DA:587,6
DA:589,6
DA:619,0
DA:621,0
DA:624,0
DA:625,0
DA:627,0
DA:628,0
DA:641,103
DA:642,103
DA:645,103
DA:646,0
DA:648,103
DA:649,103
DA:650,103
DA:664,0
DA:665,0
DA:666,0
DA:677,79
DA:678,79
DA:680,79
DA:683,67
DA:684,67
DA:688,12
DA:689,12
DA:695,79
DA:696,79
DA:697,79
DA:698,79
DA:760,17
DA:762,17
DA:765,34
DA:770,17
DA:795,0
DA:796,0
DA:803,591
DA:804,591
DA:812,205
DA:814,205
DA:823,0
DA:824,0
DA:853,0
DA:856,0
DA:858,0
DA:859,0
DA:862,0
DA:863,0
DA:864,0
DA:867,0
DA:869,0
DA:874,0
DA:876,0
DA:877,0
DA:878,0
DA:881,0
DA:884,0
DA:886,0
DA:891,0
DA:892,0
DA:898,0
DA:899,0
DA:900,0
DA:901,0
DA:903,0
DA:904,0
DA:907,0
DA:910,0
DA:911,0
DA:912,0
DA:944,0
DA:945,0
DA:955,11
DA:956,11
DA:964,22
DA:965,22
DA:973,55
DA:974,55
DA:982,22
DA:983,22
DA:1032,1
DA:1033,1
DA:1071,1452
DA:1072,1452
DA:1078,1152
DA:1079,1152
DA:1084,281
DA:1085,562
DA:1169,1287
DA:1171,1287
DA:1172,1287
DA:1211,0
DA:1212,0
DA:1220,23
DA:1221,23
DA:1236,0
DA:1238,0
DA:1239,0
DA:1254,0
DA:1258,0
DA:1261,0
DA:1366,0
DA:1367,0
DA:1376,0
DA:1377,0
DA:1386,867
DA:1388,867
DA:1389,867
DA:1424,17
DA:1425,17
DA:1455,51
DA:1458,51
DA:1459,51
DA:1469,14
DA:1472,14
DA:1473,14
DA:1474,14
DA:1487,0
DA:1488,0
DA:1561,867
DA:1563,867
DA:1564,867
DA:1565,0
DA:1566,867
DA:1567,867
DA:1568,867
DA:1577,205
DA:1580,205
DA:1582,0
DA:1583,0
DA:1587,0
DA:1589,0
DA:1590,0
DA:1591,0
DA:1595,0
DA:1596,0
DA:1598,0
DA:1599,0
DA:1600,0
DA:1601,0
DA:1602,0
DA:1605,0
DA:1608,205
DA:1609,205
DA:1681,0
DA:1684,0
DA:1685,0
DA:1894,0
DA:1895,0
DA:1896,0
DA:1962,0
DA:1965,0
DA:1966,0
DA:2069,0
DA:2071,0
DA:2072,0
DA:2073,0
DA:2074,0
DA:2075,0
DA:2076,0
DA:2089,0
DA:2093,0
DA:2094,0
DA:2095,0
DA:2109,1
DA:2113,1
DA:2114,1
DA:2115,1
DA:2117,0
DA:2118,1
DA:2204,0
DA:2208,0
DA:2209,0
DA:2230,0
DA:2233,0
DA:2595,1081
DA:2596,1081
DA:2608,0
DA:2609,0
DA:2620,0
DA:2621,0
DA:2629,17
DA:2630,34
DA:2661,0
DA:2663,0
DA:2695,0
DA:2698,0
DA:3163,6
DA:3165,6
DA:3183,0
DA:3185,0
DA:3186,0
DA:3187,0
DA:3189,0
DA:3190,0
DA:3191,0
DA:3192,0
DA:3383,0
DA:3386,0
DA:3387,0
DA:3388,0
DA:3389,0
DA:3390,0
DA:3391,0
DA:3392,0
DA:3393,0
DA:3528,17
DA:3536,51
DA:3537,17
DA:3538,17
DA:3539,17
DA:3540,17
DA:3541,0
DA:3571,0
DA:3578,0
DA:3607,17
DA:3614,34
DA:3625,0
DA:3630,0
DA:3637,17
DA:3639,17
DA:3651,0
DA:3656,0
DA:3658,0
DA:3661,0
DA:3664,0
DA:3665,0
DA:3666,0
DA:3668,0
DA:3674,0
DA:3676,0
DA:3688,14
DA:3690,14
DA:3710,0
DA:3714,0
DA:3715,0
DA:3727,2
DA:3730,2
DA:3731,2
DA:3745,0
DA:3748,0
DA:3994,0
DA:3997,0
DA:4407,0
DA:4408,0
LF:352
LH:177
end_of_record
TN:
SF:/usr/include/c++/13/bits/basic_string.tcc
FN:138,160,_ZNSt7__cxx1112basic_stringIcSt11char_traitsIcESaIcEE9_M_createERmm
FN:138,160,_ZNSt7__cxx1112basic_stringIwSt11char_traitsIwESaIwEE9_M_createERmm
FN:221,252,_ZNSt7__cxx1112basic_stringIcSt11char_traitsIcESaIcEE12_M_constructIN9__gnu_cxx17__normal_iteratorIPKcS4_EEEEvT_SB_St20forward_iterator_tag
FN:221,252,_ZNSt7__cxx1112basic_stringIcSt11char_traitsIcESaIcEE12_M_constructIPKcEEvT_S8_St20forward_iterator_tag
FN:221,252,_ZNSt7__cxx1112basic_stringIcSt11char_traitsIcESaIcEE12_M_constructIPcEEvT_S7_St20forward_iterator_tag
FN:221,252,_ZNSt7__cxx1112basic_stringIwSt11char_traitsIwESaIwEE12_M_constructIPKwEEvT_S8_St20forward_iterator_tag
FN:239,239,_ZZNSt7__cxx1112basic_stringIcSt11char_traitsIcESaIcEE12_M_constructIN9__gnu_cxx17__normal_iteratorIPKcS4_EEEEvT_SB_St20forward_iterator_tagEN6_GuardC2EPS4_
FN:239,239,_ZZNSt7__cxx1112basic_stringIcSt11char_traitsIcESaIcEE12_M_constructIPKcEEvT_S8_St20forward_iterator_tagEN6_GuardC2EPS4_
FN:239,239,_ZZNSt7__cxx1112basic_stringIcSt11char_traitsIcESaIcEE12_M_constructIPcEEvT_S7_St20forward_iterator_tagEN6_GuardC2EPS4_
FN:239,239,_ZZNSt7__cxx1112basic_stringIwSt11char_traitsIwESaIwEE12_M_constructIPKwEEvT_S8_St20forward_iterator_tagEN6_GuardC2EPS4_
FN:242,242,_ZZNSt7__cxx1112basic_stringIcSt11char_traitsIcESaIcEE12_M_constructIN9__gnu_cxx17__normal_iteratorIPKcS4_EEEEvT_SB_St20forward_iterator_tagEN6_GuardD2Ev
FN:242,242,_ZZNSt7__cxx1112basic_stringIcSt11char_traitsIcESaIcEE12_M_constructIPKcEEvT_S8_St20forward_iterator_tagEN6_GuardD2Ev
FN:242,242,_ZZNSt7__cxx1112basic_stringIcSt11char_traitsIcESaIcEE12_M_constructIPcEEvT_S7_St20forward_iterator_tagEN6_GuardD2Ev
FN:242,242,_ZZNSt7__cxx1112basic_stringIwSt11char_traitsIwESaIwEE12_M_constructIPKwEEvT_S8_St20forward_iterator_tagEN6_GuardD2Ev
FN:257,272,_ZNSt7__cxx1112basic_stringIcSt11char_traitsIcESaIcEE12_M_constructEmc
FN:277,299,_ZNSt7__cxx1112basic_stringIcSt11char_traitsIcESaIcEE9_M_assignERKS4_
FN:304,320,_ZNSt7__cxx1112basic_stringIcSt11char_traitsIcESaIcEE7reserveEm
FN:325,345,_ZNSt7__cxx1112basic_stringIcSt11char_traitsIcESaIcEE9_M_mutateEmmPKcm
FN:350,359,_ZNSt7__cxx1112basic_stringIcSt11char_traitsIcESaIcEE8_M_eraseEmm
FN:413,428,_ZNSt7__cxx1112basic_stringIcSt11char_traitsIcESaIcEE9_M_appendEPKcm
FN:450,475,_ZNSt7__cxx1112basic_stringIcSt11char_traitsIcESaIcEE14_M_replace_auxEmmmc
FN:511,552,_ZNSt7__cxx1112basic_stringIcSt11char_traitsIcESaIcEE10_M_replaceEmmPKcm
FN:59,133,_ZNSt7__cxx1112basic_stringIcSt11char_traitsIcESaIcEE4swapERS4_
FN:618,650,_ZNKSt7__cxx1112basic_stringIcSt11char_traitsIcESaIcEE4findEPKcmm
FN:618,650,_ZNKSt7__cxx1112basic_stringIwSt11char_traitsIwESaIwEE4findEPKwmm
FN:655,669,_ZNKSt7__cxx1112basic_stringIcSt11char_traitsIcESaIcEE4findEcm
FNDA:165,_ZNSt7__cxx1112basic_stringIcSt11char_traitsIcESaIcEE9_M_createERmm
FNDA:0,_ZNSt7__cxx1112basic_stringIwSt11char_traitsIwESaIwEE9_M_createERmm
FNDA:17,_ZNSt7__cxx1112basic_stringIcSt11char_traitsIcESaIcEE12_M_constructIN9__gnu_cxx17__normal_iteratorIPKcS4_EEEEvT_SB_St20forward_iterator_tag
FNDA:109,_ZNSt7__cxx1112basic_stringIcSt11char_traitsIcESaIcEE12_M_constructIPKcEEvT_S8_St20forward_iterator_tag
FNDA:124,_ZNSt7__cxx1112basic_stringIcSt11char_traitsIcESaIcEE12_M_constructIPcEEvT_S7_St20forward_iterator_tag
FNDA:0,_ZNSt7__cxx1112basic_stringIwSt11char_traitsIwESaIwEE12_M_constructIPKwEEvT_S8_St20forward_iterator_tag
FNDA:17,_ZZNSt7__cxx1112basic_stringIcSt11char_traitsIcESaIcEE12_M_constructIN9__gnu_cxx17__normal_iteratorIPKcS4_EEEEvT_SB_St20forward_iterator_tagEN6_GuardC2EPS4_
FNDA:109,_ZZNSt7__cxx1112basic_stringIcSt11char_traitsIcESaIcEE12_M_constructIPKcEEvT_S8_St20forward_iterator_tagEN6_GuardC2EPS4_
FNDA:124,_ZZNSt7__cxx1112basic_stringIcSt11char_traitsIcESaIcEE12_M_constructIPcEEvT_S7_St20forward_iterator_tagEN6_GuardC2EPS4_
FNDA:0,_ZZNSt7__cxx1112basic_stringIwSt11char_traitsIwESaIwEE12_M_constructIPKwEEvT_S8_St20forward_iterator_tagEN6_GuardC2EPS4_
FNDA:17,_ZZNSt7__cxx1112basic_stringIcSt11char_traitsIcESaIcEE12_M_constructIN9__gnu_cxx17__normal_iteratorIPKcS4_EEEEvT_SB_St20forward_iterator_tagEN6_GuardD2Ev
FNDA:109,_ZZNSt7__cxx1112basic_stringIcSt11char_traitsIcESaIcEE12_M_constructIPKcEEvT_S8_St20forward_iterator_tagEN6_GuardD2Ev
FNDA:124,_ZZNSt7__cxx1112basic_stringIcSt11char_traitsIcESaIcEE12_M_constructIPcEEvT_S7_St20forward_iterator_tagEN6_GuardD2Ev
FNDA:0,_ZZNSt7__cxx1112basic_stringIwSt11char_traitsIwESaIwEE12_M_constructIPKwEEvT_S8_St20forward_iterator_tagEN6_GuardD2Ev
FNDA:0,_ZNSt7__cxx1112basic_stringIcSt11char_traitsIcESaIcEE12_M_constructEmc
FNDA:205,_ZNSt7__cxx1112basic_stringIcSt11char_traitsIcESaIcEE9_M_assignERKS4_
FNDA:112,_ZNSt7__cxx1112basic_stringIcSt11char_traitsIcESaIcEE7reserveEm
FNDA:12,_ZNSt7__cxx1112basic_stringIcSt11char_traitsIcESaIcEE9_M_mutateEmmPKcm
FNDA:0,_ZNSt7__cxx1112basic_stringIcSt11char_traitsIcESaIcEE8_M_eraseEmm
FNDA:65,_ZNSt7__cxx1112basic_stringIcSt11char_traitsIcESaIcEE9_M_appendEPKcm
FNDA:0,_ZNSt7__cxx1112basic_stringIcSt11char_traitsIcESaIcEE14_M_replace_auxEmmmc
FNDA:26,_ZNSt7__cxx1112basic_stringIcSt11char_traitsIcESaIcEE10_M_replaceEmmPKcm
FNDA:26,_ZNSt7__cxx1112basic_stringIcSt11char_traitsIcESaIcEE4swapERS4_
FNDA:0,_ZNKSt7__cxx1112basic_stringIcSt11char_traitsIcESaIcEE4findEPKcmm
FNDA:0,_ZNKSt7__cxx1112basic_stringIwSt11char_traitsIwESaIwEE4findEPKwmm
FNDA:6,_ZNKSt7__cxx1112basic_stringIcSt11char_traitsIcESaIcEE4findEcm
FNF:26
FNH:17
DA:59,26
DA:62,26
DA:63,0
DA:65,26
DA:67,26
DA:68,26
DA:70,0
DA:72,0
DA:73,0
DA:74,0
DA:75,0
DA:76,0
DA:77,0
DA:78,0
DA:80,0
DA:83,0
DA:84,0
DA:85,0
DA:86,0
DA:87,0
DA:89,0
DA:92,0
DA:93,0
DA:94,0
DA:95,0
DA:96,0
DA:101,26
DA:103,26
DA:104,26
DA:105,26
DA:106,26
DA:107,26
DA:111,0
DA:112,0
DA:115,0
DA:116,0
DA:117,0
DA:118,0
DA:122,0
DA:123,0
DA:124,0
DA:125,0
DA:127,0
DA:130,26
DA:131,26
DA:132,26
DA:138,165
DA:143,165
DA:144,0
DA:149,165
DA:151,25
DA:153,25
DA:154,0
DA:159,165
DA:221,250
DA:225,250
DA:227,250
DA:229,84
DA:230,84
DA:239,250
DA:242,250
DA:245,250
DA:247,250
DA:249,250
DA:251,250
DA:252,500
DA:257,0
DA:260,0
DA:262,0
DA:263,0
DA:268,0
DA:269,0
DA:271,0
DA:272,0
DA:277,205
DA:280,205
DA:282,205
DA:283,205
DA:285,205
DA:287,1
DA:288,1
DA:289,1
DA:290,1
DA:291,1
DA:294,205
DA:295,103
DA:297,205
DA:299,205
DA:304,112
DA:307,112
DA:312,112
DA:313,44
DA:315,68
DA:316,68
DA:317,68
DA:318,68
DA:319,68
DA:325,12
DA:329,12
DA:331,12
DA:332,12
DA:334,12
DA:335,12
DA:336,12
DA:337,12
DA:338,12
DA:339,0
DA:340,0
DA:342,12
DA:343,12
DA:344,12
DA:345,12
DA:350,0
DA:353,0
DA:355,0
DA:356,0
DA:358,0
DA:359,0
DA:413,65
DA:416,65
DA:418,65
DA:420,53
DA:421,53
DA:424,12
DA:426,65
DA:427,65
DA:450,0
DA:454,0
DA:456,0
DA:457,0
DA:459,0
DA:461,0
DA:463,0
DA:464,0
DA:465,0
DA:468,0
DA:470,0
DA:471,0
DA:473,0
DA:474,0
DA:511,26
DA:515,26
DA:517,26
DA:518,26
DA:520,26
DA:522,26
DA:524,26
DA:526,26
DA:528,0
DA:529,0
DA:530,0
DA:531,0
DA:532,0
DA:533,0
DA:537,26
DA:539,26
DA:540,0
DA:541,26
DA:542,26
DA:545,0
DA:548,0
DA:550,26
DA:551,26
DA:618,0
DA:623,0
DA:625,0
DA:626,0
DA:627,0
DA:628,0
DA:630,0
DA:631,0
DA:632,0
DA:633,0
DA:634,0
DA:636,0
DA:639,0
DA:640,0
DA:641,0
DA:645,0
DA:646,0
DA:647,0
DA:649,0
DA:655,6
DA:658,6
DA:659,6
DA:660,6
DA:662,6
DA:663,6
DA:664,6
DA:665,6
DA:666,2
DA:668,6
LF:192
LH:100
end_of_record
TN:
SF:/usr/include/c++/13/bits/char_traits.h
FN:1008,1018,_ZNSt8__detail21__char_traits_cmp_catISt11char_traitsIcEEEDai
FN:136,137,_ZN9__gnu_cxx11char_traitsIDuE2eqERKDuS3_
FN:136,137,_ZN9__gnu_cxx11char_traitsIcE2eqERKcS3_
FN:136,137,_ZN9__gnu_cxx11char_traitsIwE2eqERKwS3_
FN:140,141,_ZN9__gnu_cxx11char_traitsIwE2ltERKwS3_
FN:186,195,_ZN9__gnu_cxx11char_traitsIwE7compareEPKwS3_m
FN:199,206,_ZN9__gnu_cxx11char_traitsIDuE6lengthEPKDu
FN:199,206,_ZN9__gnu_cxx11char_traitsIcE6lengthEPKc
FN:199,206,_ZN9__gnu_cxx11char_traitsIwE6lengthEPKw
FN:210,217,_ZN9__gnu_cxx11char_traitsIcE4findEPKcmRS2_
FN:210,217,_ZN9__gnu_cxx11char_traitsIwE4findEPKwmRS2_
FN:222,248,_ZN9__gnu_cxx11char_traitsIcE4moveEPcPKcm
FN:253,268,_ZN9__gnu_cxx11char_traitsIcE4copyEPcPKcm
FN:253,268,_ZN9__gnu_cxx11char_traitsIwE4copyEPwPKwm
FN:273,300,_ZN9__gnu_cxx11char_traitsIcE6assignEPcmc
FN:351,359,_ZNSt11char_traitsIcE6assignERcRKc
FN:366,371,_ZNSt11char_traitsIcE2ltERKcS2_
FN:374,390,_ZNSt11char_traitsIcE7compareEPKcS2_m
FN:393,400,_ZNSt11char_traitsIcE6lengthEPKc
FN:403,412,_ZNSt11char_traitsIcE4findEPKcmRS1_
FN:415,424,_ZNSt11char_traitsIcE4moveEPcPKcm
FN:427,436,_ZNSt11char_traitsIcE4copyEPcPKcm
FN:439,448,_ZNSt11char_traitsIcE6assignEPcmc
FN:493,501,_ZNSt11char_traitsIwE6assignERwRKw
FN:512,521,_ZNSt11char_traitsIwE7compareEPKwS2_m
FN:524,531,_ZNSt11char_traitsIwE6lengthEPKw
FN:534,543,_ZNSt11char_traitsIwE4findEPKwmRS1_
FN:558,567,_ZNSt11char_traitsIwE4copyEPwPKwm
FN:636,637,_ZNSt11char_traitsIDuE2eqERKDuS2_
FN:656,666,_ZNSt11char_traitsIDuE6lengthEPKDu
FN:781,782,_ZNSt11char_traitsIDsE2eqERKDsS2_
FN:800,806,_ZNSt11char_traitsIDsE6lengthEPKDs
FN:910,911,_ZNSt11char_traitsIDiE2eqERKDiS2_
FN:929,935,_ZNSt11char_traitsIDiE6lengthEPKDi
FNDA:0,_ZNSt8__detail21__char_traits_cmp_catISt11char_traitsIcEEEDai
FNDA:0,_ZN9__gnu_cxx11char_traitsIDuE2eqERKDuS3_
FNDA:0,_ZN9__gnu_cxx11char_traitsIcE2eqERKcS3_
FNDA:0,_ZN9__gnu_cxx11char_traitsIwE2eqERKwS3_
FNDA:0,_ZN9__gnu_cxx11char_traitsIwE2ltERKwS3_
FNDA:0,_ZN9__gnu_cxx11char_traitsIwE7compareEPKwS3_m
FNDA:0,_ZN9__gnu_cxx11char_traitsIDuE6lengthEPKDu
FNDA:0,_ZN9__gnu_cxx11char_traitsIcE6lengthEPKc
FNDA:0,_ZN9__gnu_cxx11char_traitsIwE6lengthEPKw
FNDA:0,_ZN9__gnu_cxx11char_traitsIcE4findEPKcmRS2_
FNDA:0,_ZN9__gnu_cxx11char_traitsIwE4findEPKwmRS2_
FNDA:0,_ZN9__gnu_cxx11char_traitsIcE4moveEPcPKcm
FNDA:0,_ZN9__gnu_cxx11char_traitsIcE4copyEPcPKcm
FNDA:0,_ZN9__gnu_cxx11char_traitsIwE4copyEPwPKwm
FNDA:0,_ZN9__gnu_cxx11char_traitsIcE6assignEPcmc
FNDA:2681,_ZNSt11char_traitsIcE6assignERcRKc
FNDA:0,_ZNSt11char_traitsIcE2ltERKcS2_
FNDA:0,_ZNSt11char_traitsIcE7compareEPKcS2_m
FNDA:136,_ZNSt11char_traitsIcE6lengthEPKc
FNDA:6,_ZNSt11char_traitsIcE4findEPKcmRS1_
FNDA:0,_ZNSt11char_traitsIcE4moveEPcPKcm
FNDA:487,_ZNSt11char_traitsIcE4copyEPcPKcm
FNDA:0,_ZNSt11char_traitsIcE6assignEPcmc
FNDA:0,_ZNSt11char_traitsIwE6assignERwRKw
FNDA:0,_ZNSt11char_traitsIwE7compareEPKwS2_m
FNDA:0,_ZNSt11char_traitsIwE6lengthEPKw
FNDA:0,_ZNSt11char_traitsIwE4findEPKwmRS1_
FNDA:0,_ZNSt11char_traitsIwE4copyEPwPKwm
FNDA:0,_ZNSt11char_traitsIDuE2eqERKDuS2_
FNDA:0,_ZNSt11char_traitsIDuE6lengthEPKDu
FNDA:0,_ZNSt11char_traitsIDsE2eqERKDsS2_
FNDA:0,_ZNSt11char_traitsIDsE6lengthEPKDs
FNDA:0,_ZNSt11char_traitsIDiE2eqERKDiS2_
FNDA:0,_ZNSt11char_traitsIDiE6lengthEPKDi
FNF:34
FNH:4
DA:136,0
DA:137,0
DA:140,0
DA:141,0
DA:186,0
DA:189,0
DA:190,0
DA:191,0
DA:192,0
DA:193,0
DA:194,0
DA:199,0
DA:202,0
DA:203,0
DA:204,0
DA:205,0
DA:210,0
DA:213,0
DA:214,0
DA:215,0
DA:216,0
DA:222,0
DA:225,0
DA:226,0
DA:228,0
DA:242,0
DA:243,0
DA:246,0
DA:247,0
DA:253,0
DA:256,0
DA:257,0
DA:259,0
DA:261,0
DA:262,0
DA:263,0
DA:266,0
DA:267,0
DA:273,0
DA:277,0
DA:279,0
DA:280,0
DA:281,0
DA:287,0
DA:289,0
DA:290,0
DA:291,0
DA:299,0
DA:351,2681
DA:354,2681
DA:355,0
DA:358,2681
DA:359,2681
DA:366,0
DA:369,0
DA:370,0
DA:374,0
DA:376,0
DA:377,0
DA:379,0
DA:381,0
DA:382,0
DA:383,0
DA:384,0
DA:385,0
DA:386,0
DA:389,0
DA:393,136
DA:396,136
DA:397,0
DA:399,136
DA:403,6
DA:405,6
DA:406,0
DA:408,6
DA:409,0
DA:411,6
DA:415,0
DA:417,0
DA:418,0
DA:420,0
DA:421,0
DA:423,0
DA:427,487
DA:429,487
DA:430,8
DA:432,479
DA:433,0
DA:435,479
DA:439,0
DA:441,0
DA:442,0
DA:444,0
DA:445,0
DA:447,0
DA:493,0
DA:496,0
DA:497,0
DA:500,0
DA:501,0
DA:512,0
DA:514,0
DA:515,0
DA:517,0
DA:518,0
DA:520,0
DA:524,0
DA:527,0
DA:528,0
DA:530,0
DA:534,0
DA:536,0
DA:537,0
DA:539,0
DA:540,0
DA:542,0
DA:558,0
DA:560,0
DA:561,0
DA:563,0
DA:564,0
DA:566,0
DA:636,0
DA:637,0
DA:656,0
DA:659,0
DA:660,0
DA:662,0
DA:663,0
DA:664,0
DA:665,0
DA:781,0
DA:782,0
DA:800,0
DA:802,0
DA:803,0
DA:804,0
DA:805,0
DA:910,0
DA:911,0
DA:929,0
DA:931,0
DA:932,0
DA:933,0
DA:934,0
DA:1008,0
DA:1014,0
LF:147
LH:16
end_of_record
TN:
SF:/usr/include/c++/13/bits/chrono.h
FN:1019,1023,_ZNSt6chrono15time_point_castINS_8durationIlSt5ratioILl1ELl1000000000EEEENS_3_V212system_clockENS1_IlS2_ILl1ELl1EEEEEENSt9enable_ifIXsrNS_13__is_durationIT_EE5valueENS_10time_pointIT0_SB_EEE4typeERKNSD_ISE_T1_EE
FN:1141,1143,_ZNSt6chronomiINS_3_V212steady_clockENS_8durationIlSt5ratioILl1ELl1000000000EEEES6_EENSt11common_typeIJT0_T1_EE4typeERKNS_10time_pointIT_S8_EERKNSC_ISD_S9_EE
FN:1141,1143,_ZNSt6chronomiINS_3_V212system_clockENS_8durationIlSt5ratioILl1ELl1000000000EEEES6_EENSt11common_typeIJT0_T1_EE4typeERKNS_10time_pointIT_S8_EERKNSC_ISD_S9_EE
FN:1252,1257,_ZNSt6chrono3_V212system_clock11from_time_tEl
FN:208,213,_ZNSt6chrono20__duration_cast_implINS_8durationIlSt5ratioILl1ELl1000EEEES2_ILl1ELl1000000EElLb1ELb0EE6__castIlS2_ILl1ELl1000000000EEEES4_RKNS1_IT_T0_EE
FN:221,226,_ZNSt6chrono20__duration_cast_implINS_8durationIlSt5ratioILl1ELl1000000000EEEES2_ILl1000000000ELl1EElLb0ELb1EE6__castIlS2_ILl1ELl1EEEES4_RKNS1_IT_T0_EE
FN:273,291,_ZNSt6chrono13duration_castINS_8durationIlSt5ratioILl1ELl1000000000EEEElS2_ILl1ELl1EEEENSt9enable_ifIXsrNS_13__is_durationIT_EE5valueES8_E4typeERKNS1_IT0_T1_EE
FN:273,291,_ZNSt6chrono13duration_castINS_8durationIlSt5ratioILl1ELl1000EEEElS2_ILl1ELl1000000000EEEENSt9enable_ifIXsrNS_13__is_durationIT_EE5valueES8_E4typeERKNS1_IT0_T1_EE
FN:573,574,_ZNSt6chrono8durationIlSt5ratioILl1ELl1000000000EEEC1IlvEERKT_
FN:573,574,_ZNSt6chrono8durationIlSt5ratioILl1ELl1000EEEC2IlvEERKT_
FN:573,574,_ZNSt6chrono8durationIlSt5ratioILl1ELl1EEEC1IlvEERKT_
FN:589,590,_ZNKSt6chrono8durationIlSt5ratioILl1ELl1000000000EEE5countEv
FN:589,590,_ZNKSt6chrono8durationIlSt5ratioILl1ELl1000EEE5countEv
FN:589,590,_ZNKSt6chrono8durationIlSt5ratioILl1ELl1EEE5countEv
FN:710,717,_ZNSt6chronomiIlSt5ratioILl1ELl1000000000EElS2_EENSt11common_typeIJNS_8durationIT_T0_EENS4_IT1_T2_EEEE4typeERKS7_RKSA_
FN:936,938,_ZNSt6chrono10time_pointINS_3_V212system_clockENS_8durationIlSt5ratioILl1ELl1000000000EEEEEC2ERKS6_
FN:936,938,_ZNSt6chrono10time_pointINS_3_V212system_clockENS_8durationIlSt5ratioILl1ELl1EEEEEC1ERKS6_
FN:949,950,_ZNKSt6chrono10time_pointINS_3_V212steady_clockENS_8durationIlSt5ratioILl1ELl1000000000EEEEE16time_since_epochEv
FN:949,950,_ZNKSt6chrono10time_pointINS_3_V212system_clockENS_8durationIlSt5ratioILl1ELl1000000000EEEEE16time_since_epochEv
FN:949,950,_ZNKSt6chrono10time_pointINS_3_V212system_clockENS_8durationIlSt5ratioILl1ELl1EEEEE16time_since_epochEv
FNDA:20,_ZNSt6chrono15time_point_castINS_8durationIlSt5ratioILl1ELl1000000000EEEENS_3_V212system_clockENS1_IlS2_ILl1ELl1EEEEEENSt9enable_ifIXsrNS_13__is_durationIT_EE5valueENS_10time_pointIT0_SB_EEE4typeERKNSD_ISE_T1_EE
FNDA:19,_ZNSt6chronomiINS_3_V212steady_clockENS_8durationIlSt5ratioILl1ELl1000000000EEEES6_EENSt11common_typeIJT0_T1_EE4typeERKNS_10time_pointIT_S8_EERKNSC_ISD_S9_EE
FNDA:20,_ZNSt6chronomiINS_3_V212system_clockENS_8durationIlSt5ratioILl1ELl1000000000EEEES6_EENSt11common_typeIJT0_T1_EE4typeERKNS_10time_pointIT_S8_EERKNSC_ISD_S9_EE
FNDA:20,_ZNSt6chrono3_V212system_clock11from_time_tEl
FNDA:39,_ZNSt6chrono20__duration_cast_implINS_8durationIlSt5ratioILl1ELl1000EEEES2_ILl1ELl1000000EElLb1ELb0EE6__castIlS2_ILl1ELl1000000000EEEES4_RKNS1_IT_T0_EE
FNDA:20,_ZNSt6chrono20__duration_cast_implINS_8durationIlSt5ratioILl1ELl1000000000EEEES2_ILl1000000000ELl1EElLb0ELb1EE6__castIlS2_ILl1ELl1EEEES4_RKNS1_IT_T0_EE
FNDA:20,_ZNSt6chrono13duration_castINS_8durationIlSt5ratioILl1ELl1000000000EEEElS2_ILl1ELl1EEEENSt9enable_ifIXsrNS_13__is_durationIT_EE5valueES8_E4typeERKNS1_IT0_T1_EE
FNDA:39,_ZNSt6chrono13duration_castINS_8durationIlSt5ratioILl1ELl1000EEEElS2_ILl1ELl1000000000EEEENSt9enable_ifIXsrNS_13__is_durationIT_EE5valueES8_E4typeERKNS1_IT0_T1_EE
FNDA:59,_ZNSt6chrono8durationIlSt5ratioILl1ELl1000000000EEEC1IlvEERKT_
FNDA:39,_ZNSt6chrono8durationIlSt5ratioILl1ELl1000EEEC2IlvEERKT_
FNDA:20,_ZNSt6chrono8durationIlSt5ratioILl1ELl1EEEC1IlvEERKT_
FNDA:117,_ZNKSt6chrono8durationIlSt5ratioILl1ELl1000000000EEE5countEv
FNDA:39,_ZNKSt6chrono8durationIlSt5ratioILl1ELl1000EEE5countEv
FNDA:20,_ZNKSt6chrono8durationIlSt5ratioILl1ELl1EEE5countEv
FNDA:39,_ZNSt6chronomiIlSt5ratioILl1ELl1000000000EElS2_EENSt11common_typeIJNS_8durationIT_T0_EENS4_IT1_T2_EEEE4typeERKS7_RKSA_
FNDA:20,_ZNSt6chrono10time_pointINS_3_V212system_clockENS_8durationIlSt5ratioILl1ELl1000000000EEEEEC2ERKS6_
FNDA:20,_ZNSt6chrono10time_pointINS_3_V212system_clockENS_8durationIlSt5ratioILl1ELl1EEEEEC1ERKS6_
FNDA:38,_ZNKSt6chrono10time_pointINS_3_V212steady_clockENS_8durationIlSt5ratioILl1ELl1000000000EEEEE16time_since_epochEv
FNDA:40,_ZNKSt6chrono10time_pointINS_3_V212system_clockENS_8durationIlSt5ratioILl1ELl1000000000EEEEE16time_since_epochEv
FNDA:20,_ZNKSt6chrono10time_pointINS_3_V212system_clockENS_8durationIlSt5ratioILl1ELl1EEEEE16time_since_epochEv
FNF:20
FNH:20
DA:208,39
DA:211,78
DA:212,39
DA:221,20
DA:224,40
DA:225,20
DA:273,59
DA:287,59
DA:573,118
DA:574,118
DA:589,176
DA:590,176
DA:710,39
DA:716,39
DA:936,40
DA:937,40
DA:938,40
DA:949,98
DA:950,98
DA:1019,20
DA:1022,20
DA:1141,39
DA:1143,39
DA:1252,20
DA:1256,20
LF:25
LH:25
end_of_record
TN:
SF:/usr/include/c++/13/bits/cpp_type_traits.h
FN:607,608,_ZSt12__miter_baseIN9__gnu_cxx17__normal_iteratorIPKN7testing8internal13edit_distance8EditTypeESt6vectorIS5_SaIS5_EEEEET_SC_
FN:607,608,_ZSt12__miter_baseIN9__gnu_cxx17__normal_iteratorIPKdSt6vectorIdSaIdEEEEET_S8_
FN:607,608,_ZSt12__miter_baseIN9__gnu_cxx17__normal_iteratorIPNSt7__cxx1112basic_stringIcSt11char_traitsIcESaIcEEESt6vectorIS7_SaIS7_EEEEET_SD_
FN:607,608,_ZSt12__miter_baseIN9__gnu_cxx17__normal_iteratorIPPN7testing17TestEventListenerESt6vectorIS4_SaIS4_EEEEET_SA_
FN:607,608,_ZSt12__miter_baseIN9__gnu_cxx17__normal_iteratorIPPN7testing8TestInfoESt6vectorIS4_SaIS4_EEEEET_SA_
FN:607,608,_ZSt12__miter_baseIPKiET_S2_
FN:607,608,_ZSt12__miter_baseIPNSt7__cxx1112basic_stringIcSt11char_traitsIcESaIcEEEET_S7_
FN:607,608,_ZSt12__miter_baseIPPN7testing8TestInfoEET_S4_
FN:607,608,_ZSt12__miter_baseIPPN7testing9TestSuiteEET_S4_
FNDA:0,_ZSt12__miter_baseIN9__gnu_cxx17__normal_iteratorIPKN7testing8internal13edit_distance8EditTypeESt6vectorIS5_SaIS5_EEEEET_SC_
FNDA:0,_ZSt12__miter_baseIN9__gnu_cxx17__normal_iteratorIPKdSt6vectorIdSaIdEEEEET_S8_
FNDA:12,_ZSt12__miter_baseIN9__gnu_cxx17__normal_iteratorIPNSt7__cxx1112basic_stringIcSt11char_traitsIcESaIcEEESt6vectorIS7_SaIS7_EEEEET_SD_
FNDA:0,_ZSt12__miter_baseIN9__gnu_cxx17__normal_iteratorIPPN7testing17TestEventListenerESt6vectorIS4_SaIS4_EEEEET_SA_
FNDA:10,_ZSt12__miter_baseIN9__gnu_cxx17__normal_iteratorIPPN7testing8TestInfoESt6vectorIS4_SaIS4_EEEEET_SA_
FNDA:2,_ZSt12__miter_baseIPKiET_S2_
FNDA:0,_ZSt12__miter_baseIPNSt7__cxx1112basic_stringIcSt11char_traitsIcESaIcEEEET_S7_
FNDA:8,_ZSt12__miter_baseIPPN7testing8TestInfoEET_S4_
FNDA:0,_ZSt12__miter_baseIPPN7testing9TestSuiteEET_S4_
FNF:9
FNH:4
DA:607,32
DA:608,32
LF:2
LH:2
end_of_record
TN:
SF:/usr/include/c++/13/bits/exception.h
FN:62,62,_ZNSt9exceptionC2Ev
FNDA:0,_ZNSt9exceptionC2Ev
FNF:1
FNH:0
DA:62,0
LF:1
LH:0
end_of_record
TN:
SF:/usr/include/c++/13/bits/functional_hash.h
FN:204,206,_ZNSt10_Hash_impl4hashEPKvmm
FNDA:0,_ZNSt10_Hash_impl4hashEPKvmm
FNF:1
FNH:0
DA:204,0
DA:206,0
LF:2
LH:0
end_of_record
TN:
SF:/usr/include/c++/13/bits/hashtable.h
FN:1404,1414,_ZNSt10_HashtableINSt7__cxx1112basic_stringIcSt11char_traitsIcESaIcEEES5_SaIS5_ENSt8__detail9_IdentityESt8equal_toIS5_ESt4hashIS5_ENS7_18_Mod_range_hashingENS7_20_Default_ranged_hashENS7_20_Prime_rehash_policyENS7_17_Hashtable_traitsILb1ELb1ELb1EEEE8_M_resetEv
FN:1421,1448,_ZNSt10_HashtableINSt7__cxx1112basic_stringIcSt11char_traitsIcESaIcEEES5_SaIS5_ENSt8__detail9_IdentityESt8equal_toIS5_ESt4hashIS5_ENS7_18_Mod_range_hashingENS7_20_Default_ranged_hashENS7_20_Prime_rehash_policyENS7_17_Hashtable_traitsILb1ELb1ELb1EEEE14_M_move_assignEOSI_St17integral_constantIbLb1EE
FN:1595,1610,_ZNSt10_HashtableINSt7__cxx1112basic_stringIcSt11char_traitsIcESaIcEEES5_SaIS5_ENSt8__detail9_IdentityESt8equal_toIS5_ESt4hashIS5_ENS7_18_Mod_range_hashingENS7_20_Default_ranged_hashENS7_20_Prime_rehash_policyENS7_17_Hashtable_traitsILb1ELb1ELb1EEEED2Ev
FN:1687,1703,_ZNKSt10_HashtableINSt7__cxx1112basic_stringIcSt11char_traitsIcESaIcEEES5_SaIS5_ENSt8__detail9_IdentityESt8equal_toIS5_ESt4hashIS5_ENS7_18_Mod_range_hashingENS7_20_Default_ranged_hashENS7_20_Prime_rehash_policyENS7_17_Hashtable_traitsILb1ELb1ELb1EEEE4findERKS5_
FN:1744,1766,_ZNKSt10_HashtableINSt7__cxx1112basic_stringIcSt11char_traitsIcESaIcEEES5_SaIS5_ENSt8__detail9_IdentityESt8equal_toIS5_ESt4hashIS5_ENS7_18_Mod_range_hashingENS7_20_Default_ranged_hashENS7_20_Prime_rehash_policyENS7_17_Hashtable_traitsILb1ELb1ELb1EEEE5countERKS5_
FN:1948,1970,_ZNKSt10_HashtableINSt7__cxx1112basic_stringIcSt11char_traitsIcESaIcEEES5_SaIS5_ENSt8__detail9_IdentityESt8equal_toIS5_ESt4hashIS5_ENS7_18_Mod_range_hashingENS7_20_Default_ranged_hashENS7_20_Prime_rehash_policyENS7_17_Hashtable_traitsILb1ELb1ELb1EEEE19_M_find_before_nodeEmRKS5_m
FN:1978,2000,_ZNKSt10_HashtableINSt7__cxx1112basic_stringIcSt11char_traitsIcESaIcEEES5_SaIS5_ENSt8__detail9_IdentityESt8equal_toIS5_ESt4hashIS5_ENS7_18_Mod_range_hashingENS7_20_Default_ranged_hashENS7_20_Prime_rehash_policyENS7_17_Hashtable_traitsILb1ELb1ELb1EEEE22_M_find_before_node_trIS5_EEPNS7_15_Hash_node_baseEmRKT_m
FN:2007,2033,_ZNSt10_HashtableINSt7__cxx1112basic_stringIcSt11char_traitsIcESaIcEEES5_SaIS5_ENSt8__detail9_IdentityESt8equal_toIS5_ESt4hashIS5_ENS7_18_Mod_range_hashingENS7_20_Default_ranged_hashENS7_20_Prime_rehash_policyENS7_17_Hashtable_traitsILb1ELb1ELb1EEEE22_M_insert_bucket_beginEmPNS7_10_Hash_nodeIS5_Lb1EEE
FN:2166,2189,_ZNSt10_HashtableINSt7__cxx1112basic_stringIcSt11char_traitsIcESaIcEEES5_SaIS5_ENSt8__detail9_IdentityESt8equal_toIS5_ESt4hashIS5_ENS7_18_Mod_range_hashingENS7_20_Default_ranged_hashENS7_20_Prime_rehash_policyENS7_17_Hashtable_traitsILb1ELb1ELb1EEEE21_M_insert_unique_nodeEmmPNS7_10_Hash_nodeIS5_Lb1EEEm
FN:2253,2281,_ZNSt10_HashtableINSt7__cxx1112basic_stringIcSt11char_traitsIcESaIcEEES5_SaIS5_ENSt8__detail9_IdentityESt8equal_toIS5_ESt4hashIS5_ENS7_18_Mod_range_hashingENS7_20_Default_ranged_hashENS7_20_Prime_rehash_policyENS7_17_Hashtable_traitsILb1ELb1ELb1EEEE16_M_insert_uniqueIS5_S5_NS7_10_AllocNodeISaINS7_10_Hash_nodeIS5_Lb1EEEEEEEESt4pairINS7_14_Node_iteratorIS5_Lb1ELb1EEEbEOT_OT0_RKT1_
FN:2520,2529,_ZNSt10_HashtableINSt7__cxx1112basic_stringIcSt11char_traitsIcESaIcEEES5_SaIS5_ENSt8__detail9_IdentityESt8equal_toIS5_ESt4hashIS5_ENS7_18_Mod_range_hashingENS7_20_Default_ranged_hashENS7_20_Prime_rehash_policyENS7_17_Hashtable_traitsILb1ELb1ELb1EEEE5clearEv
FN:2559,2574,_ZNSt10_HashtableINSt7__cxx1112basic_stringIcSt11char_traitsIcESaIcEEES5_SaIS5_ENSt8__detail9_IdentityESt8equal_toIS5_ESt4hashIS5_ENS7_18_Mod_range_hashingENS7_20_Default_ranged_hashENS7_20_Prime_rehash_policyENS7_17_Hashtable_traitsILb1ELb1ELb1EEEE9_M_rehashEmRKm
FN:2582,2616,_ZNSt10_HashtableINSt7__cxx1112basic_stringIcSt11char_traitsIcESaIcEEES5_SaIS5_ENSt8__detail9_IdentityESt8equal_toIS5_ESt4hashIS5_ENS7_18_Mod_range_hashingENS7_20_Default_ranged_hashENS7_20_Prime_rehash_policyENS7_17_Hashtable_traitsILb1ELb1ELb1EEEE13_M_rehash_auxEmSt17integral_constantIbLb1EE
FN:300,301,_ZNSt10_HashtableINSt7__cxx1112basic_stringIcSt11char_traitsIcESaIcEEES5_SaIS5_ENSt8__detail9_IdentityESt8equal_toIS5_ESt4hashIS5_ENS7_18_Mod_range_hashingENS7_20_Default_ranged_hashENS7_20_Prime_rehash_policyENS7_17_Hashtable_traitsILb1ELb1ELb1EEEE12_Scoped_nodeC2EPNS7_10_Hash_nodeIS5_Lb1EEEPNS7_16_Hashtable_allocISaISL_EEE
FN:311,311,_ZNSt10_HashtableINSt7__cxx1112basic_stringIcSt11char_traitsIcESaIcEEES5_SaIS5_ENSt8__detail9_IdentityESt8equal_toIS5_ESt4hashIS5_ENS7_18_Mod_range_hashingENS7_20_Default_ranged_hashENS7_20_Prime_rehash_policyENS7_17_Hashtable_traitsILb1ELb1ELb1EEEE12_Scoped_nodeD2Ev
FN:402,406,_ZNSt10_HashtableINSt7__cxx1112basic_stringIcSt11char_traitsIcESaIcEEES5_SaIS5_ENSt8__detail9_IdentityESt8equal_toIS5_ESt4hashIS5_ENS7_18_Mod_range_hashingENS7_20_Default_ranged_hashENS7_20_Prime_rehash_policyENS7_17_Hashtable_traitsILb1ELb1ELb1EEEE16_M_update_bbeginEv
FN:416,417,_ZNKSt10_HashtableINSt7__cxx1112basic_stringIcSt11char_traitsIcESaIcEEES5_SaIS5_ENSt8__detail9_IdentityESt8equal_toIS5_ESt4hashIS5_ENS7_18_Mod_range_hashingENS7_20_Default_ranged_hashENS7_20_Prime_rehash_policyENS7_17_Hashtable_traitsILb1ELb1ELb1EEEE21_M_uses_single_bucketEPPNS7_15_Hash_node_baseE
FN:420,421,_ZNKSt10_HashtableINSt7__cxx1112basic_stringIcSt11char_traitsIcESaIcEEES5_SaIS5_ENSt8__detail9_IdentityESt8equal_toIS5_ESt4hashIS5_ENS7_18_Mod_range_hashingENS7_20_Default_ranged_hashENS7_20_Prime_rehash_policyENS7_17_Hashtable_traitsILb1ELb1ELb1EEEE21_M_uses_single_bucketEv
FN:424,428,_ZNSt10_HashtableINSt7__cxx1112basic_stringIcSt11char_traitsIcESaIcEEES5_SaIS5_ENSt8__detail9_IdentityESt8equal_toIS5_ESt4hashIS5_ENS7_18_Mod_range_hashingENS7_20_Default_ranged_hashENS7_20_Prime_rehash_policyENS7_17_Hashtable_traitsILb1ELb1ELb1EEEE22__small_size_thresholdEv
FN:434,443,_ZNSt10_HashtableINSt7__cxx1112basic_stringIcSt11char_traitsIcESaIcEEES5_SaIS5_ENSt8__detail9_IdentityESt8equal_toIS5_ESt4hashIS5_ENS7_18_Mod_range_hashingENS7_20_Default_ranged_hashENS7_20_Prime_rehash_policyENS7_17_Hashtable_traitsILb1ELb1ELb1EEEE19_M_allocate_bucketsEm
FN:446,452,_ZNSt10_HashtableINSt7__cxx1112basic_stringIcSt11char_traitsIcESaIcEEES5_SaIS5_ENSt8__detail9_IdentityESt8equal_toIS5_ESt4hashIS5_ENS7_18_Mod_range_hashingENS7_20_Default_ranged_hashENS7_20_Prime_rehash_policyENS7_17_Hashtable_traitsILb1ELb1ELb1EEEE21_M_deallocate_bucketsEPPNS7_15_Hash_node_baseEm
FN:455,456,_ZNSt10_HashtableINSt7__cxx1112basic_stringIcSt11char_traitsIcESaIcEEES5_SaIS5_ENSt8__detail9_IdentityESt8equal_toIS5_ESt4hashIS5_ENS7_18_Mod_range_hashingENS7_20_Default_ranged_hashENS7_20_Prime_rehash_policyENS7_17_Hashtable_traitsILb1ELb1ELb1EEEE21_M_deallocate_bucketsEv
FN:464,465,_ZNKSt10_HashtableINSt7__cxx1112basic_stringIcSt11char_traitsIcESaIcEEES5_SaIS5_ENSt8__detail9_IdentityESt8equal_toIS5_ESt4hashIS5_ENS7_18_Mod_range_hashingENS7_20_Default_ranged_hashENS7_20_Prime_rehash_policyENS7_17_Hashtable_traitsILb1ELb1ELb1EEEE8_M_beginEv
FN:530,530,_ZNSt10_HashtableINSt7__cxx1112basic_stringIcSt11char_traitsIcESaIcEEES5_SaIS5_ENSt8__detail9_IdentityESt8equal_toIS5_ESt4hashIS5_ENS7_18_Mod_range_hashingENS7_20_Default_ranged_hashENS7_20_Prime_rehash_policyENS7_17_Hashtable_traitsILb1ELb1ELb1EEEEC2Ev
FN:584,594,_ZNSt10_HashtableINSt7__cxx1112basic_stringIcSt11char_traitsIcESaIcEEES5_SaIS5_ENSt8__detail9_IdentityESt8equal_toIS5_ESt4hashIS5_ENS7_18_Mod_range_hashingENS7_20_Default_ranged_hashENS7_20_Prime_rehash_policyENS7_17_Hashtable_traitsILb1ELb1ELb1EEEEaSEOSI_
FN:623,624,_ZNSt10_HashtableINSt7__cxx1112basic_stringIcSt11char_traitsIcESaIcEEES5_SaIS5_ENSt8__detail9_IdentityESt8equal_toIS5_ESt4hashIS5_ENS7_18_Mod_range_hashingENS7_20_Default_ranged_hashENS7_20_Prime_rehash_policyENS7_17_Hashtable_traitsILb1ELb1ELb1EEEE5beginEv
FN:627,628,_ZNKSt10_HashtableINSt7__cxx1112basic_stringIcSt11char_traitsIcESaIcEEES5_SaIS5_ENSt8__detail9_IdentityESt8equal_toIS5_ESt4hashIS5_ENS7_18_Mod_range_hashingENS7_20_Default_ranged_hashENS7_20_Prime_rehash_policyENS7_17_Hashtable_traitsILb1ELb1ELb1EEEE5beginEv
FN:631,632,_ZNSt10_HashtableINSt7__cxx1112basic_stringIcSt11char_traitsIcESaIcEEES5_SaIS5_ENSt8__detail9_IdentityESt8equal_toIS5_ESt4hashIS5_ENS7_18_Mod_range_hashingENS7_20_Default_ranged_hashENS7_20_Prime_rehash_policyENS7_17_Hashtable_traitsILb1ELb1ELb1EEEE3endEv
FN:635,636,_ZNKSt10_HashtableINSt7__cxx1112basic_stringIcSt11char_traitsIcESaIcEEES5_SaIS5_ENSt8__detail9_IdentityESt8equal_toIS5_ESt4hashIS5_ENS7_18_Mod_range_hashingENS7_20_Default_ranged_hashENS7_20_Prime_rehash_policyENS7_17_Hashtable_traitsILb1ELb1ELb1EEEE3endEv
FN:647,648,_ZNKSt10_HashtableINSt7__cxx1112basic_stringIcSt11char_traitsIcESaIcEEES5_SaIS5_ENSt8__detail9_IdentityESt8equal_toIS5_ESt4hashIS5_ENS7_18_Mod_range_hashingENS7_20_Default_ranged_hashENS7_20_Prime_rehash_policyENS7_17_Hashtable_traitsILb1ELb1ELb1EEEE4sizeEv
FN:792,793,_ZNKSt10_HashtableINSt7__cxx1112basic_stringIcSt11char_traitsIcESaIcEEES5_SaIS5_ENSt8__detail9_IdentityESt8equal_toIS5_ESt4hashIS5_ENS7_18_Mod_range_hashingENS7_20_Default_ranged_hashENS7_20_Prime_rehash_policyENS7_17_Hashtable_traitsILb1ELb1ELb1EEEE15_M_bucket_indexERKNS7_16_Hash_node_valueIS5_Lb1EEE
FN:796,797,_ZNKSt10_HashtableINSt7__cxx1112basic_stringIcSt11char_traitsIcESaIcEEES5_SaIS5_ENSt8__detail9_IdentityESt8equal_toIS5_ESt4hashIS5_ENS7_18_Mod_range_hashingENS7_20_Default_ranged_hashENS7_20_Prime_rehash_policyENS7_17_Hashtable_traitsILb1ELb1ELb1EEEE15_M_bucket_indexEm
FN:812,819,_ZNKSt10_HashtableINSt7__cxx1112basic_stringIcSt11char_traitsIcESaIcEEES5_SaIS5_ENSt8__detail9_IdentityESt8equal_toIS5_ESt4hashIS5_ENS7_18_Mod_range_hashingENS7_20_Default_ranged_hashENS7_20_Prime_rehash_policyENS7_17_Hashtable_traitsILb1ELb1ELb1EEEE12_M_find_nodeEmRKS5_m
FN:823,830,_ZNKSt10_HashtableINSt7__cxx1112basic_stringIcSt11char_traitsIcESaIcEEES5_SaIS5_ENSt8__detail9_IdentityESt8equal_toIS5_ESt4hashIS5_ENS7_18_Mod_range_hashingENS7_20_Default_ranged_hashENS7_20_Prime_rehash_policyENS7_17_Hashtable_traitsILb1ELb1ELb1EEEE15_M_find_node_trIS5_EEPNS7_10_Hash_nodeIS5_Lb1EEEmRKT_m
FN:897,898,_ZNSt10_HashtableINSt7__cxx1112basic_stringIcSt11char_traitsIcESaIcEEES5_SaIS5_ENSt8__detail9_IdentityESt8equal_toIS5_ESt4hashIS5_ENS7_18_Mod_range_hashingENS7_20_Default_ranged_hashENS7_20_Prime_rehash_policyENS7_17_Hashtable_traitsILb1ELb1ELb1EEEE14_S_forward_keyEOS5_
FN:902,907,_ZNSt10_HashtableINSt7__cxx1112basic_stringIcSt11char_traitsIcESaIcEEES5_SaIS5_ENSt8__detail9_IdentityESt8equal_toIS5_ESt4hashIS5_ENS7_18_Mod_range_hashingENS7_20_Default_ranged_hashENS7_20_Prime_rehash_policyENS7_17_Hashtable_traitsILb1ELb1ELb1EEEE20_M_insert_unique_auxIS5_NS7_10_AllocNodeISaINS7_10_Hash_nodeIS5_Lb1EEEEEEEESt4pairINS7_14_Node_iteratorIS5_Lb1ELb1EEEbEOT_RKT0_
FN:911,918,_ZNSt10_HashtableINSt7__cxx1112basic_stringIcSt11char_traitsIcESaIcEEES5_SaIS5_ENSt8__detail9_IdentityESt8equal_toIS5_ESt4hashIS5_ENS7_18_Mod_range_hashingENS7_20_Default_ranged_hashENS7_20_Prime_rehash_policyENS7_17_Hashtable_traitsILb1ELb1ELb1EEEE9_M_insertIS5_NS7_10_AllocNodeISaINS7_10_Hash_nodeIS5_Lb1EEEEEEEESt4pairINS7_14_Node_iteratorIS5_Lb1ELb1EEEbEOT_RKT0_St17integral_constantIbLb1EE
FN:934,939,_ZNSt10_HashtableINSt7__cxx1112basic_stringIcSt11char_traitsIcESaIcEEES5_SaIS5_ENSt8__detail9_IdentityESt8equal_toIS5_ESt4hashIS5_ENS7_18_Mod_range_hashingENS7_20_Default_ranged_hashENS7_20_Prime_rehash_policyENS7_17_Hashtable_traitsILb1ELb1ELb1EEEE9_M_insertIS5_NS7_10_AllocNodeISaINS7_10_Hash_nodeIS5_Lb1EEEEEEEENS7_14_Node_iteratorIS5_Lb1ELb1EEENS7_20_Node_const_iteratorIS5_Lb1ELb1EEEOT_RKT0_St17integral_constantIbLb1EE
FNDA:1,_ZNSt10_HashtableINSt7__cxx1112basic_stringIcSt11char_traitsIcESaIcEEES5_SaIS5_ENSt8__detail9_IdentityESt8equal_toIS5_ESt4hashIS5_ENS7_18_Mod_range_hashingENS7_20_Default_ranged_hashENS7_20_Prime_rehash_policyENS7_17_Hashtable_traitsILb1ELb1ELb1EEEE8_M_resetEv
FNDA:1,_ZNSt10_HashtableINSt7__cxx1112basic_stringIcSt11char_traitsIcESaIcEEES5_SaIS5_ENSt8__detail9_IdentityESt8equal_toIS5_ESt4hashIS5_ENS7_18_Mod_range_hashingENS7_20_Default_ranged_hashENS7_20_Prime_rehash_policyENS7_17_Hashtable_traitsILb1ELb1ELb1EEEE14_M_move_assignEOSI_St17integral_constantIbLb1EE
FNDA:5,_ZNSt10_HashtableINSt7__cxx1112basic_stringIcSt11char_traitsIcESaIcEEES5_SaIS5_ENSt8__detail9_IdentityESt8equal_toIS5_ESt4hashIS5_ENS7_18_Mod_range_hashingENS7_20_Default_ranged_hashENS7_20_Prime_rehash_policyENS7_17_Hashtable_traitsILb1ELb1ELb1EEEED2Ev
FNDA:69,_ZNKSt10_HashtableINSt7__cxx1112basic_stringIcSt11char_traitsIcESaIcEEES5_SaIS5_ENSt8__detail9_IdentityESt8equal_toIS5_ESt4hashIS5_ENS7_18_Mod_range_hashingENS7_20_Default_ranged_hashENS7_20_Prime_rehash_policyENS7_17_Hashtable_traitsILb1ELb1ELb1EEEE4findERKS5_
FNDA:69,_ZNKSt10_HashtableINSt7__cxx1112basic_stringIcSt11char_traitsIcESaIcEEES5_SaIS5_ENSt8__detail9_IdentityESt8equal_toIS5_ESt4hashIS5_ENS7_18_Mod_range_hashingENS7_20_Default_ranged_hashENS7_20_Prime_rehash_policyENS7_17_Hashtable_traitsILb1ELb1ELb1EEEE5countERKS5_
FNDA:0,_ZNKSt10_HashtableINSt7__cxx1112basic_stringIcSt11char_traitsIcESaIcEEES5_SaIS5_ENSt8__detail9_IdentityESt8equal_toIS5_ESt4hashIS5_ENS7_18_Mod_range_hashingENS7_20_Default_ranged_hashENS7_20_Prime_rehash_policyENS7_17_Hashtable_traitsILb1ELb1ELb1EEEE19_M_find_before_nodeEmRKS5_m
FNDA:0,_ZNKSt10_HashtableINSt7__cxx1112basic_stringIcSt11char_traitsIcESaIcEEES5_SaIS5_ENSt8__detail9_IdentityESt8equal_toIS5_ESt4hashIS5_ENS7_18_Mod_range_hashingENS7_20_Default_ranged_hashENS7_20_Prime_rehash_policyENS7_17_Hashtable_traitsILb1ELb1ELb1EEEE22_M_find_before_node_trIS5_EEPNS7_15_Hash_node_baseEmRKT_m
FNDA:0,_ZNSt10_HashtableINSt7__cxx1112basic_stringIcSt11char_traitsIcESaIcEEES5_SaIS5_ENSt8__detail9_IdentityESt8equal_toIS5_ESt4hashIS5_ENS7_18_Mod_range_hashingENS7_20_Default_ranged_hashENS7_20_Prime_rehash_policyENS7_17_Hashtable_traitsILb1ELb1ELb1EEEE22_M_insert_bucket_beginEmPNS7_10_Hash_nodeIS5_Lb1EEE
FNDA:0,_ZNSt10_HashtableINSt7__cxx1112basic_stringIcSt11char_traitsIcESaIcEEES5_SaIS5_ENSt8__detail9_IdentityESt8equal_toIS5_ESt4hashIS5_ENS7_18_Mod_range_hashingENS7_20_Default_ranged_hashENS7_20_Prime_rehash_policyENS7_17_Hashtable_traitsILb1ELb1ELb1EEEE21_M_insert_unique_nodeEmmPNS7_10_Hash_nodeIS5_Lb1EEEm
FNDA:0,_ZNSt10_HashtableINSt7__cxx1112basic_stringIcSt11char_traitsIcESaIcEEES5_SaIS5_ENSt8__detail9_IdentityESt8equal_toIS5_ESt4hashIS5_ENS7_18_Mod_range_hashingENS7_20_Default_ranged_hashENS7_20_Prime_rehash_policyENS7_17_Hashtable_traitsILb1ELb1ELb1EEEE16_M_insert_uniqueIS5_S5_NS7_10_AllocNodeISaINS7_10_Hash_nodeIS5_Lb1EEEEEEEESt4pairINS7_14_Node_iteratorIS5_Lb1ELb1EEEbEOT_OT0_RKT1_
FNDA:5,_ZNSt10_HashtableINSt7__cxx1112basic_stringIcSt11char_traitsIcESaIcEEES5_SaIS5_ENSt8__detail9_IdentityESt8equal_toIS5_ESt4hashIS5_ENS7_18_Mod_range_hashingENS7_20_Default_ranged_hashENS7_20_Prime_rehash_policyENS7_17_Hashtable_traitsILb1ELb1ELb1EEEE5clearEv
FNDA:0,_ZNSt10_HashtableINSt7__cxx1112basic_stringIcSt11char_traitsIcESaIcEEES5_SaIS5_ENSt8__detail9_IdentityESt8equal_toIS5_ESt4hashIS5_ENS7_18_Mod_range_hashingENS7_20_Default_ranged_hashENS7_20_Prime_rehash_policyENS7_17_Hashtable_traitsILb1ELb1ELb1EEEE9_M_rehashEmRKm
FNDA:0,_ZNSt10_HashtableINSt7__cxx1112basic_stringIcSt11char_traitsIcESaIcEEES5_SaIS5_ENSt8__detail9_IdentityESt8equal_toIS5_ESt4hashIS5_ENS7_18_Mod_range_hashingENS7_20_Default_ranged_hashENS7_20_Prime_rehash_policyENS7_17_Hashtable_traitsILb1ELb1ELb1EEEE13_M_rehash_auxEmSt17integral_constantIbLb1EE
FNDA:0,_ZNSt10_HashtableINSt7__cxx1112basic_stringIcSt11char_traitsIcESaIcEEES5_SaIS5_ENSt8__detail9_IdentityESt8equal_toIS5_ESt4hashIS5_ENS7_18_Mod_range_hashingENS7_20_Default_ranged_hashENS7_20_Prime_rehash_policyENS7_17_Hashtable_traitsILb1ELb1ELb1EEEE12_Scoped_nodeC2EPNS7_10_Hash_nodeIS5_Lb1EEEPNS7_16_Hashtable_allocISaISL_EEE
FNDA:0,_ZNSt10_HashtableINSt7__cxx1112basic_stringIcSt11char_traitsIcESaIcEEES5_SaIS5_ENSt8__detail9_IdentityESt8equal_toIS5_ESt4hashIS5_ENS7_18_Mod_range_hashingENS7_20_Default_ranged_hashENS7_20_Prime_rehash_policyENS7_17_Hashtable_traitsILb1ELb1ELb1EEEE12_Scoped_nodeD2Ev
FNDA:1,_ZNSt10_HashtableINSt7__cxx1112basic_stringIcSt11char_traitsIcESaIcEEES5_SaIS5_ENSt8__detail9_IdentityESt8equal_toIS5_ESt4hashIS5_ENS7_18_Mod_range_hashingENS7_20_Default_ranged_hashENS7_20_Prime_rehash_policyENS7_17_Hashtable_traitsILb1ELb1ELb1EEEE16_M_update_bbeginEv
FNDA:7,_ZNKSt10_HashtableINSt7__cxx1112basic_stringIcSt11char_traitsIcESaIcEEES5_SaIS5_ENSt8__detail9_IdentityESt8equal_toIS5_ESt4hashIS5_ENS7_18_Mod_range_hashingENS7_20_Default_ranged_hashENS7_20_Prime_rehash_policyENS7_17_Hashtable_traitsILb1ELb1ELb1EEEE21_M_uses_single_bucketEPPNS7_15_Hash_node_baseE
FNDA:1,_ZNKSt10_HashtableINSt7__cxx1112basic_stringIcSt11char_traitsIcESaIcEEES5_SaIS5_ENSt8__detail9_IdentityESt8equal_toIS5_ESt4hashIS5_ENS7_18_Mod_range_hashingENS7_20_Default_ranged_hashENS7_20_Prime_rehash_policyENS7_17_Hashtable_traitsILb1ELb1ELb1EEEE21_M_uses_single_bucketEv
FNDA:69,_ZNSt10_HashtableINSt7__cxx1112basic_stringIcSt11char_traitsIcESaIcEEES5_SaIS5_ENSt8__detail9_IdentityESt8equal_toIS5_ESt4hashIS5_ENS7_18_Mod_range_hashingENS7_20_Default_ranged_hashENS7_20_Prime_rehash_policyENS7_17_Hashtable_traitsILb1ELb1ELb1EEEE22__small_size_thresholdEv
FNDA:0,_ZNSt10_HashtableINSt7__cxx1112basic_stringIcSt11char_traitsIcESaIcEEES5_SaIS5_ENSt8__detail9_IdentityESt8equal_toIS5_ESt4hashIS5_ENS7_18_Mod_range_hashingENS7_20_Default_ranged_hashENS7_20_Prime_rehash_policyENS7_17_Hashtable_traitsILb1ELb1ELb1EEEE19_M_allocate_bucketsEm
FNDA:6,_ZNSt10_HashtableINSt7__cxx1112basic_stringIcSt11char_traitsIcESaIcEEES5_SaIS5_ENSt8__detail9_IdentityESt8equal_toIS5_ESt4hashIS5_ENS7_18_Mod_range_hashingENS7_20_Default_ranged_hashENS7_20_Prime_rehash_policyENS7_17_Hashtable_traitsILb1ELb1ELb1EEEE21_M_deallocate_bucketsEPPNS7_15_Hash_node_baseEm
FNDA:6,_ZNSt10_HashtableINSt7__cxx1112basic_stringIcSt11char_traitsIcESaIcEEES5_SaIS5_ENSt8__detail9_IdentityESt8equal_toIS5_ESt4hashIS5_ENS7_18_Mod_range_hashingENS7_20_Default_ranged_hashENS7_20_Prime_rehash_policyENS7_17_Hashtable_traitsILb1ELb1ELb1EEEE21_M_deallocate_bucketsEv
FNDA:79,_ZNKSt10_HashtableINSt7__cxx1112basic_stringIcSt11char_traitsIcESaIcEEES5_SaIS5_ENSt8__detail9_IdentityESt8equal_toIS5_ESt4hashIS5_ENS7_18_Mod_range_hashingENS7_20_Default_ranged_hashENS7_20_Prime_rehash_policyENS7_17_Hashtable_traitsILb1ELb1ELb1EEEE8_M_beginEv
FNDA:5,_ZNSt10_HashtableINSt7__cxx1112basic_stringIcSt11char_traitsIcESaIcEEES5_SaIS5_ENSt8__detail9_IdentityESt8equal_toIS5_ESt4hashIS5_ENS7_18_Mod_range_hashingENS7_20_Default_ranged_hashENS7_20_Prime_rehash_policyENS7_17_Hashtable_traitsILb1ELb1ELb1EEEEC2Ev
FNDA:1,_ZNSt10_HashtableINSt7__cxx1112basic_stringIcSt11char_traitsIcESaIcEEES5_SaIS5_ENSt8__detail9_IdentityESt8equal_toIS5_ESt4hashIS5_ENS7_18_Mod_range_hashingENS7_20_Default_ranged_hashENS7_20_Prime_rehash_policyENS7_17_Hashtable_traitsILb1ELb1ELb1EEEEaSEOSI_
FNDA:3,_ZNSt10_HashtableINSt7__cxx1112basic_stringIcSt11char_traitsIcESaIcEEES5_SaIS5_ENSt8__detail9_IdentityESt8equal_toIS5_ESt4hashIS5_ENS7_18_Mod_range_hashingENS7_20_Default_ranged_hashENS7_20_Prime_rehash_policyENS7_17_Hashtable_traitsILb1ELb1ELb1EEEE5beginEv
FNDA:69,_ZNKSt10_HashtableINSt7__cxx1112basic_stringIcSt11char_traitsIcESaIcEEES5_SaIS5_ENSt8__detail9_IdentityESt8equal_toIS5_ESt4hashIS5_ENS7_18_Mod_range_hashingENS7_20_Default_ranged_hashENS7_20_Prime_rehash_policyENS7_17_Hashtable_traitsILb1ELb1ELb1EEEE5beginEv
FNDA:0,_ZNSt10_HashtableINSt7__cxx1112basic_stringIcSt11char_traitsIcESaIcEEES5_SaIS5_ENSt8__detail9_IdentityESt8equal_toIS5_ESt4hashIS5_ENS7_18_Mod_range_hashingENS7_20_Default_ranged_hashENS7_20_Prime_rehash_policyENS7_17_Hashtable_traitsILb1ELb1ELb1EEEE3endEv
FNDA:138,_ZNKSt10_HashtableINSt7__cxx1112basic_stringIcSt11char_traitsIcESaIcEEES5_SaIS5_ENSt8__detail9_IdentityESt8equal_toIS5_ESt4hashIS5_ENS7_18_Mod_range_hashingENS7_20_Default_ranged_hashENS7_20_Prime_rehash_policyENS7_17_Hashtable_traitsILb1ELb1ELb1EEEE3endEv
FNDA:69,_ZNKSt10_HashtableINSt7__cxx1112basic_stringIcSt11char_traitsIcESaIcEEES5_SaIS5_ENSt8__detail9_IdentityESt8equal_toIS5_ESt4hashIS5_ENS7_18_Mod_range_hashingENS7_20_Default_ranged_hashENS7_20_Prime_rehash_policyENS7_17_Hashtable_traitsILb1ELb1ELb1EEEE4sizeEv
FNDA:0,_ZNKSt10_HashtableINSt7__cxx1112basic_stringIcSt11char_traitsIcESaIcEEES5_SaIS5_ENSt8__detail9_IdentityESt8equal_toIS5_ESt4hashIS5_ENS7_18_Mod_range_hashingENS7_20_Default_ranged_hashENS7_20_Prime_rehash_policyENS7_17_Hashtable_traitsILb1ELb1ELb1EEEE15_M_bucket_indexERKNS7_16_Hash_node_valueIS5_Lb1EEE
FNDA:0,_ZNKSt10_HashtableINSt7__cxx1112basic_stringIcSt11char_traitsIcESaIcEEES5_SaIS5_ENSt8__detail9_IdentityESt8equal_toIS5_ESt4hashIS5_ENS7_18_Mod_range_hashingENS7_20_Default_ranged_hashENS7_20_Prime_rehash_policyENS7_17_Hashtable_traitsILb1ELb1ELb1EEEE15_M_bucket_indexEm
FNDA:0,_ZNKSt10_HashtableINSt7__cxx1112basic_stringIcSt11char_traitsIcESaIcEEES5_SaIS5_ENSt8__detail9_IdentityESt8equal_toIS5_ESt4hashIS5_ENS7_18_Mod_range_hashingENS7_20_Default_ranged_hashENS7_20_Prime_rehash_policyENS7_17_Hashtable_traitsILb1ELb1ELb1EEEE12_M_find_nodeEmRKS5_m
FNDA:0,_ZNKSt10_HashtableINSt7__cxx1112basic_stringIcSt11char_traitsIcESaIcEEES5_SaIS5_ENSt8__detail9_IdentityESt8equal_toIS5_ESt4hashIS5_ENS7_18_Mod_range_hashingENS7_20_Default_ranged_hashENS7_20_Prime_rehash_policyENS7_17_Hashtable_traitsILb1ELb1ELb1EEEE15_M_find_node_trIS5_EEPNS7_10_Hash_nodeIS5_Lb1EEEmRKT_m
FNDA:0,_ZNSt10_HashtableINSt7__cxx1112basic_stringIcSt11char_traitsIcESaIcEEES5_SaIS5_ENSt8__detail9_IdentityESt8equal_toIS5_ESt4hashIS5_ENS7_18_Mod_range_hashingENS7_20_Default_ranged_hashENS7_20_Prime_rehash_policyENS7_17_Hashtable_traitsILb1ELb1ELb1EEEE14_S_forward_keyEOS5_
FNDA:0,_ZNSt10_HashtableINSt7__cxx1112basic_stringIcSt11char_traitsIcESaIcEEES5_SaIS5_ENSt8__detail9_IdentityESt8equal_toIS5_ESt4hashIS5_ENS7_18_Mod_range_hashingENS7_20_Default_ranged_hashENS7_20_Prime_rehash_policyENS7_17_Hashtable_traitsILb1ELb1ELb1EEEE20_M_insert_unique_auxIS5_NS7_10_AllocNodeISaINS7_10_Hash_nodeIS5_Lb1EEEEEEEESt4pairINS7_14_Node_iteratorIS5_Lb1ELb1EEEbEOT_RKT0_
FNDA:0,_ZNSt10_HashtableINSt7__cxx1112basic_stringIcSt11char_traitsIcESaIcEEES5_SaIS5_ENSt8__detail9_IdentityESt8equal_toIS5_ESt4hashIS5_ENS7_18_Mod_range_hashingENS7_20_Default_ranged_hashENS7_20_Prime_rehash_policyENS7_17_Hashtable_traitsILb1ELb1ELb1EEEE9_M_insertIS5_NS7_10_AllocNodeISaINS7_10_Hash_nodeIS5_Lb1EEEEEEEESt4pairINS7_14_Node_iteratorIS5_Lb1ELb1EEEbEOT_RKT0_St17integral_constantIbLb1EE
FNDA:0,_ZNSt10_HashtableINSt7__cxx1112basic_stringIcSt11char_traitsIcESaIcEEES5_SaIS5_ENSt8__detail9_IdentityESt8equal_toIS5_ESt4hashIS5_ENS7_18_Mod_range_hashingENS7_20_Default_ranged_hashENS7_20_Prime_rehash_policyENS7_17_Hashtable_traitsILb1ELb1ELb1EEEE9_M_insertIS5_NS7_10_AllocNodeISaINS7_10_Hash_nodeIS5_Lb1EEEEEEEENS7_14_Node_iteratorIS5_Lb1ELb1EEENS7_20_Node_const_iteratorIS5_Lb1ELb1EEEOT_RKT0_St17integral_constantIbLb1EE
FNF:38
FNH:19
DA:300,0
DA:301,0
DA:311,0
DA:402,1
DA:404,1
DA:405,0
DA:406,1
DA:416,7
DA:417,7
DA:420,1
DA:421,1
DA:424,69
DA:427,69
DA:434,0
DA:436,0
DA:438,0
DA:439,0
DA:442,0
DA:446,6
DA:448,6
DA:449,6
DA:451,0
DA:455,6
DA:456,6
DA:464,79
DA:465,79
DA:530,5
DA:584,1
DA:589,1
DA:592,1
DA:593,1
DA:623,3
DA:624,3
DA:627,69
DA:628,69
DA:631,0
DA:632,0
DA:635,138
DA:636,138
DA:647,69
DA:648,69
DA:792,0
DA:793,0
DA:796,0
DA:797,0
DA:812,0
DA:815,0
DA:816,0
DA:817,0
DA:818,0
DA:823,0
DA:826,0
DA:827,0
DA:828,0
DA:829,0
DA:897,0
DA:898,0
DA:902,0
DA:904,0
DA:905,0
DA:906,0
DA:911,0
DA:916,0
DA:917,0
DA:934,0
DA:938,0
DA:1404,1
DA:1408,1
DA:1409,1
DA:1410,1
DA:1411,1
DA:1412,1
DA:1413,1
DA:1414,1
DA:1421,1
DA:1425,1
DA:1426,0
DA:1428,1
DA:1429,1
DA:1430,1
DA:1431,1
DA:1432,1
DA:1433,0
DA:1436,1
DA:1437,1
DA:1440,1
DA:1441,1
DA:1442,1
DA:1443,1
DA:1446,1
DA:1447,1
DA:1595,5
DA:1608,5
DA:1609,5
DA:1610,5
DA:1687,69
DA:1692,69
DA:1694,69
DA:1695,0
DA:1696,0
DA:1697,69
DA:1700,0
DA:1701,0
DA:1702,0
DA:1744,69
DA:1749,69
DA:1750,69
DA:1751,69
DA:1754,0
DA:1948,0
DA:1954,0
DA:1955,0
DA:1956,0
DA:1958,0
DA:1959,0
DA:1961,0
DA:1962,0
DA:1964,0
DA:1965,0
DA:1966,0
DA:1969,0
DA:1978,0
DA:1984,0
DA:1985,0
DA:1986,0
DA:1988,0
DA:1989,0
DA:1991,0
DA:1992,0
DA:1994,0
DA:1995,0
DA:1996,0
DA:1999,0
DA:2007,0
DA:2011,0
DA:2015,0
DA:2016,0
DA:2023,0
DA:2024,0
DA:2026,0
DA:2029,0
DA:2031,0
DA:2033,0
DA:2166,0
DA:2172,0
DA:2174,0
DA:2177,0
DA:2179,0
DA:2180,0
DA:2183,0
DA:2186,0
DA:2187,0
DA:2188,0
DA:2253,0
DA:2259,0
DA:2260,0
DA:2261,0
DA:2262,0
DA:2264,0
DA:2265,0
DA:2267,0
DA:2268,0
DA:2269,0
DA:2271,0
DA:2277,0
DA:2278,0
DA:2279,0
DA:2280,0
DA:2281,0
DA:2520,5
DA:2524,5
DA:2525,5
DA:2526,5
DA:2527,5
DA:2528,5
DA:2529,5
DA:2559,0
DA:2565,0
DA:2567,0
DA:2571,0
DA:2572,0
DA:2574,0
DA:2582,0
DA:2586,0
DA:2587,0
DA:2588,0
DA:2589,0
DA:2590,0
DA:2592,0
DA:2594,0
DA:2595,0
DA:2597,0
DA:2598,0
DA:2599,0
DA:2600,0
DA:2601,0
DA:2602,0
DA:2606,0
DA:2607,0
DA:2610,0
DA:2613,0
DA:2614,0
DA:2615,0
DA:2616,0
LF:204
LH:71
end_of_record
TN:
SF:/usr/include/c++/13/bits/hashtable_policy.h
FN:1079,1085,_ZNSt8__detail7_InsertINSt7__cxx1112basic_stringIcSt11char_traitsIcESaIcEEES6_SaIS6_ENS_9_IdentityESt8equal_toIS6_ESt4hashIS6_ENS_18_Mod_range_hashingENS_20_Default_ranged_hashENS_20_Prime_rehash_policyENS_17_Hashtable_traitsILb1ELb1ELb1EEELb1EE6insertENS_20_Node_const_iteratorIS6_Lb1ELb1EEEOS6_
FN:1218,1218,_ZNSt8__detail21_Hashtable_ebo_helperILi0ESaINS_10_Hash_nodeINSt7__cxx1112basic_stringIcSt11char_traitsIcESaIcEEELb1EEEELb1EEC2Ev
FN:1218,1218,_ZNSt8__detail21_Hashtable_ebo_helperILi0ESt8equal_toINSt7__cxx1112basic_stringIcSt11char_traitsIcESaIcEEEELb1EEC2Ev
FN:1218,1218,_ZNSt8__detail21_Hashtable_ebo_helperILi1ESt4hashINSt7__cxx1112basic_stringIcSt11char_traitsIcESaIcEEEELb1EEC2Ev
FN:1225,1225,_ZNKSt8__detail21_Hashtable_ebo_helperILi0ESt8equal_toINSt7__cxx1112basic_stringIcSt11char_traitsIcESaIcEEEELb1EE7_M_cgetEv
FN:1225,1225,_ZNKSt8__detail21_Hashtable_ebo_helperILi1ESt4hashINSt7__cxx1112basic_stringIcSt11char_traitsIcESaIcEEEELb1EE7_M_cgetEv
FN:1226,1226,_ZNSt8__detail21_Hashtable_ebo_helperILi0ESaINS_10_Hash_nodeINSt7__cxx1112basic_stringIcSt11char_traitsIcESaIcEEELb1EEEELb1EE6_M_getEv
FN:124,125,_ZNKSt8__detail19_ConvertToValueTypeINS_9_IdentityENSt7__cxx1112basic_stringIcSt11char_traitsIcESaIcEEEEclIS7_EEOT_SB_
FN:1301,1301,_ZNSt8__detail15_Hash_code_baseINSt7__cxx1112basic_stringIcSt11char_traitsIcESaIcEEES6_NS_9_IdentityESt4hashIS6_ENS_18_Mod_range_hashingENS_20_Default_ranged_hashELb1EEC2Ev
FN:1306,1311,_ZNKSt8__detail15_Hash_code_baseINSt7__cxx1112basic_stringIcSt11char_traitsIcESaIcEEES6_NS_9_IdentityESt4hashIS6_ENS_18_Mod_range_hashingENS_20_Default_ranged_hashELb1EE12_M_hash_codeERKS6_
FN:1315,1320,_ZNKSt8__detail15_Hash_code_baseINSt7__cxx1112basic_stringIcSt11char_traitsIcESaIcEEES6_NS_9_IdentityESt4hashIS6_ENS_18_Mod_range_hashingENS_20_Default_ranged_hashELb1EE15_M_hash_code_trIS6_EEmRKT_
FN:1331,1332,_ZNKSt8__detail15_Hash_code_baseINSt7__cxx1112basic_stringIcSt11char_traitsIcESaIcEEES6_NS_9_IdentityESt4hashIS6_ENS_18_Mod_range_hashingENS_20_Default_ranged_hashELb1EE15_M_bucket_indexEmm
FN:1346,1350,_ZNKSt8__detail15_Hash_code_baseINSt7__cxx1112basic_stringIcSt11char_traitsIcESaIcEEES6_NS_9_IdentityESt4hashIS6_ENS_18_Mod_range_hashingENS_20_Default_ranged_hashELb1EE15_M_bucket_indexERKNS_16_Hash_node_valueIS6_Lb1EEEm
FN:1362,1363,_ZNKSt8__detail15_Hash_code_baseINSt7__cxx1112basic_stringIcSt11char_traitsIcESaIcEEES6_NS_9_IdentityESt4hashIS6_ENS_18_Mod_range_hashingENS_20_Default_ranged_hashELb1EE13_M_store_codeERNS_21_Hash_node_code_cacheILb1EEEm
FN:1375,1375,_ZNKSt8__detail15_Hash_code_baseINSt7__cxx1112basic_stringIcSt11char_traitsIcESaIcEEES6_NS_9_IdentityESt4hashIS6_ENS_18_Mod_range_hashingENS_20_Default_ranged_hashELb1EE7_M_hashEv
FN:1692,1693,_ZNSt8__detail15_Hashtable_baseINSt7__cxx1112basic_stringIcSt11char_traitsIcESaIcEEES6_NS_9_IdentityESt8equal_toIS6_ESt4hashIS6_ENS_18_Mod_range_hashingENS_20_Default_ranged_hashENS_17_Hashtable_traitsILb1ELb1ELb1EEEE9_S_equalsEmRKNS_21_Hash_node_code_cacheILb1EEE
FN:1701,1701,_ZNSt8__detail15_Hashtable_baseINSt7__cxx1112basic_stringIcSt11char_traitsIcESaIcEEES6_NS_9_IdentityESt8equal_toIS6_ESt4hashIS6_ENS_18_Mod_range_hashingENS_20_Default_ranged_hashENS_17_Hashtable_traitsILb1ELb1ELb1EEEEC2Ev
FN:1708,1716,_ZNKSt8__detail15_Hashtable_baseINSt7__cxx1112basic_stringIcSt11char_traitsIcESaIcEEES6_NS_9_IdentityESt8equal_toIS6_ESt4hashIS6_ENS_18_Mod_range_hashingENS_20_Default_ranged_hashENS_17_Hashtable_traitsILb1ELb1ELb1EEEE13_M_key_equalsERKS6_RKNS_16_Hash_node_valueIS6_Lb1EEE
FN:171,173,_ZNSt8__detail12_NodeBuilderINS_9_IdentityEE8_S_buildINSt7__cxx1112basic_stringIcSt11char_traitsIcESaIcEEES9_NS_10_AllocNodeISaINS_10_Hash_nodeIS9_Lb1EEEEEEEEPNT1_11__node_typeEOT_OT0_RKSF_
FN:1720,1729,_ZNKSt8__detail15_Hashtable_baseINSt7__cxx1112basic_stringIcSt11char_traitsIcESaIcEEES6_NS_9_IdentityESt8equal_toIS6_ESt4hashIS6_ENS_18_Mod_range_hashingENS_20_Default_ranged_hashENS_17_Hashtable_traitsILb1ELb1ELb1EEEE16_M_key_equals_trIS6_EEbRKT_RKNS_16_Hash_node_valueIS6_Lb1EEE
FN:1732,1734,_ZNKSt8__detail15_Hashtable_baseINSt7__cxx1112basic_stringIcSt11char_traitsIcESaIcEEES6_NS_9_IdentityESt8equal_toIS6_ESt4hashIS6_ENS_18_Mod_range_hashingENS_20_Default_ranged_hashENS_17_Hashtable_traitsILb1ELb1ELb1EEEE9_M_equalsERKS6_mRKNS_16_Hash_node_valueIS6_Lb1EEE
FN:1738,1741,_ZNKSt8__detail15_Hashtable_baseINSt7__cxx1112basic_stringIcSt11char_traitsIcESaIcEEES6_NS_9_IdentityESt8equal_toIS6_ESt4hashIS6_ENS_18_Mod_range_hashingENS_20_Default_ranged_hashENS_17_Hashtable_traitsILb1ELb1ELb1EEEE12_M_equals_trIS6_EEbRKT_mRKNS_16_Hash_node_valueIS6_Lb1EEE
FN:1760,1760,_ZNKSt8__detail15_Hashtable_baseINSt7__cxx1112basic_stringIcSt11char_traitsIcESaIcEEES6_NS_9_IdentityESt8equal_toIS6_ESt4hashIS6_ENS_18_Mod_range_hashingENS_20_Default_ranged_hashENS_17_Hashtable_traitsILb1ELb1ELb1EEEE5_M_eqEv
FN:1940,1940,_ZNSt8__detail16_Hashtable_allocISaINS_10_Hash_nodeINSt7__cxx1112basic_stringIcSt11char_traitsIcESaIcEEELb1EEEEEC2Ev
FN:1950,1951,_ZNSt8__detail16_Hashtable_allocISaINS_10_Hash_nodeINSt7__cxx1112basic_stringIcSt11char_traitsIcESaIcEEELb1EEEEE17_M_node_allocatorEv
FN:1987,2005,_ZNSt8__detail16_Hashtable_allocISaINS_10_Hash_nodeINSt7__cxx1112basic_stringIcSt11char_traitsIcESaIcEEELb1EEEEE16_M_allocate_nodeIJS7_EEEPS8_DpOT_
FN:2009,2013,_ZNSt8__detail16_Hashtable_allocISaINS_10_Hash_nodeINSt7__cxx1112basic_stringIcSt11char_traitsIcESaIcEEELb1EEEEE18_M_deallocate_nodeEPS8_
FN:2017,2023,_ZNSt8__detail16_Hashtable_allocISaINS_10_Hash_nodeINSt7__cxx1112basic_stringIcSt11char_traitsIcESaIcEEELb1EEEEE22_M_deallocate_node_ptrEPS8_
FN:2027,2035,_ZNSt8__detail16_Hashtable_allocISaINS_10_Hash_nodeINSt7__cxx1112basic_stringIcSt11char_traitsIcESaIcEEELb1EEEEE19_M_deallocate_nodesEPS8_
FN:2039,2048,_ZNSt8__detail16_Hashtable_allocISaINS_10_Hash_nodeINSt7__cxx1112basic_stringIcSt11char_traitsIcESaIcEEELb1EEEEE19_M_allocate_bucketsEm
FN:2052,2060,_ZNSt8__detail16_Hashtable_allocISaINS_10_Hash_nodeINSt7__cxx1112basic_stringIcSt11char_traitsIcESaIcEEELb1EEEEE21_M_deallocate_bucketsEPPNS_15_Hash_node_baseEm
FN:242,243,_ZNSt8__detail10_AllocNodeISaINS_10_Hash_nodeINSt7__cxx1112basic_stringIcSt11char_traitsIcESaIcEEELb1EEEEEC2ERNS_16_Hashtable_allocIS9_EE
FN:247,248,_ZNKSt8__detail10_AllocNodeISaINS_10_Hash_nodeINSt7__cxx1112basic_stringIcSt11char_traitsIcESaIcEEELb1EEEEEclIJS7_EEEPS8_DpOT_
FN:297,298,_ZNSt8__detail22_Hashtable_hash_traitsISt4hashINSt7__cxx1112basic_stringIcSt11char_traitsIcESaIcEEEEE22__small_size_thresholdEv
FN:313,313,_ZNSt8__detail15_Hash_node_baseC2Ev
FN:380,381,_ZNKSt8__detail10_Hash_nodeINSt7__cxx1112basic_stringIcSt11char_traitsIcESaIcEEELb1EE7_M_nextEv
FN:393,394,_ZNSt8__detail19_Node_iterator_baseINSt7__cxx1112basic_stringIcSt11char_traitsIcESaIcEEELb1EEC2EPNS_10_Hash_nodeIS6_Lb1EEE
FN:397,398,_ZNSt8__detail19_Node_iterator_baseINSt7__cxx1112basic_stringIcSt11char_traitsIcESaIcEEELb1EE7_M_incrEv
FN:401,403,_ZNSt8__detaileqERKNS_19_Node_iterator_baseINSt7__cxx1112basic_stringIcSt11char_traitsIcESaIcEEELb1EEES9_
FN:436,437,_ZNSt8__detail14_Node_iteratorINSt7__cxx1112basic_stringIcSt11char_traitsIcESaIcEEELb1ELb1EEC2EPNS_10_Hash_nodeIS6_Lb1EEE
FN:448,452,_ZNSt8__detail14_Node_iteratorINSt7__cxx1112basic_stringIcSt11char_traitsIcESaIcEEELb1ELb1EEppEv
FN:483,484,_ZNSt8__detail20_Node_const_iteratorINSt7__cxx1112basic_stringIcSt11char_traitsIcESaIcEEELb1ELb1EEC2EPNS_10_Hash_nodeIS6_Lb1EEE
FN:486,488,_ZNSt8__detail20_Node_const_iteratorINSt7__cxx1112basic_stringIcSt11char_traitsIcESaIcEEELb1ELb1EEC2ERKNS_14_Node_iteratorIS6_Lb1ELb1EEE
FN:499,503,_ZNSt8__detail20_Node_const_iteratorINSt7__cxx1112basic_stringIcSt11char_traitsIcESaIcEEELb1ELb1EEppEv
FN:526,528,_ZNKSt8__detail18_Mod_range_hashingclEmm
FN:544,545,_ZNSt8__detail20_Prime_rehash_policyC2Ef
FN:571,572,_ZNKSt8__detail20_Prime_rehash_policy8_M_stateEv
FN:575,576,_ZNSt8__detail20_Prime_rehash_policy8_M_resetEv
FN:579,580,_ZNSt8__detail20_Prime_rehash_policy8_M_resetEm
FN:89,90,_ZNKSt8__detail9_IdentityclINSt7__cxx1112basic_stringIcSt11char_traitsIcESaIcEEEEEOT_S9_
FN:89,90,_ZNKSt8__detail9_IdentityclIRKNSt7__cxx1112basic_stringIcSt11char_traitsIcESaIcEEEEEOT_SB_
FN:903,904,_ZNSt8__detail12_Insert_baseINSt7__cxx1112basic_stringIcSt11char_traitsIcESaIcEEES6_SaIS6_ENS_9_IdentityESt8equal_toIS6_ESt4hashIS6_ENS_18_Mod_range_hashingENS_20_Default_ranged_hashENS_20_Prime_rehash_policyENS_17_Hashtable_traitsILb1ELb1ELb1EEEE20_M_conjure_hashtableEv
FNDA:0,_ZNSt8__detail7_InsertINSt7__cxx1112basic_stringIcSt11char_traitsIcESaIcEEES6_SaIS6_ENS_9_IdentityESt8equal_toIS6_ESt4hashIS6_ENS_18_Mod_range_hashingENS_20_Default_ranged_hashENS_20_Prime_rehash_policyENS_17_Hashtable_traitsILb1ELb1ELb1EEELb1EE6insertENS_20_Node_const_iteratorIS6_Lb1ELb1EEEOS6_
FNDA:5,_ZNSt8__detail21_Hashtable_ebo_helperILi0ESaINS_10_Hash_nodeINSt7__cxx1112basic_stringIcSt11char_traitsIcESaIcEEELb1EEEELb1EEC2Ev
FNDA:5,_ZNSt8__detail21_Hashtable_ebo_helperILi0ESt8equal_toINSt7__cxx1112basic_stringIcSt11char_traitsIcESaIcEEEELb1EEC2Ev
FNDA:5,_ZNSt8__detail21_Hashtable_ebo_helperILi1ESt4hashINSt7__cxx1112basic_stringIcSt11char_traitsIcESaIcEEEELb1EEC2Ev
FNDA:0,_ZNKSt8__detail21_Hashtable_ebo_helperILi0ESt8equal_toINSt7__cxx1112basic_stringIcSt11char_traitsIcESaIcEEEELb1EE7_M_cgetEv
FNDA:0,_ZNKSt8__detail21_Hashtable_ebo_helperILi1ESt4hashINSt7__cxx1112basic_stringIcSt11char_traitsIcESaIcEEEELb1EE7_M_cgetEv
FNDA:2,_ZNSt8__detail21_Hashtable_ebo_helperILi0ESaINS_10_Hash_nodeINSt7__cxx1112basic_stringIcSt11char_traitsIcESaIcEEELb1EEEELb1EE6_M_getEv
FNDA:0,_ZNKSt8__detail19_ConvertToValueTypeINS_9_IdentityENSt7__cxx1112basic_stringIcSt11char_traitsIcESaIcEEEEclIS7_EEOT_SB_
FNDA:5,_ZNSt8__detail15_Hash_code_baseINSt7__cxx1112basic_stringIcSt11char_traitsIcESaIcEEES6_NS_9_IdentityESt4hashIS6_ENS_18_Mod_range_hashingENS_20_Default_ranged_hashELb1EEC2Ev
FNDA:0,_ZNKSt8__detail15_Hash_code_baseINSt7__cxx1112basic_stringIcSt11char_traitsIcESaIcEEES6_NS_9_IdentityESt4hashIS6_ENS_18_Mod_range_hashingENS_20_Default_ranged_hashELb1EE12_M_hash_codeERKS6_
FNDA:0,_ZNKSt8__detail15_Hash_code_baseINSt7__cxx1112basic_stringIcSt11char_traitsIcESaIcEEES6_NS_9_IdentityESt4hashIS6_ENS_18_Mod_range_hashingENS_20_Default_ranged_hashELb1EE15_M_hash_code_trIS6_EEmRKT_
FNDA:0,_ZNKSt8__detail15_Hash_code_baseINSt7__cxx1112basic_stringIcSt11char_traitsIcESaIcEEES6_NS_9_IdentityESt4hashIS6_ENS_18_Mod_range_hashingENS_20_Default_ranged_hashELb1EE15_M_bucket_indexEmm
FNDA:0,_ZNKSt8__detail15_Hash_code_baseINSt7__cxx1112basic_stringIcSt11char_traitsIcESaIcEEES6_NS_9_IdentityESt4hashIS6_ENS_18_Mod_range_hashingENS_20_Default_ranged_hashELb1EE15_M_bucket_indexERKNS_16_Hash_node_valueIS6_Lb1EEEm
FNDA:0,_ZNKSt8__detail15_Hash_code_baseINSt7__cxx1112basic_stringIcSt11char_traitsIcESaIcEEES6_NS_9_IdentityESt4hashIS6_ENS_18_Mod_range_hashingENS_20_Default_ranged_hashELb1EE13_M_store_codeERNS_21_Hash_node_code_cacheILb1EEEm
FNDA:0,_ZNKSt8__detail15_Hash_code_baseINSt7__cxx1112basic_stringIcSt11char_traitsIcESaIcEEES6_NS_9_IdentityESt4hashIS6_ENS_18_Mod_range_hashingENS_20_Default_ranged_hashELb1EE7_M_hashEv
FNDA:0,_ZNSt8__detail15_Hashtable_baseINSt7__cxx1112basic_stringIcSt11char_traitsIcESaIcEEES6_NS_9_IdentityESt8equal_toIS6_ESt4hashIS6_ENS_18_Mod_range_hashingENS_20_Default_ranged_hashENS_17_Hashtable_traitsILb1ELb1ELb1EEEE9_S_equalsEmRKNS_21_Hash_node_code_cacheILb1EEE
FNDA:5,_ZNSt8__detail15_Hashtable_baseINSt7__cxx1112basic_stringIcSt11char_traitsIcESaIcEEES6_NS_9_IdentityESt8equal_toIS6_ESt4hashIS6_ENS_18_Mod_range_hashingENS_20_Default_ranged_hashENS_17_Hashtable_traitsILb1ELb1ELb1EEEEC2Ev
FNDA:0,_ZNKSt8__detail15_Hashtable_baseINSt7__cxx1112basic_stringIcSt11char_traitsIcESaIcEEES6_NS_9_IdentityESt8equal_toIS6_ESt4hashIS6_ENS_18_Mod_range_hashingENS_20_Default_ranged_hashENS_17_Hashtable_traitsILb1ELb1ELb1EEEE13_M_key_equalsERKS6_RKNS_16_Hash_node_valueIS6_Lb1EEE
FNDA:0,_ZNSt8__detail12_NodeBuilderINS_9_IdentityEE8_S_buildINSt7__cxx1112basic_stringIcSt11char_traitsIcESaIcEEES9_NS_10_AllocNodeISaINS_10_Hash_nodeIS9_Lb1EEEEEEEEPNT1_11__node_typeEOT_OT0_RKSF_
FNDA:0,_ZNKSt8__detail15_Hashtable_baseINSt7__cxx1112basic_stringIcSt11char_traitsIcESaIcEEES6_NS_9_IdentityESt8equal_toIS6_ESt4hashIS6_ENS_18_Mod_range_hashingENS_20_Default_ranged_hashENS_17_Hashtable_traitsILb1ELb1ELb1EEEE16_M_key_equals_trIS6_EEbRKT_RKNS_16_Hash_node_valueIS6_Lb1EEE
FNDA:0,_ZNKSt8__detail15_Hashtable_baseINSt7__cxx1112basic_stringIcSt11char_traitsIcESaIcEEES6_NS_9_IdentityESt8equal_toIS6_ESt4hashIS6_ENS_18_Mod_range_hashingENS_20_Default_ranged_hashENS_17_Hashtable_traitsILb1ELb1ELb1EEEE9_M_equalsERKS6_mRKNS_16_Hash_node_valueIS6_Lb1EEE
FNDA:0,_ZNKSt8__detail15_Hashtable_baseINSt7__cxx1112basic_stringIcSt11char_traitsIcESaIcEEES6_NS_9_IdentityESt8equal_toIS6_ESt4hashIS6_ENS_18_Mod_range_hashingENS_20_Default_ranged_hashENS_17_Hashtable_traitsILb1ELb1ELb1EEEE12_M_equals_trIS6_EEbRKT_mRKNS_16_Hash_node_valueIS6_Lb1EEE
FNDA:0,_ZNKSt8__detail15_Hashtable_baseINSt7__cxx1112basic_stringIcSt11char_traitsIcESaIcEEES6_NS_9_IdentityESt8equal_toIS6_ESt4hashIS6_ENS_18_Mod_range_hashingENS_20_Default_ranged_hashENS_17_Hashtable_traitsILb1ELb1ELb1EEEE5_M_eqEv
FNDA:5,_ZNSt8__detail16_Hashtable_allocISaINS_10_Hash_nodeINSt7__cxx1112basic_stringIcSt11char_traitsIcESaIcEEELb1EEEEEC2Ev
FNDA:2,_ZNSt8__detail16_Hashtable_allocISaINS_10_Hash_nodeINSt7__cxx1112basic_stringIcSt11char_traitsIcESaIcEEELb1EEEEE17_M_node_allocatorEv
FNDA:0,_ZNSt8__detail16_Hashtable_allocISaINS_10_Hash_nodeINSt7__cxx1112basic_stringIcSt11char_traitsIcESaIcEEELb1EEEEE16_M_allocate_nodeIJS7_EEEPS8_DpOT_
FNDA:0,_ZNSt8__detail16_Hashtable_allocISaINS_10_Hash_nodeINSt7__cxx1112basic_stringIcSt11char_traitsIcESaIcEEELb1EEEEE18_M_deallocate_nodeEPS8_
FNDA:0,_ZNSt8__detail16_Hashtable_allocISaINS_10_Hash_nodeINSt7__cxx1112basic_stringIcSt11char_traitsIcESaIcEEELb1EEEEE22_M_deallocate_node_ptrEPS8_
FNDA:6,_ZNSt8__detail16_Hashtable_allocISaINS_10_Hash_nodeINSt7__cxx1112basic_stringIcSt11char_traitsIcESaIcEEELb1EEEEE19_M_deallocate_nodesEPS8_
FNDA:0,_ZNSt8__detail16_Hashtable_allocISaINS_10_Hash_nodeINSt7__cxx1112basic_stringIcSt11char_traitsIcESaIcEEELb1EEEEE19_M_allocate_bucketsEm
FNDA:0,_ZNSt8__detail16_Hashtable_allocISaINS_10_Hash_nodeINSt7__cxx1112basic_stringIcSt11char_traitsIcESaIcEEELb1EEEEE21_M_deallocate_bucketsEPPNS_15_Hash_node_baseEm
FNDA:0,_ZNSt8__detail10_AllocNodeISaINS_10_Hash_nodeINSt7__cxx1112basic_stringIcSt11char_traitsIcESaIcEEELb1EEEEEC2ERNS_16_Hashtable_allocIS9_EE
FNDA:0,_ZNKSt8__detail10_AllocNodeISaINS_10_Hash_nodeINSt7__cxx1112basic_stringIcSt11char_traitsIcESaIcEEELb1EEEEEclIJS7_EEEPS8_DpOT_
FNDA:69,_ZNSt8__detail22_Hashtable_hash_traitsISt4hashINSt7__cxx1112basic_stringIcSt11char_traitsIcESaIcEEEEE22__small_size_thresholdEv
FNDA:5,_ZNSt8__detail15_Hash_node_baseC2Ev
FNDA:0,_ZNKSt8__detail10_Hash_nodeINSt7__cxx1112basic_stringIcSt11char_traitsIcESaIcEEELb1EE7_M_nextEv
FNDA:210,_ZNSt8__detail19_Node_iterator_baseINSt7__cxx1112basic_stringIcSt11char_traitsIcESaIcEEELb1EEC2EPNS_10_Hash_nodeIS6_Lb1EEE
FNDA:0,_ZNSt8__detail19_Node_iterator_baseINSt7__cxx1112basic_stringIcSt11char_traitsIcESaIcEEELb1EE7_M_incrEv
FNDA:69,_ZNSt8__detaileqERKNS_19_Node_iterator_baseINSt7__cxx1112basic_stringIcSt11char_traitsIcESaIcEEELb1EEES9_
FNDA:3,_ZNSt8__detail14_Node_iteratorINSt7__cxx1112basic_stringIcSt11char_traitsIcESaIcEEELb1ELb1EEC2EPNS_10_Hash_nodeIS6_Lb1EEE
FNDA:0,_ZNSt8__detail14_Node_iteratorINSt7__cxx1112basic_stringIcSt11char_traitsIcESaIcEEELb1ELb1EEppEv
FNDA:207,_ZNSt8__detail20_Node_const_iteratorINSt7__cxx1112basic_stringIcSt11char_traitsIcESaIcEEELb1ELb1EEC2EPNS_10_Hash_nodeIS6_Lb1EEE
FNDA:0,_ZNSt8__detail20_Node_const_iteratorINSt7__cxx1112basic_stringIcSt11char_traitsIcESaIcEEELb1ELb1EEC2ERKNS_14_Node_iteratorIS6_Lb1ELb1EEE
FNDA:0,_ZNSt8__detail20_Node_const_iteratorINSt7__cxx1112basic_stringIcSt11char_traitsIcESaIcEEELb1ELb1EEppEv
FNDA:0,_ZNKSt8__detail18_Mod_range_hashingclEmm
FNDA:5,_ZNSt8__detail20_Prime_rehash_policyC2Ef
FNDA:0,_ZNKSt8__detail20_Prime_rehash_policy8_M_stateEv
FNDA:1,_ZNSt8__detail20_Prime_rehash_policy8_M_resetEv
FNDA:0,_ZNSt8__detail20_Prime_rehash_policy8_M_resetEm
FNDA:0,_ZNKSt8__detail9_IdentityclINSt7__cxx1112basic_stringIcSt11char_traitsIcESaIcEEEEEOT_S9_
FNDA:0,_ZNKSt8__detail9_IdentityclIRKNSt7__cxx1112basic_stringIcSt11char_traitsIcESaIcEEEEEOT_SB_
FNDA:0,_ZNSt8__detail12_Insert_baseINSt7__cxx1112basic_stringIcSt11char_traitsIcESaIcEEES6_SaIS6_ENS_9_IdentityESt8equal_toIS6_ESt4hashIS6_ENS_18_Mod_range_hashingENS_20_Default_ranged_hashENS_20_Prime_rehash_policyENS_17_Hashtable_traitsILb1ELb1ELb1EEEE20_M_conjure_hashtableEv
FNF:52
FNH:17
DA:89,0
DA:90,0
DA:124,0
DA:125,0
DA:171,0
DA:173,0
DA:242,0
DA:243,0
DA:247,0
DA:248,0
DA:297,69
DA:298,69
DA:313,5
DA:333,0
DA:338,0
DA:348,0
DA:380,0
DA:381,0
DA:393,210
DA:394,210
DA:397,0
DA:398,0
DA:401,69
DA:403,69
DA:436,3
DA:437,3
DA:448,0
DA:450,0
DA:451,0
DA:483,207
DA:484,207
DA:486,0
DA:488,0
DA:499,0
DA:501,0
DA:502,0
DA:526,0
DA:528,0
DA:544,5
DA:545,5
DA:571,0
DA:572,0
DA:575,1
DA:576,1
DA:579,0
DA:580,0
DA:903,0
DA:904,0
DA:1079,0
DA:1081,0
DA:1082,0
DA:1083,0
DA:1084,0
DA:1218,15
DA:1225,0
DA:1226,2
DA:1301,5
DA:1306,0
DA:1310,0
DA:1315,0
DA:1319,0
DA:1331,0
DA:1332,0
DA:1346,0
DA:1350,0
DA:1362,0
DA:1363,0
DA:1375,0
DA:1692,0
DA:1693,0
DA:1701,5
DA:1708,0
DA:1715,0
DA:1720,0
DA:1728,0
DA:1732,0
DA:1734,0
DA:1738,0
DA:1741,0
DA:1760,0
DA:1940,5
DA:1950,2
DA:1951,2
DA:1987,0
DA:1990,0
DA:1991,0
DA:1994,0
DA:1995,0
DA:1998,0
DA:2000,0
DA:2002,0
DA:2003,0
DA:2009,0
DA:2011,0
DA:2012,0
DA:2013,0
DA:2017,0
DA:2020,0
DA:2021,0
DA:2022,0
DA:2023,0
DA:2027,6
DA:2029,6
DA:2031,0
DA:2032,0
DA:2033,0
DA:2035,6
DA:2039,0
DA:2042,0
DA:2044,0
DA:2045,0
DA:2046,0
DA:2047,0
DA:2052,0
DA:2057,0
DA:2058,0
DA:2060,0
LF:117
LH:25
end_of_record
TN:
SF:/usr/include/c++/13/bits/ios_base.h
FN:1001,1005,_ZSt9uppercaseRSt8ios_base
FN:103,104,_ZStaNRSt13_Ios_FmtflagsS_
FN:1067,1071,_ZSt3hexRSt8ios_base
FN:1084,1088,_ZSt5fixedRSt8ios_base
FN:662,663,_ZNKSt8ios_base5flagsEv
FN:673,678,_ZNSt8ios_base5flagsESt13_Ios_Fmtflags
FN:689,694,_ZNSt8ios_base4setfESt13_Ios_Fmtflags
FN:706,712,_ZNSt8ios_base4setfESt13_Ios_FmtflagsS0_
FN:83,84,_ZStanSt13_Ios_FmtflagsS_
FN:87,88,_ZStorSt13_Ios_FmtflagsS_
FN:95,96,_ZStcoSt13_Ios_Fmtflags
FN:953,957,_ZSt9showpointRSt8ios_base
FN:99,100,_ZStoRRSt13_Ios_FmtflagsS_
FNDA:0,_ZSt9uppercaseRSt8ios_base
FNDA:0,_ZStaNRSt13_Ios_FmtflagsS_
FNDA:0,_ZSt3hexRSt8ios_base
FNDA:0,_ZSt5fixedRSt8ios_base
FNDA:0,_ZNKSt8ios_base5flagsEv
FNDA:0,_ZNSt8ios_base5flagsESt13_Ios_Fmtflags
FNDA:0,_ZNSt8ios_base4setfESt13_Ios_Fmtflags
FNDA:0,_ZNSt8ios_base4setfESt13_Ios_FmtflagsS0_
FNDA:0,_ZStanSt13_Ios_FmtflagsS_
FNDA:0,_ZStorSt13_Ios_FmtflagsS_
FNDA:0,_ZStcoSt13_Ios_Fmtflags
FNDA:0,_ZSt9showpointRSt8ios_base
FNDA:0,_ZStoRRSt13_Ios_FmtflagsS_
FNF:13
FNH:0
DA:83,0
DA:84,0
DA:87,0
DA:88,0
DA:95,0
DA:96,0
DA:99,0
DA:100,0
DA:103,0
DA:104,0
DA:662,0
DA:663,0
DA:673,0
DA:675,0
DA:676,0
DA:677,0
DA:689,0
DA:691,0
DA:692,0
DA:693,0
DA:706,0
DA:708,0
DA:709,0
DA:710,0
DA:711,0
DA:953,0
DA:955,0
DA:956,0
DA:1001,0
DA:1003,0
DA:1004,0
DA:1067,0
DA:1069,0
DA:1070,0
DA:1084,0
DA:1086,0
DA:1087,0
LF:37
LH:0
end_of_record
TN:
SF:/usr/include/c++/13/bits/list.tcc
FN:66,83,_ZNSt7__cxx1110_List_baseISt4pairIcPKcESaIS4_EE8_M_clearEv
FNDA:0,_ZNSt7__cxx1110_List_baseISt4pairIcPKcESaIS4_EE8_M_clearEv
FNF:1
FNH:0
DA:66,0
DA:70,0
DA:71,0
DA:73,0
DA:74,0
DA:75,0
DA:77,0
DA:81,0
DA:83,0
LF:9
LH:0
end_of_record
TN:
SF:/usr/include/c++/13/bits/move.h
FN:138,139,_ZSt9addressofIKcEPT_RS1_
FN:138,139,_ZSt9addressofIKwEPT_RS1_
FN:138,139,_ZSt9addressofINSt8__detail10_Hash_nodeINSt7__cxx1112basic_stringIcSt11char_traitsIcESaIcEEELb1EEEEPT_RS9_
FN:138,139,_ZSt9addressofIPNSt8__detail15_Hash_node_baseEEPT_RS3_
FN:138,139,_ZSt9addressofIcEPT_RS0_
FN:138,139,_ZSt9addressofIwEPT_RS0_
FN:189,200,_ZSt4swapIN7testing8internal13edit_distance8EditTypeEENSt9enable_ifIXsrSt6__and_IJSt6__not_ISt15__is_tuple_likeIT_EESt21is_move_constructibleIS8_ESt18is_move_assignableIS8_EEE5valueEvE4typeERS8_SI_
FN:189,200,_ZSt4swapIPN7testing8TestInfoEENSt9enable_ifIXsrSt6__and_IJSt6__not_ISt15__is_tuple_likeIT_EESt21is_move_constructibleIS7_ESt18is_move_assignableIS7_EEE5valueEvE4typeERS7_SH_
FN:189,200,_ZSt4swapIPNSt7__cxx1112basic_stringIcSt11char_traitsIcESaIcEEEENSt9enable_ifIXsrSt6__and_IJSt6__not_ISt15__is_tuple_likeIT_EESt21is_move_constructibleISB_ESt18is_move_assignableISB_EEE5valueEvE4typeERSB_SL_
FN:189,200,_ZSt4swapISt14default_deleteINSt7__cxx1112basic_stringIcSt11char_traitsIcESaIcEEEEENSt9enable_ifIXsrSt6__and_IJSt6__not_ISt15__is_tuple_likeIT_EESt21is_move_constructibleISC_ESt18is_move_assignableISC_EEE5valueEvE4typeERSC_SM_
FN:189,200,_ZSt4swapIbENSt9enable_ifIXsrSt6__and_IJSt6__not_ISt15__is_tuple_likeIT_EESt21is_move_constructibleIS4_ESt18is_move_assignableIS4_EEE5valueEvE4typeERS4_SE_
FN:189,200,_ZSt4swapIiENSt9enable_ifIXsrSt6__and_IJSt6__not_ISt15__is_tuple_likeIT_EESt21is_move_constructibleIS4_ESt18is_move_assignableIS4_EEE5valueEvE4typeERS4_SE_
FN:189,200,_ZSt4swapIlENSt9enable_ifIXsrSt6__and_IJSt6__not_ISt15__is_tuple_likeIT_EESt21is_move_constructibleIS4_ESt18is_move_assignableIS4_EEE5valueEvE4typeERS4_SE_
FN:51,52,_ZSt11__addressofIKNSt7__cxx1112basic_stringIcSt11char_traitsIcESaIcEEEEPT_RS7_
FN:51,52,_ZSt11__addressofIKcEPT_RS1_
FN:51,52,_ZSt11__addressofIKwEPT_RS1_
FN:51,52,_ZSt11__addressofIN7testing12TestPropertyEEPT_RS2_
FN:51,52,_ZSt11__addressofIN7testing14TestPartResultEEPT_RS2_
FN:51,52,_ZSt11__addressofIN7testing8internal13edit_distance8EditTypeEEPT_RS4_
FN:51,52,_ZSt11__addressofIN7testing8internal9TraceInfoEEPT_RS3_
FN:51,52,_ZSt11__addressofINSt7__cxx1112basic_stringIcSt11char_traitsIcESaIcEEEEPT_RS6_
FN:51,52,_ZSt11__addressofINSt8__detail10_Hash_nodeINSt7__cxx1112basic_stringIcSt11char_traitsIcESaIcEEELb1EEEEPT_RS9_
FN:51,52,_ZSt11__addressofIPN7testing11EnvironmentEEPT_RS3_
FN:51,52,_ZSt11__addressofIPN7testing17TestEventListenerEEPT_RS3_
FN:51,52,_ZSt11__addressofIPN7testing8TestInfoEEPT_RS3_
FN:51,52,_ZSt11__addressofIPN7testing8internal30ParameterizedTestSuiteInfoBaseEEPT_RS4_
FN:51,52,_ZSt11__addressofIPN7testing9TestSuiteEEPT_RS3_
FN:51,52,_ZSt11__addressofIPNSt8__detail15_Hash_node_baseEEPT_RS3_
FN:51,52,_ZSt11__addressofISaISt10_List_nodeISt4pairIcPKcEEEEPT_RS7_
FN:51,52,_ZSt11__addressofISt10_HashtableINSt7__cxx1112basic_stringIcSt11char_traitsIcESaIcEEES6_SaIS6_ENSt8__detail9_IdentityESt8equal_toIS6_ESt4hashIS6_ENS8_18_Mod_range_hashingENS8_20_Default_ranged_hashENS8_20_Prime_rehash_policyENS8_17_Hashtable_traitsILb1ELb1ELb1EEEEEPT_RSK_
FN:51,52,_ZSt11__addressofISt13unordered_setINSt7__cxx1112basic_stringIcSt11char_traitsIcESaIcEEESt4hashIS6_ESt8equal_toIS6_ESaIS6_EEEPT_RSD_
FN:51,52,_ZSt11__addressofISt6vectorIN7testing8internal13edit_distance8EditTypeESaIS4_EEEPT_RS7_
FN:51,52,_ZSt11__addressofISt6vectorINSt7__cxx1112basic_stringIcSt11char_traitsIcESaIcEEESaIS6_EEEPT_RS9_
FN:51,52,_ZSt11__addressofISt6vectorIdSaIdEEEPT_RS3_
FN:51,52,_ZSt11__addressofIcEPT_RS0_
FN:51,52,_ZSt11__addressofIdEPT_RS0_
FN:51,52,_ZSt11__addressofIiEPT_RS0_
FN:51,52,_ZSt11__addressofImEPT_RS0_
FN:51,52,_ZSt11__addressofIwEPT_RS0_
FN:70,71,_ZSt7forwardIN7testing12TestPropertyEEOT_RNSt16remove_referenceIS2_E4typeE
FN:70,71,_ZSt7forwardIN7testing14TestPartResultEEOT_RNSt16remove_referenceIS2_E4typeE
FN:70,71,_ZSt7forwardIN7testing8internal13edit_distance8EditTypeEEOT_RNSt16remove_referenceIS4_E4typeE
FN:70,71,_ZSt7forwardIN7testing8internal34TypeParameterizedTestSuiteRegistry30TypeParameterizedTestSuiteInfoEEOT_RNSt16remove_referenceIS4_E4typeE
FN:70,71,_ZSt7forwardIN7testing8internal9EqMatcherINSt7__cxx1112basic_stringIcSt11char_traitsIcESaIcEEEEEEOT_RNSt16remove_referenceISA_E4typeE
FN:70,71,_ZSt7forwardIN7testing8internal9TraceInfoEEOT_RNSt16remove_referenceIS3_E4typeE
FN:70,71,_ZSt7forwardINSt7__cxx1112basic_stringIcSt11char_traitsIcESaIcEEEEOT_RNSt16remove_referenceIS6_E4typeE
FN:70,71,_ZSt7forwardINSt8__detail14_Node_iteratorINSt7__cxx1112basic_stringIcSt11char_traitsIcESaIcEEELb1ELb1EEEEOT_RNSt16remove_referenceIS9_E4typeE
FN:70,71,_ZSt7forwardIPKN7testing8internal11MatcherBaseINSt7__cxx1112basic_stringIcSt11char_traitsIcESaIcEEEEEEOT_RNSt16remove_referenceISC_E4typeE
FN:70,71,_ZSt7forwardIPKN7testing8internal11MatcherBaseIRKNSt7__cxx1112basic_stringIcSt11char_traitsIcESaIcEEEEEEOT_RNSt16remove_referenceISE_E4typeE
FN:70,71,_ZSt7forwardIPKN7testing8internal11MatcherBaseIRKSt17basic_string_viewIcSt11char_traitsIcEEEEEOT_RNSt16remove_referenceISC_E4typeE
FN:70,71,_ZSt7forwardIPKN7testing8internal11MatcherBaseISt17basic_string_viewIcSt11char_traitsIcEEEEEOT_RNSt16remove_referenceISA_E4typeE
FN:70,71,_ZSt7forwardIPKN7testing8internal9EqMatcherINSt7__cxx1112basic_stringIcSt11char_traitsIcESaIcEEEEEEOT_RNSt16remove_referenceISC_E4typeE
FN:70,71,_ZSt7forwardIPN7testing11EnvironmentEEOT_RNSt16remove_referenceIS3_E4typeE
FN:70,71,_ZSt7forwardIPN7testing17TestEventListenerEEOT_RNSt16remove_referenceIS3_E4typeE
FN:70,71,_ZSt7forwardIPN7testing8TestInfoEEOT_RNSt16remove_referenceIS3_E4typeE
FN:70,71,_ZSt7forwardIPN7testing9TestSuiteEEOT_RNSt16remove_referenceIS3_E4typeE
FN:70,71,_ZSt7forwardIPPN7testing8TestInfoEEOT_RNSt16remove_referenceIS4_E4typeE
FN:70,71,_ZSt7forwardIRKN7testing12TestPropertyEEOT_RNSt16remove_referenceIS4_E4typeE
FN:70,71,_ZSt7forwardIRKN7testing14TestPartResultEEOT_RNSt16remove_referenceIS4_E4typeE
FN:70,71,_ZSt7forwardIRKN7testing8internal13edit_distance8EditTypeEEOT_RNSt16remove_referenceIS6_E4typeE
FN:70,71,_ZSt7forwardIRKN7testing8internal9TraceInfoEEOT_RNSt16remove_referenceIS5_E4typeE
FN:70,71,_ZSt7forwardIRKNSt7__cxx1112basic_stringIcSt11char_traitsIcESaIcEEEEOT_RNSt16remove_referenceIS8_E4typeE
FN:70,71,_ZSt7forwardIRKPKcEOT_RNSt16remove_referenceIS4_E4typeE
FN:70,71,_ZSt7forwardIRKPN7testing11EnvironmentEEOT_RNSt16remove_referenceIS5_E4typeE
FN:70,71,_ZSt7forwardIRKPN7testing17TestEventListenerEEOT_RNSt16remove_referenceIS5_E4typeE
FN:70,71,_ZSt7forwardIRKPN7testing8TestInfoEEOT_RNSt16remove_referenceIS5_E4typeE
FN:70,71,_ZSt7forwardIRKPN7testing9TestSuiteEEOT_RNSt16remove_referenceIS5_E4typeE
FN:70,71,_ZSt7forwardIRKSt17basic_string_viewIcSt11char_traitsIcEEEOT_RNSt16remove_referenceIS6_E4typeE
FN:70,71,_ZSt7forwardIRKSt21piecewise_construct_tEOT_RNSt16remove_referenceIS3_E4typeE
FN:70,71,_ZSt7forwardIRKSt6vectorIN7testing8internal13edit_distance8EditTypeESaIS4_EEEOT_RNSt16remove_referenceIS9_E4typeE
FN:70,71,_ZSt7forwardIRKSt6vectorIdSaIdEEEOT_RNSt16remove_referenceIS5_E4typeE
FN:70,71,_ZSt7forwardIRKcEOT_RNSt16remove_referenceIS2_E4typeE
FN:70,71,_ZSt7forwardIRKdEOT_RNSt16remove_referenceIS2_E4typeE
FN:70,71,_ZSt7forwardIRKiEOT_RNSt16remove_referenceIS2_E4typeE
FN:70,71,_ZSt7forwardIRKwEOT_RNSt16remove_referenceIS2_E4typeE
FN:70,71,_ZSt7forwardIRN7testing8internal34TypeParameterizedTestSuiteRegistry30TypeParameterizedTestSuiteInfoEEOT_RNSt16remove_referenceIS5_E4typeE
FN:70,71,_ZSt7forwardIRNSt7__cxx1112basic_stringIcSt11char_traitsIcESaIcEEEEOT_RNSt16remove_referenceIS7_E4typeE
FN:70,71,_ZSt7forwardIRNSt8__detail14_Node_iteratorINSt7__cxx1112basic_stringIcSt11char_traitsIcESaIcEEELb1ELb1EEEEOT_RNSt16remove_referenceISA_E4typeE
FN:70,71,_ZSt7forwardIRPKcEOT_RNSt16remove_referenceIS3_E4typeE
FN:70,71,_ZSt7forwardIRPPN7testing8TestInfoEEOT_RNSt16remove_referenceIS5_E4typeE
FN:70,71,_ZSt7forwardIRPSt13_Rb_tree_nodeINSt7__cxx1112basic_stringIcSt11char_traitsIcESaIcEEEEEOT_RNSt16remove_referenceISA_E4typeE
FN:70,71,_ZSt7forwardIRPSt13_Rb_tree_nodeISt4pairIKNSt7__cxx1112basic_stringIcSt11char_traitsIcESaIcEEEN7testing8internal34TypeParameterizedTestSuiteRegistry30TypeParameterizedTestSuiteInfoEEEEOT_RNSt16remove_referenceISH_E4typeE
FN:70,71,_ZSt7forwardIRPSt13_Rb_tree_nodeISt4pairIKNSt7__cxx1112basic_stringIcSt11char_traitsIcESaIcEEEmEEEOT_RNSt16remove_referenceISD_E4typeE
FN:70,71,_ZSt7forwardIRPSt18_Rb_tree_node_baseEOT_RNSt16remove_referenceIS3_E4typeE
FN:70,71,_ZSt7forwardIRSt17_Rb_tree_iteratorINSt7__cxx1112basic_stringIcSt11char_traitsIcESaIcEEEEEOT_RNSt16remove_referenceIS9_E4typeE
FN:70,71,_ZSt7forwardIRSt17_Rb_tree_iteratorISt4pairIKNSt7__cxx1112basic_stringIcSt11char_traitsIcESaIcEEEN7testing8internal34TypeParameterizedTestSuiteRegistry30TypeParameterizedTestSuiteInfoEEEEOT_RNSt16remove_referenceISG_E4typeE
FN:70,71,_ZSt7forwardIRbEOT_RNSt16remove_referenceIS1_E4typeE
FN:70,71,_ZSt7forwardIRcEOT_RNSt16remove_referenceIS1_E4typeE
FN:70,71,_ZSt7forwardIRlEOT_RNSt16remove_referenceIS1_E4typeE
FN:70,71,_ZSt7forwardISt14default_deleteINSt7__cxx1112basic_stringIcSt11char_traitsIcESaIcEEEEEOT_RNSt16remove_referenceIS8_E4typeE
FN:70,71,_ZSt7forwardISt17_Rb_tree_iteratorINSt7__cxx1112basic_stringIcSt11char_traitsIcESaIcEEEEEOT_RNSt16remove_referenceIS8_E4typeE
FN:70,71,_ZSt7forwardISt4pairIcPKcEEOT_RNSt16remove_referenceIS4_E4typeE
FN:70,71,_ZSt7forwardISt5tupleIJEEEOT_RNSt16remove_referenceIS2_E4typeE
FN:70,71,_ZSt7forwardISt5tupleIJRKNSt7__cxx1112basic_stringIcSt11char_traitsIcESaIcEEEEEEOT_RNSt16remove_referenceISA_E4typeE
FN:70,71,_ZSt7forwardIbEOT_RNSt16remove_referenceIS0_E4typeE
FN:70,71,_ZSt7forwardIcEOT_RNSt16remove_referenceIS0_E4typeE
FN:70,71,_ZSt7forwardIiEOT_RNSt16remove_referenceIS0_E4typeE
FN:70,71,_ZSt7forwardImEOT_RNSt16remove_referenceIS0_E4typeE
FN:97,98,_ZSt4moveIRN7testing12TestPropertyEEONSt16remove_referenceIT_E4typeEOS4_
FN:97,98,_ZSt4moveIRN7testing14TestPartResultEEONSt16remove_referenceIT_E4typeEOS4_
FN:97,98,_ZSt4moveIRN7testing7MatcherIRKNSt7__cxx1112basic_stringIcSt11char_traitsIcESaIcEEEEEEONSt16remove_referenceIT_E4typeEOSD_
FN:97,98,_ZSt4moveIRN7testing8internal13edit_distance8EditTypeEEONSt16remove_referenceIT_E4typeEOS6_
FN:97,98,_ZSt4moveIRN7testing8internal15TestSuiteNameIsEEONSt16remove_referenceIT_E4typeEOS5_
FN:97,98,_ZSt4moveIRN7testing8internal17TestPropertyKeyIsEEONSt16remove_referenceIT_E4typeEOS5_
FN:97,98,_ZSt4moveIRN7testing8internal9EqMatcherINSt7__cxx1112basic_stringIcSt11char_traitsIcESaIcEEEEEEONSt16remove_referenceIT_E4typeEOSC_
FN:97,98,_ZSt4moveIRN7testing8internal9TraceInfoEEONSt16remove_referenceIT_E4typeEOS5_
FN:97,98,_ZSt4moveIRN9__gnu_cxx5__ops15_Iter_comp_iterIZN7testing9TestSuite3RunEvEUlPKNS3_8TestInfoES7_E_EEEONSt16remove_referenceIT_E4typeEOSC_
FN:97,98,_ZSt4moveIRNSt7__cxx1112basic_stringIcSt11char_traitsIcESaIcEEEEONSt16remove_referenceIT_E4typeEOS8_
FN:97,98,_ZSt4moveIRNSt7__cxx114listISt4pairIcPKcESaIS5_EEEEONSt16remove_referenceIT_E4typeEOSA_
FN:97,98,_ZSt4moveIRPKNSt7__cxx1112basic_stringIcSt11char_traitsIcESaIcEEEEONSt16remove_referenceIT_E4typeEOSA_
FN:97,98,_ZSt4moveIRPN7testing11EnvironmentEEONSt16remove_referenceIT_E4typeEOS5_
FN:97,98,_ZSt4moveIRPN7testing17TestEventListenerEEONSt16remove_referenceIT_E4typeEOS5_
FN:97,98,_ZSt4moveIRPN7testing8TestInfoEEONSt16remove_referenceIT_E4typeEOS5_
FN:97,98,_ZSt4moveIRPN7testing8internal11ThreadLocalIPNS0_31TestPartResultReporterInterfaceEE18ValueHolderFactoryEEONSt16remove_referenceIT_E4typeEOSA_
FN:97,98,_ZSt4moveIRPN7testing8internal11ThreadLocalISt6vectorINS1_9TraceInfoESaIS4_EEE18ValueHolderFactoryEEONSt16remove_referenceIT_E4typeEOSC_
FN:97,98,_ZSt4moveIRPN7testing8internal14GTestFlagSaverEEONSt16remove_referenceIT_E4typeEOS6_
FN:97,98,_ZSt4moveIRPN7testing8internal16DeathTestFactoryEEONSt16remove_referenceIT_E4typeEOS6_
FN:97,98,_ZSt4moveIRPN7testing8internal17StreamingListener20AbstractSocketWriterEEONSt16remove_referenceIT_E4typeEOS7_
FN:97,98,_ZSt4moveIRPN7testing8internal24InternalRunDeathTestFlagEEONSt16remove_referenceIT_E4typeEOS6_
FN:97,98,_ZSt4moveIRPN7testing9TestSuiteEEONSt16remove_referenceIT_E4typeEOS5_
FN:97,98,_ZSt4moveIRPNSt7__cxx1112basic_stringIcSt11char_traitsIcESaIcEEEEONSt16remove_referenceIT_E4typeEOS9_
FN:97,98,_ZSt4moveIRPNSt7__cxx1118basic_stringstreamIcSt11char_traitsIcESaIcEEEEONSt16remove_referenceIT_E4typeEOS9_
FN:97,98,_ZSt4moveIRSaINSt7__cxx1112basic_stringIcSt11char_traitsIcESaIcEEEEEONSt16remove_referenceIT_E4typeEOS9_
FN:97,98,_ZSt4moveIRSaINSt8__detail10_Hash_nodeINSt7__cxx1112basic_stringIcSt11char_traitsIcESaIcEEELb1EEEEEONSt16remove_referenceIT_E4typeEOSC_
FN:97,98,_ZSt4moveIRSaIcEEONSt16remove_referenceIT_E4typeEOS3_
FN:97,98,_ZSt4moveIRSt10_HashtableINSt7__cxx1112basic_stringIcSt11char_traitsIcESaIcEEES6_SaIS6_ENSt8__detail9_IdentityESt8equal_toIS6_ESt4hashIS6_ENS8_18_Mod_range_hashingENS8_20_Default_ranged_hashENS8_20_Prime_rehash_policyENS8_17_Hashtable_traitsILb1ELb1ELb1EEEEEONSt16remove_referenceIT_E4typeEOSM_
FN:97,98,_ZSt4moveIRSt14default_deleteINSt7__cxx1112basic_stringIcSt11char_traitsIcESaIcEEEEEONSt16remove_referenceIT_E4typeEOSA_
FN:97,98,_ZSt4moveIRSt4pairIRNSt7__cxx1112basic_stringIcSt11char_traitsIcESaIcEEERN7testing8internal34TypeParameterizedTestSuiteRegistry30TypeParameterizedTestSuiteInfoEEEONSt16remove_referenceIT_E4typeEOSG_
FN:97,98,_ZSt4moveIRSt4pairIcPKcEEONSt16remove_referenceIT_E4typeEOS6_
FN:97,98,_ZSt4moveIRSt6vectorINSt7__cxx1112basic_stringIcSt11char_traitsIcESaIcEEESaIS6_EEEONSt16remove_referenceIT_E4typeEOSB_
FN:97,98,_ZSt4moveIRZN7testing8internal12_GLOBAL__N_113IsGlobPatternERKNSt7__cxx1112basic_stringIcSt11char_traitsIcESaIcEEEEUlcE_EONSt16remove_referenceIT_E4typeEOSE_
FN:97,98,_ZSt4moveIRZN7testing8internal23InsertSyntheticTestCaseERKNSt7__cxx1112basic_stringIcSt11char_traitsIcESaIcEEENS1_12CodeLocationEbEUlvE_EONSt16remove_referenceIT_E4typeEOSE_
FN:97,98,_ZSt4moveIRZN7testing8internal34TypeParameterizedTestSuiteRegistry22CheckForInstantiationsEvEUlvE_EONSt16remove_referenceIT_E4typeEOS6_
FN:97,98,_ZSt4moveIRZN7testing9TestSuite3RunEvEUlPKNS0_8TestInfoES4_E_EONSt16remove_referenceIT_E4typeEOS8_
FN:97,98,_ZSt4moveIRZNK7testing8internal12_GLOBAL__N_114UnitTestFilter11MatchesNameERKNSt7__cxx1112basic_stringIcSt11char_traitsIcESaIcEEEEUlSB_E_EONSt16remove_referenceIT_E4typeEOSF_
FN:97,98,_ZSt4moveIRbEONSt16remove_referenceIT_E4typeEOS2_
FN:97,98,_ZSt4moveIRiEONSt16remove_referenceIT_E4typeEOS2_
FN:97,98,_ZSt4moveIRlEONSt16remove_referenceIT_E4typeEOS2_
FN:97,98,_ZSt4moveIRmEONSt16remove_referenceIT_E4typeEOS2_
FNDA:2090,_ZSt9addressofIKcEPT_RS1_
FNDA:0,_ZSt9addressofIKwEPT_RS1_
FNDA:0,_ZSt9addressofINSt8__detail10_Hash_nodeINSt7__cxx1112basic_stringIcSt11char_traitsIcESaIcEEELb1EEEEPT_RS9_
FNDA:0,_ZSt9addressofIPNSt8__detail15_Hash_node_baseEEPT_RS3_
FNDA:599,_ZSt9addressofIcEPT_RS0_
FNDA:0,_ZSt9addressofIwEPT_RS0_
FNDA:0,_ZSt4swapIN7testing8internal13edit_distance8EditTypeEENSt9enable_ifIXsrSt6__and_IJSt6__not_ISt15__is_tuple_likeIT_EESt21is_move_constructibleIS8_ESt18is_move_assignableIS8_EEE5valueEvE4typeERS8_SI_
FNDA:0,_ZSt4swapIPN7testing8TestInfoEENSt9enable_ifIXsrSt6__and_IJSt6__not_ISt15__is_tuple_likeIT_EESt21is_move_constructibleIS7_ESt18is_move_assignableIS7_EEE5valueEvE4typeERS7_SH_
FNDA:0,_ZSt4swapIPNSt7__cxx1112basic_stringIcSt11char_traitsIcESaIcEEEENSt9enable_ifIXsrSt6__and_IJSt6__not_ISt15__is_tuple_likeIT_EESt21is_move_constructibleISB_ESt18is_move_assignableISB_EEE5valueEvE4typeERSB_SL_
FNDA:0,_ZSt4swapISt14default_deleteINSt7__cxx1112basic_stringIcSt11char_traitsIcESaIcEEEEENSt9enable_ifIXsrSt6__and_IJSt6__not_ISt15__is_tuple_likeIT_EESt21is_move_constructibleISC_ESt18is_move_assignableISC_EEE5valueEvE4typeERSC_SM_
FNDA:0,_ZSt4swapIbENSt9enable_ifIXsrSt6__and_IJSt6__not_ISt15__is_tuple_likeIT_EESt21is_move_constructibleIS4_ESt18is_move_assignableIS4_EEE5valueEvE4typeERS4_SE_
FNDA:3,_ZSt4swapIiENSt9enable_ifIXsrSt6__and_IJSt6__not_ISt15__is_tuple_likeIT_EESt21is_move_constructibleIS4_ESt18is_move_assignableIS4_EEE5valueEvE4typeERS4_SE_
FNDA:0,_ZSt4swapIlENSt9enable_ifIXsrSt6__and_IJSt6__not_ISt15__is_tuple_likeIT_EESt21is_move_constructibleIS4_ESt18is_move_assignableIS4_EEE5valueEvE4typeERS4_SE_
FNDA:205,_ZSt11__addressofIKNSt7__cxx1112basic_stringIcSt11char_traitsIcESaIcEEEEPT_RS7_
FNDA:2090,_ZSt11__addressofIKcEPT_RS1_
FNDA:0,_ZSt11__addressofIKwEPT_RS1_
FNDA:0,_ZSt11__addressofIN7testing12TestPropertyEEPT_RS2_
FNDA:0,_ZSt11__addressofIN7testing14TestPartResultEEPT_RS2_
FNDA:0,_ZSt11__addressofIN7testing8internal13edit_distance8EditTypeEEPT_RS4_
FNDA:0,_ZSt11__addressofIN7testing8internal9TraceInfoEEPT_RS3_
FNDA:46,_ZSt11__addressofINSt7__cxx1112basic_stringIcSt11char_traitsIcESaIcEEEEPT_RS6_
FNDA:0,_ZSt11__addressofINSt8__detail10_Hash_nodeINSt7__cxx1112basic_stringIcSt11char_traitsIcESaIcEEELb1EEEEPT_RS9_
FNDA:0,_ZSt11__addressofIPN7testing11EnvironmentEEPT_RS3_
FNDA:0,_ZSt11__addressofIPN7testing17TestEventListenerEEPT_RS3_
FNDA:0,_ZSt11__addressofIPN7testing8TestInfoEEPT_RS3_
FNDA:0,_ZSt11__addressofIPN7testing8internal30ParameterizedTestSuiteInfoBaseEEPT_RS4_
FNDA:0,_ZSt11__addressofIPN7testing9TestSuiteEEPT_RS3_
FNDA:0,_ZSt11__addressofIPNSt8__detail15_Hash_node_baseEEPT_RS3_
FNDA:0,_ZSt11__addressofISaISt10_List_nodeISt4pairIcPKcEEEEPT_RS7_
FNDA:1,_ZSt11__addressofISt10_HashtableINSt7__cxx1112basic_stringIcSt11char_traitsIcESaIcEEES6_SaIS6_ENSt8__detail9_IdentityESt8equal_toIS6_ESt4hashIS6_ENS8_18_Mod_range_hashingENS8_20_Default_ranged_hashENS8_20_Prime_rehash_policyENS8_17_Hashtable_traitsILb1ELb1ELb1EEEEEPT_RSK_
FNDA:3,_ZSt11__addressofISt13unordered_setINSt7__cxx1112basic_stringIcSt11char_traitsIcESaIcEEESt4hashIS6_ESt8equal_toIS6_ESaIS6_EEEPT_RSD_
FNDA:0,_ZSt11__addressofISt6vectorIN7testing8internal13edit_distance8EditTypeESaIS4_EEEPT_RS7_
FNDA:3,_ZSt11__addressofISt6vectorINSt7__cxx1112basic_stringIcSt11char_traitsIcESaIcEEESaIS6_EEEPT_RS9_
FNDA:0,_ZSt11__addressofISt6vectorIdSaIdEEEPT_RS3_
FNDA:599,_ZSt11__addressofIcEPT_RS0_
FNDA:0,_ZSt11__addressofIdEPT_RS0_
FNDA:0,_ZSt11__addressofIiEPT_RS0_
FNDA:0,_ZSt11__addressofImEPT_RS0_
FNDA:0,_ZSt11__addressofIwEPT_RS0_
FNDA:0,_ZSt7forwardIN7testing12TestPropertyEEOT_RNSt16remove_referenceIS2_E4typeE
FNDA:0,_ZSt7forwardIN7testing14TestPartResultEEOT_RNSt16remove_referenceIS2_E4typeE
FNDA:0,_ZSt7forwardIN7testing8internal13edit_distance8EditTypeEEOT_RNSt16remove_referenceIS4_E4typeE
FNDA:0,_ZSt7forwardIN7testing8internal34TypeParameterizedTestSuiteRegistry30TypeParameterizedTestSuiteInfoEEOT_RNSt16remove_referenceIS4_E4typeE
FNDA:0,_ZSt7forwardIN7testing8internal9EqMatcherINSt7__cxx1112basic_stringIcSt11char_traitsIcESaIcEEEEEEOT_RNSt16remove_referenceISA_E4typeE
FNDA:0,_ZSt7forwardIN7testing8internal9TraceInfoEEOT_RNSt16remove_referenceIS3_E4typeE
FNDA:42,_ZSt7forwardINSt7__cxx1112basic_stringIcSt11char_traitsIcESaIcEEEEOT_RNSt16remove_referenceIS6_E4typeE
FNDA:0,_ZSt7forwardINSt8__detail14_Node_iteratorINSt7__cxx1112basic_stringIcSt11char_traitsIcESaIcEEELb1ELb1EEEEOT_RNSt16remove_referenceIS9_E4typeE
FNDA:0,_ZSt7forwardIPKN7testing8internal11MatcherBaseINSt7__cxx1112basic_stringIcSt11char_traitsIcESaIcEEEEEEOT_RNSt16remove_referenceISC_E4typeE
FNDA:0,_ZSt7forwardIPKN7testing8internal11MatcherBaseIRKNSt7__cxx1112basic_stringIcSt11char_traitsIcESaIcEEEEEEOT_RNSt16remove_referenceISE_E4typeE
FNDA:0,_ZSt7forwardIPKN7testing8internal11MatcherBaseIRKSt17basic_string_viewIcSt11char_traitsIcEEEEEOT_RNSt16remove_referenceISC_E4typeE
FNDA:0,_ZSt7forwardIPKN7testing8internal11MatcherBaseISt17basic_string_viewIcSt11char_traitsIcEEEEEOT_RNSt16remove_referenceISA_E4typeE
FNDA:0,_ZSt7forwardIPKN7testing8internal9EqMatcherINSt7__cxx1112basic_stringIcSt11char_traitsIcESaIcEEEEEEOT_RNSt16remove_referenceISC_E4typeE
FNDA:0,_ZSt7forwardIPN7testing11EnvironmentEEOT_RNSt16remove_referenceIS3_E4typeE
FNDA:0,_ZSt7forwardIPN7testing17TestEventListenerEEOT_RNSt16remove_referenceIS3_E4typeE
FNDA:0,_ZSt7forwardIPN7testing8TestInfoEEOT_RNSt16remove_referenceIS3_E4typeE
FNDA:0,_ZSt7forwardIPN7testing9TestSuiteEEOT_RNSt16remove_referenceIS3_E4typeE
FNDA:0,_ZSt7forwardIPPN7testing8TestInfoEEOT_RNSt16remove_referenceIS4_E4typeE
FNDA:0,_ZSt7forwardIRKN7testing12TestPropertyEEOT_RNSt16remove_referenceIS4_E4typeE
FNDA:0,_ZSt7forwardIRKN7testing14TestPartResultEEOT_RNSt16remove_referenceIS4_E4typeE
FNDA:0,_ZSt7forwardIRKN7testing8internal13edit_distance8EditTypeEEOT_RNSt16remove_referenceIS6_E4typeE
FNDA:0,_ZSt7forwardIRKN7testing8internal9TraceInfoEEOT_RNSt16remove_referenceIS5_E4typeE
FNDA:1,_ZSt7forwardIRKNSt7__cxx1112basic_stringIcSt11char_traitsIcESaIcEEEEOT_RNSt16remove_referenceIS8_E4typeE
FNDA:0,_ZSt7forwardIRKPKcEOT_RNSt16remove_referenceIS4_E4typeE
FNDA:0,_ZSt7forwardIRKPN7testing11EnvironmentEEOT_RNSt16remove_referenceIS5_E4typeE
FNDA:3,_ZSt7forwardIRKPN7testing17TestEventListenerEEOT_RNSt16remove_referenceIS5_E4typeE
FNDA:40,_ZSt7forwardIRKPN7testing8TestInfoEEOT_RNSt16remove_referenceIS5_E4typeE
FNDA:3,_ZSt7forwardIRKPN7testing9TestSuiteEEOT_RNSt16remove_referenceIS5_E4typeE
FNDA:0,_ZSt7forwardIRKSt17basic_string_viewIcSt11char_traitsIcEEEOT_RNSt16remove_referenceIS6_E4typeE
FNDA:0,_ZSt7forwardIRKSt21piecewise_construct_tEOT_RNSt16remove_referenceIS3_E4typeE
FNDA:0,_ZSt7forwardIRKSt6vectorIN7testing8internal13edit_distance8EditTypeESaIS4_EEEOT_RNSt16remove_referenceIS9_E4typeE
FNDA:0,_ZSt7forwardIRKSt6vectorIdSaIdEEEOT_RNSt16remove_referenceIS5_E4typeE
FNDA:0,_ZSt7forwardIRKcEOT_RNSt16remove_referenceIS2_E4typeE
FNDA:0,_ZSt7forwardIRKdEOT_RNSt16remove_referenceIS2_E4typeE
FNDA:9,_ZSt7forwardIRKiEOT_RNSt16remove_referenceIS2_E4typeE
FNDA:0,_ZSt7forwardIRKwEOT_RNSt16remove_referenceIS2_E4typeE
FNDA:0,_ZSt7forwardIRN7testing8internal34TypeParameterizedTestSuiteRegistry30TypeParameterizedTestSuiteInfoEEOT_RNSt16remove_referenceIS5_E4typeE
FNDA:0,_ZSt7forwardIRNSt7__cxx1112basic_stringIcSt11char_traitsIcESaIcEEEEOT_RNSt16remove_referenceIS7_E4typeE
FNDA:0,_ZSt7forwardIRNSt8__detail14_Node_iteratorINSt7__cxx1112basic_stringIcSt11char_traitsIcESaIcEEELb1ELb1EEEEOT_RNSt16remove_referenceISA_E4typeE
FNDA:0,_ZSt7forwardIRPKcEOT_RNSt16remove_referenceIS3_E4typeE
FNDA:1,_ZSt7forwardIRPPN7testing8TestInfoEEOT_RNSt16remove_referenceIS5_E4typeE
FNDA:0,_ZSt7forwardIRPSt13_Rb_tree_nodeINSt7__cxx1112basic_stringIcSt11char_traitsIcESaIcEEEEEOT_RNSt16remove_referenceISA_E4typeE
FNDA:0,_ZSt7forwardIRPSt13_Rb_tree_nodeISt4pairIKNSt7__cxx1112basic_stringIcSt11char_traitsIcESaIcEEEN7testing8internal34TypeParameterizedTestSuiteRegistry30TypeParameterizedTestSuiteInfoEEEEOT_RNSt16remove_referenceISH_E4typeE
FNDA:0,_ZSt7forwardIRPSt13_Rb_tree_nodeISt4pairIKNSt7__cxx1112basic_stringIcSt11char_traitsIcESaIcEEEmEEEOT_RNSt16remove_referenceISD_E4typeE
FNDA:0,_ZSt7forwardIRPSt18_Rb_tree_node_baseEOT_RNSt16remove_referenceIS3_E4typeE
FNDA:0,_ZSt7forwardIRSt17_Rb_tree_iteratorINSt7__cxx1112basic_stringIcSt11char_traitsIcESaIcEEEEEOT_RNSt16remove_referenceIS9_E4typeE
FNDA:0,_ZSt7forwardIRSt17_Rb_tree_iteratorISt4pairIKNSt7__cxx1112basic_stringIcSt11char_traitsIcESaIcEEEN7testing8internal34TypeParameterizedTestSuiteRegistry30TypeParameterizedTestSuiteInfoEEEEOT_RNSt16remove_referenceISG_E4typeE
FNDA:0,_ZSt7forwardIRbEOT_RNSt16remove_referenceIS1_E4typeE
FNDA:0,_ZSt7forwardIRcEOT_RNSt16remove_referenceIS1_E4typeE
FNDA:1,_ZSt7forwardIRlEOT_RNSt16remove_referenceIS1_E4typeE
FNDA:0,_ZSt7forwardISt14default_deleteINSt7__cxx1112basic_stringIcSt11char_traitsIcESaIcEEEEEOT_RNSt16remove_referenceIS8_E4typeE
FNDA:0,_ZSt7forwardISt17_Rb_tree_iteratorINSt7__cxx1112basic_stringIcSt11char_traitsIcESaIcEEEEEOT_RNSt16remove_referenceIS8_E4typeE
FNDA:0,_ZSt7forwardISt4pairIcPKcEEOT_RNSt16remove_referenceIS4_E4typeE
FNDA:0,_ZSt7forwardISt5tupleIJEEEOT_RNSt16remove_referenceIS2_E4typeE
FNDA:0,_ZSt7forwardISt5tupleIJRKNSt7__cxx1112basic_stringIcSt11char_traitsIcESaIcEEEEEEOT_RNSt16remove_referenceISA_E4typeE
FNDA:0,_ZSt7forwardIbEOT_RNSt16remove_referenceIS0_E4typeE
FNDA:0,_ZSt7forwardIcEOT_RNSt16remove_referenceIS0_E4typeE
FNDA:61,_ZSt7forwardIiEOT_RNSt16remove_referenceIS0_E4typeE
FNDA:0,_ZSt7forwardImEOT_RNSt16remove_referenceIS0_E4typeE
FNDA:0,_ZSt4moveIRN7testing12TestPropertyEEONSt16remove_referenceIT_E4typeEOS4_
FNDA:0,_ZSt4moveIRN7testing14TestPartResultEEONSt16remove_referenceIT_E4typeEOS4_
FNDA:0,_ZSt4moveIRN7testing7MatcherIRKNSt7__cxx1112basic_stringIcSt11char_traitsIcESaIcEEEEEEONSt16remove_referenceIT_E4typeEOSD_
FNDA:0,_ZSt4moveIRN7testing8internal13edit_distance8EditTypeEEONSt16remove_referenceIT_E4typeEOS6_
FNDA:34,_ZSt4moveIRN7testing8internal15TestSuiteNameIsEEONSt16remove_referenceIT_E4typeEOS5_
FNDA:0,_ZSt4moveIRN7testing8internal17TestPropertyKeyIsEEONSt16remove_referenceIT_E4typeEOS5_
FNDA:0,_ZSt4moveIRN7testing8internal9EqMatcherINSt7__cxx1112basic_stringIcSt11char_traitsIcESaIcEEEEEEONSt16remove_referenceIT_E4typeEOSC_
FNDA:0,_ZSt4moveIRN7testing8internal9TraceInfoEEONSt16remove_referenceIT_E4typeEOS5_
FNDA:13,_ZSt4moveIRN9__gnu_cxx5__ops15_Iter_comp_iterIZN7testing9TestSuite3RunEvEUlPKNS3_8TestInfoES7_E_EEEONSt16remove_referenceIT_E4typeEOSC_
FNDA:60,_ZSt4moveIRNSt7__cxx1112basic_stringIcSt11char_traitsIcESaIcEEEEONSt16remove_referenceIT_E4typeEOS8_
FNDA:0,_ZSt4moveIRNSt7__cxx114listISt4pairIcPKcESaIS5_EEEEONSt16remove_referenceIT_E4typeEOSA_
FNDA:0,_ZSt4moveIRPKNSt7__cxx1112basic_stringIcSt11char_traitsIcESaIcEEEEONSt16remove_referenceIT_E4typeEOSA_
FNDA:0,_ZSt4moveIRPN7testing11EnvironmentEEONSt16remove_referenceIT_E4typeEOS5_
FNDA:0,_ZSt4moveIRPN7testing17TestEventListenerEEONSt16remove_referenceIT_E4typeEOS5_
FNDA:49,_ZSt4moveIRPN7testing8TestInfoEEONSt16remove_referenceIT_E4typeEOS5_
FNDA:1,_ZSt4moveIRPN7testing8internal11ThreadLocalIPNS0_31TestPartResultReporterInterfaceEE18ValueHolderFactoryEEONSt16remove_referenceIT_E4typeEOSA_
FNDA:1,_ZSt4moveIRPN7testing8internal11ThreadLocalISt6vectorINS1_9TraceInfoESaIS4_EEE18ValueHolderFactoryEEONSt16remove_referenceIT_E4typeEOSC_
FNDA:17,_ZSt4moveIRPN7testing8internal14GTestFlagSaverEEONSt16remove_referenceIT_E4typeEOS6_
FNDA:1,_ZSt4moveIRPN7testing8internal16DeathTestFactoryEEONSt16remove_referenceIT_E4typeEOS6_
FNDA:0,_ZSt4moveIRPN7testing8internal17StreamingListener20AbstractSocketWriterEEONSt16remove_referenceIT_E4typeEOS7_
FNDA:1,_ZSt4moveIRPN7testing8internal24InternalRunDeathTestFlagEEONSt16remove_referenceIT_E4typeEOS6_
FNDA:0,_ZSt4moveIRPN7testing9TestSuiteEEONSt16remove_referenceIT_E4typeEOS5_
FNDA:0,_ZSt4moveIRPNSt7__cxx1112basic_stringIcSt11char_traitsIcESaIcEEEEONSt16remove_referenceIT_E4typeEOS9_
FNDA:69,_ZSt4moveIRPNSt7__cxx1118basic_stringstreamIcSt11char_traitsIcESaIcEEEEONSt16remove_referenceIT_E4typeEOS9_
FNDA:1,_ZSt4moveIRSaINSt7__cxx1112basic_stringIcSt11char_traitsIcESaIcEEEEEONSt16remove_referenceIT_E4typeEOS9_
FNDA:1,_ZSt4moveIRSaINSt8__detail10_Hash_nodeINSt7__cxx1112basic_stringIcSt11char_traitsIcESaIcEEELb1EEEEEONSt16remove_referenceIT_E4typeEOSC_
FNDA:462,_ZSt4moveIRSaIcEEONSt16remove_referenceIT_E4typeEOS3_
FNDA:2,_ZSt4moveIRSt10_HashtableINSt7__cxx1112basic_stringIcSt11char_traitsIcESaIcEEES6_SaIS6_ENSt8__detail9_IdentityESt8equal_toIS6_ESt4hashIS6_ENS8_18_Mod_range_hashingENS8_20_Default_ranged_hashENS8_20_Prime_rehash_policyENS8_17_Hashtable_traitsILb1ELb1ELb1EEEEEONSt16remove_referenceIT_E4typeEOSM_
FNDA:0,_ZSt4moveIRSt14default_deleteINSt7__cxx1112basic_stringIcSt11char_traitsIcESaIcEEEEEONSt16remove_referenceIT_E4typeEOSA_
FNDA:0,_ZSt4moveIRSt4pairIRNSt7__cxx1112basic_stringIcSt11char_traitsIcESaIcEEERN7testing8internal34TypeParameterizedTestSuiteRegistry30TypeParameterizedTestSuiteInfoEEEONSt16remove_referenceIT_E4typeEOSG_
FNDA:0,_ZSt4moveIRSt4pairIcPKcEEONSt16remove_referenceIT_E4typeEOS6_
FNDA:1,_ZSt4moveIRSt6vectorINSt7__cxx1112basic_stringIcSt11char_traitsIcESaIcEEESaIS6_EEEONSt16remove_referenceIT_E4typeEOSB_
FNDA:10,_ZSt4moveIRZN7testing8internal12_GLOBAL__N_113IsGlobPatternERKNSt7__cxx1112basic_stringIcSt11char_traitsIcESaIcEEEEUlcE_EONSt16remove_referenceIT_E4typeEOSE_
FNDA:0,_ZSt4moveIRZN7testing8internal23InsertSyntheticTestCaseERKNSt7__cxx1112basic_stringIcSt11char_traitsIcESaIcEEENS1_12CodeLocationEbEUlvE_EONSt16remove_referenceIT_E4typeEOSE_
FNDA:0,_ZSt4moveIRZN7testing8internal34TypeParameterizedTestSuiteRegistry22CheckForInstantiationsEvEUlvE_EONSt16remove_referenceIT_E4typeEOS6_
FNDA:15,_ZSt4moveIRZN7testing9TestSuite3RunEvEUlPKNS0_8TestInfoES4_E_EONSt16remove_referenceIT_E4typeEOS8_
FNDA:138,_ZSt4moveIRZNK7testing8internal12_GLOBAL__N_114UnitTestFilter11MatchesNameERKNSt7__cxx1112basic_stringIcSt11char_traitsIcESaIcEEEEUlSB_E_EONSt16remove_referenceIT_E4typeEOSF_
FNDA:0,_ZSt4moveIRbEONSt16remove_referenceIT_E4typeEOS2_
FNDA:27,_ZSt4moveIRiEONSt16remove_referenceIT_E4typeEOS2_
FNDA:0,_ZSt4moveIRlEONSt16remove_referenceIT_E4typeEOS2_
FNDA:0,_ZSt4moveIRmEONSt16remove_referenceIT_E4typeEOS2_
FNF:139
FNH:38
DA:51,2947
DA:52,2947
DA:70,161
DA:71,161
DA:97,903
DA:98,903
DA:138,2689
DA:139,2689
DA:189,3
DA:197,3
DA:198,3
DA:199,3
DA:200,3
LF:13
LH:13
end_of_record
TN:
SF:/usr/include/c++/13/bits/new_allocator.h
FN:126,152,_ZNSt15__new_allocatorIN7testing12TestPropertyEE8allocateEmPKv
FN:126,152,_ZNSt15__new_allocatorIN7testing14TestPartResultEE8allocateEmPKv
FN:126,152,_ZNSt15__new_allocatorIN7testing8internal13edit_distance8EditTypeEE8allocateEmPKv
FN:126,152,_ZNSt15__new_allocatorIN7testing8internal9TraceInfoEE8allocateEmPKv
FN:126,152,_ZNSt15__new_allocatorINSt7__cxx1112basic_stringIcSt11char_traitsIcESaIcEEEE8allocateEmPKv
FN:126,152,_ZNSt15__new_allocatorINSt8__detail10_Hash_nodeINSt7__cxx1112basic_stringIcSt11char_traitsIcESaIcEEELb1EEEE8allocateEmPKv
FN:126,152,_ZNSt15__new_allocatorIPN7testing11EnvironmentEE8allocateEmPKv
FN:126,152,_ZNSt15__new_allocatorIPN7testing17TestEventListenerEE8allocateEmPKv
FN:126,152,_ZNSt15__new_allocatorIPN7testing8TestInfoEE8allocateEmPKv
FN:126,152,_ZNSt15__new_allocatorIPN7testing9TestSuiteEE8allocateEmPKv
FN:126,152,_ZNSt15__new_allocatorIPNSt8__detail15_Hash_node_baseEE8allocateEmPKv
FN:126,152,_ZNSt15__new_allocatorISt10_List_nodeISt4pairIcPKcEEE8allocateEmPKv
FN:126,152,_ZNSt15__new_allocatorISt13_Rb_tree_nodeINSt7__cxx1112basic_stringIcSt11char_traitsIcESaIcEEEEE8allocateEmPKv
FN:126,152,_ZNSt15__new_allocatorISt13_Rb_tree_nodeISt4pairIKNSt7__cxx1112basic_stringIcSt11char_traitsIcESaIcEEEN7testing8internal34TypeParameterizedTestSuiteRegistry30TypeParameterizedTestSuiteInfoEEEE8allocateEmPKv
FN:126,152,_ZNSt15__new_allocatorISt13_Rb_tree_nodeISt4pairIKNSt7__cxx1112basic_stringIcSt11char_traitsIcESaIcEEEmEEE8allocateEmPKv
FN:126,152,_ZNSt15__new_allocatorISt6vectorIN7testing8internal13edit_distance8EditTypeESaIS4_EEE8allocateEmPKv
FN:126,152,_ZNSt15__new_allocatorISt6vectorIdSaIdEEE8allocateEmPKv
FN:126,152,_ZNSt15__new_allocatorIcE8allocateEmPKv
FN:126,152,_ZNSt15__new_allocatorIdE8allocateEmPKv
FN:126,152,_ZNSt15__new_allocatorIiE8allocateEmPKv
FN:126,152,_ZNSt15__new_allocatorImE8allocateEmPKv
FN:126,152,_ZNSt15__new_allocatorIwE8allocateEmPKv
FN:156,173,_ZNSt15__new_allocatorIN7testing12TestPropertyEE10deallocateEPS1_m
FN:156,173,_ZNSt15__new_allocatorIN7testing14TestPartResultEE10deallocateEPS1_m
FN:156,173,_ZNSt15__new_allocatorIN7testing8internal13edit_distance8EditTypeEE10deallocateEPS3_m
FN:156,173,_ZNSt15__new_allocatorIN7testing8internal9TraceInfoEE10deallocateEPS2_m
FN:156,173,_ZNSt15__new_allocatorINSt7__cxx1112basic_stringIcSt11char_traitsIcESaIcEEEE10deallocateEPS5_m
FN:156,173,_ZNSt15__new_allocatorINSt8__detail10_Hash_nodeINSt7__cxx1112basic_stringIcSt11char_traitsIcESaIcEEELb1EEEE10deallocateEPS8_m
FN:156,173,_ZNSt15__new_allocatorIPN7testing11EnvironmentEE10deallocateEPS2_m
FN:156,173,_ZNSt15__new_allocatorIPN7testing17TestEventListenerEE10deallocateEPS2_m
FN:156,173,_ZNSt15__new_allocatorIPN7testing8TestInfoEE10deallocateEPS2_m
FN:156,173,_ZNSt15__new_allocatorIPN7testing8internal30ParameterizedTestSuiteInfoBaseEE10deallocateEPS3_m
FN:156,173,_ZNSt15__new_allocatorIPN7testing9TestSuiteEE10deallocateEPS2_m
FN:156,173,_ZNSt15__new_allocatorIPNSt8__detail15_Hash_node_baseEE10deallocateEPS2_m
FN:156,173,_ZNSt15__new_allocatorISt10_List_nodeISt4pairIcPKcEEE10deallocateEPS5_m
FN:156,173,_ZNSt15__new_allocatorISt13_Rb_tree_nodeINSt7__cxx1112basic_stringIcSt11char_traitsIcESaIcEEEEE10deallocateEPS7_m
FN:156,173,_ZNSt15__new_allocatorISt13_Rb_tree_nodeISt4pairIKNSt7__cxx1112basic_stringIcSt11char_traitsIcESaIcEEEN7testing8internal34TypeParameterizedTestSuiteRegistry30TypeParameterizedTestSuiteInfoEEEE10deallocateEPSE_m
FN:156,173,_ZNSt15__new_allocatorISt13_Rb_tree_nodeISt4pairIKNSt7__cxx1112basic_stringIcSt11char_traitsIcESaIcEEEmEEE10deallocateEPSA_m
FN:156,173,_ZNSt15__new_allocatorISt6vectorIN7testing8internal13edit_distance8EditTypeESaIS4_EEE10deallocateEPS6_m
FN:156,173,_ZNSt15__new_allocatorISt6vectorIdSaIdEEE10deallocateEPS2_m
FN:156,173,_ZNSt15__new_allocatorIcE10deallocateEPcm
FN:156,173,_ZNSt15__new_allocatorIdE10deallocateEPdm
FN:156,173,_ZNSt15__new_allocatorIiE10deallocateEPim
FN:156,173,_ZNSt15__new_allocatorImE10deallocateEPmm
FN:156,173,_ZNSt15__new_allocatorIwE10deallocateEPwm
FNDA:0,_ZNSt15__new_allocatorIN7testing12TestPropertyEE8allocateEmPKv
FNDA:0,_ZNSt15__new_allocatorIN7testing14TestPartResultEE8allocateEmPKv
FNDA:0,_ZNSt15__new_allocatorIN7testing8internal13edit_distance8EditTypeEE8allocateEmPKv
FNDA:0,_ZNSt15__new_allocatorIN7testing8internal9TraceInfoEE8allocateEmPKv
FNDA:11,_ZNSt15__new_allocatorINSt7__cxx1112basic_stringIcSt11char_traitsIcESaIcEEEE8allocateEmPKv
FNDA:0,_ZNSt15__new_allocatorINSt8__detail10_Hash_nodeINSt7__cxx1112basic_stringIcSt11char_traitsIcESaIcEEELb1EEEE8allocateEmPKv
FNDA:0,_ZNSt15__new_allocatorIPN7testing11EnvironmentEE8allocateEmPKv
FNDA:1,_ZNSt15__new_allocatorIPN7testing17TestEventListenerEE8allocateEmPKv
FNDA:6,_ZNSt15__new_allocatorIPN7testing8TestInfoEE8allocateEmPKv
FNDA:1,_ZNSt15__new_allocatorIPN7testing9TestSuiteEE8allocateEmPKv
FNDA:0,_ZNSt15__new_allocatorIPNSt8__detail15_Hash_node_baseEE8allocateEmPKv
FNDA:0,_ZNSt15__new_allocatorISt10_List_nodeISt4pairIcPKcEEE8allocateEmPKv
FNDA:0,_ZNSt15__new_allocatorISt13_Rb_tree_nodeINSt7__cxx1112basic_stringIcSt11char_traitsIcESaIcEEEEE8allocateEmPKv
FNDA:0,_ZNSt15__new_allocatorISt13_Rb_tree_nodeISt4pairIKNSt7__cxx1112basic_stringIcSt11char_traitsIcESaIcEEEN7testing8internal34TypeParameterizedTestSuiteRegistry30TypeParameterizedTestSuiteInfoEEEE8allocateEmPKv
FNDA:0,_ZNSt15__new_allocatorISt13_Rb_tree_nodeISt4pairIKNSt7__cxx1112basic_stringIcSt11char_traitsIcESaIcEEEmEEE8allocateEmPKv
FNDA:0,_ZNSt15__new_allocatorISt6vectorIN7testing8internal13edit_distance8EditTypeESaIS4_EEE8allocateEmPKv
FNDA:0,_ZNSt15__new_allocatorISt6vectorIdSaIdEEE8allocateEmPKv
FNDA:165,_ZNSt15__new_allocatorIcE8allocateEmPKv
FNDA:0,_ZNSt15__new_allocatorIdE8allocateEmPKv
FNDA:11,_ZNSt15__new_allocatorIiE8allocateEmPKv
FNDA:0,_ZNSt15__new_allocatorImE8allocateEmPKv
FNDA:0,_ZNSt15__new_allocatorIwE8allocateEmPKv
FNDA:0,_ZNSt15__new_allocatorIN7testing12TestPropertyEE10deallocateEPS1_m
FNDA:0,_ZNSt15__new_allocatorIN7testing14TestPartResultEE10deallocateEPS1_m
FNDA:0,_ZNSt15__new_allocatorIN7testing8internal13edit_distance8EditTypeEE10deallocateEPS3_m
FNDA:0,_ZNSt15__new_allocatorIN7testing8internal9TraceInfoEE10deallocateEPS2_m
FNDA:11,_ZNSt15__new_allocatorINSt7__cxx1112basic_stringIcSt11char_traitsIcESaIcEEEE10deallocateEPS5_m
FNDA:0,_ZNSt15__new_allocatorINSt8__detail10_Hash_nodeINSt7__cxx1112basic_stringIcSt11char_traitsIcESaIcEEELb1EEEE10deallocateEPS8_m
FNDA:0,_ZNSt15__new_allocatorIPN7testing11EnvironmentEE10deallocateEPS2_m
FNDA:1,_ZNSt15__new_allocatorIPN7testing17TestEventListenerEE10deallocateEPS2_m
FNDA:6,_ZNSt15__new_allocatorIPN7testing8TestInfoEE10deallocateEPS2_m
FNDA:0,_ZNSt15__new_allocatorIPN7testing8internal30ParameterizedTestSuiteInfoBaseEE10deallocateEPS3_m
FNDA:1,_ZNSt15__new_allocatorIPN7testing9TestSuiteEE10deallocateEPS2_m
FNDA:0,_ZNSt15__new_allocatorIPNSt8__detail15_Hash_node_baseEE10deallocateEPS2_m
FNDA:0,_ZNSt15__new_allocatorISt10_List_nodeISt4pairIcPKcEEE10deallocateEPS5_m
FNDA:0,_ZNSt15__new_allocatorISt13_Rb_tree_nodeINSt7__cxx1112basic_stringIcSt11char_traitsIcESaIcEEEEE10deallocateEPS7_m
FNDA:0,_ZNSt15__new_allocatorISt13_Rb_tree_nodeISt4pairIKNSt7__cxx1112basic_stringIcSt11char_traitsIcESaIcEEEN7testing8internal34TypeParameterizedTestSuiteRegistry30TypeParameterizedTestSuiteInfoEEEE10deallocateEPSE_m
FNDA:0,_ZNSt15__new_allocatorISt13_Rb_tree_nodeISt4pairIKNSt7__cxx1112basic_stringIcSt11char_traitsIcESaIcEEEmEEE10deallocateEPSA_m
FNDA:0,_ZNSt15__new_allocatorISt6vectorIN7testing8internal13edit_distance8EditTypeESaIS4_EEE10deallocateEPS6_m
FNDA:0,_ZNSt15__new_allocatorISt6vectorIdSaIdEEE10deallocateEPS2_m
FNDA:165,_ZNSt15__new_allocatorIcE10deallocateEPcm
FNDA:0,_ZNSt15__new_allocatorIdE10deallocateEPdm
FNDA:11,_ZNSt15__new_allocatorIiE10deallocateEPim
FNDA:0,_ZNSt15__new_allocatorImE10deallocateEPmm
FNDA:0,_ZNSt15__new_allocatorIwE10deallocateEPwm
FNF:45
FNH:12
DA:88,335
DA:92,686
DA:126,195
DA:134,195
DA:138,0
DA:139,0
DA:140,0
DA:151,195
DA:156,195
DA:172,195
DA:233,195
LF:11
LH:8
end_of_record
TN:
SF:/usr/include/c++/13/bits/predefined_ops.h
FN:150,152,_ZN9__gnu_cxx5__ops15_Iter_comp_iterIZN7testing9TestSuite3RunEvEUlPKNS2_8TestInfoES6_E_EC2ES7_
FN:157,158,_ZN9__gnu_cxx5__ops15_Iter_comp_iterIZN7testing9TestSuite3RunEvEUlPKNS2_8TestInfoES6_E_EclINS_17__normal_iteratorIPPS4_St6vectorISB_SaISB_EEEESC_EEbT_T0_
FN:157,158,_ZN9__gnu_cxx5__ops15_Iter_comp_iterIZN7testing9TestSuite3RunEvEUlPKNS2_8TestInfoES6_E_EclINS_17__normal_iteratorIPPS4_St6vectorISB_SaISB_EEEESG_EEbT_T0_
FN:157,158,_ZN9__gnu_cxx5__ops15_Iter_comp_iterIZN7testing9TestSuite3RunEvEUlPKNS2_8TestInfoES6_E_EclIPPS4_NS_17__normal_iteratorISB_St6vectorISA_SaISA_EEEEEEbT_T0_
FN:157,158,_ZN9__gnu_cxx5__ops15_Iter_comp_iterIZN7testing9TestSuite3RunEvEUlPKNS2_8TestInfoES6_E_EclIPPS4_SB_EEbT_T0_
FN:164,165,_ZN9__gnu_cxx5__ops16__iter_comp_iterIZN7testing9TestSuite3RunEvEUlPKNS2_8TestInfoES6_E_EENS0_15_Iter_comp_iterIT_EES9_
FN:187,189,_ZN9__gnu_cxx5__ops14_Iter_comp_valIZN7testing9TestSuite3RunEvEUlPKNS2_8TestInfoES6_E_EC2EONS0_15_Iter_comp_iterIS7_EE
FN:195,196,_ZN9__gnu_cxx5__ops14_Iter_comp_valIZN7testing9TestSuite3RunEvEUlPKNS2_8TestInfoES6_E_EclINS_17__normal_iteratorIPPS4_St6vectorISB_SaISB_EEEEKSB_EEbT_RT0_
FN:208,209,_ZN9__gnu_cxx5__ops15__iter_comp_valIZN7testing9TestSuite3RunEvEUlPKNS2_8TestInfoES6_E_EENS0_14_Iter_comp_valIT_EENS0_15_Iter_comp_iterIS9_EE
FN:231,233,_ZN9__gnu_cxx5__ops14_Val_comp_iterIZN7testing9TestSuite3RunEvEUlPKNS2_8TestInfoES6_E_EC2EONS0_15_Iter_comp_iterIS7_EE
FN:239,240,_ZN9__gnu_cxx5__ops14_Val_comp_iterIZN7testing9TestSuite3RunEvEUlPKNS2_8TestInfoES6_E_EclIKPS4_NS_17__normal_iteratorIPSA_St6vectorISA_SaISA_EEEEEEbRT_T0_
FN:239,240,_ZN9__gnu_cxx5__ops14_Val_comp_iterIZN7testing9TestSuite3RunEvEUlPKNS2_8TestInfoES6_E_EclIPS4_NS_17__normal_iteratorIPSA_St6vectorISA_SaISA_EEEEEEbRT_T0_
FN:252,253,_ZN9__gnu_cxx5__ops15__val_comp_iterIZN7testing9TestSuite3RunEvEUlPKNS2_8TestInfoES6_E_EENS0_14_Val_comp_iterIT_EENS0_15_Iter_comp_iterIS9_EE
FN:262,264,_ZN9__gnu_cxx5__ops16_Iter_equals_valIKNSt7__cxx1112basic_stringIcSt11char_traitsIcESaIcEEEEC2ERS8_
FN:269,270,_ZN9__gnu_cxx5__ops16_Iter_equals_valIKNSt7__cxx1112basic_stringIcSt11char_traitsIcESaIcEEEEclINS_17__normal_iteratorIPS8_St6vectorIS7_SaIS7_EEEEEEbT_
FN:276,277,_ZN9__gnu_cxx5__ops17__iter_equals_valIKNSt7__cxx1112basic_stringIcSt11char_traitsIcESaIcEEEEENS0_16_Iter_equals_valIT_EERSA_
FN:310,312,_ZN9__gnu_cxx5__ops10_Iter_predIN7testing8internal15TestSuiteNameIsEEC2ES4_
FN:310,312,_ZN9__gnu_cxx5__ops10_Iter_predIN7testing8internal17TestPropertyKeyIsEEC2ES4_
FN:310,312,_ZN9__gnu_cxx5__ops10_Iter_predIZN7testing8internal12_GLOBAL__N_113IsGlobPatternERKNSt7__cxx1112basic_stringIcSt11char_traitsIcESaIcEEEEUlcE_EC2ESD_
FN:310,312,_ZN9__gnu_cxx5__ops10_Iter_predIZNK7testing8internal12_GLOBAL__N_114UnitTestFilter11MatchesNameERKNSt7__cxx1112basic_stringIcSt11char_traitsIcESaIcEEEEUlSD_E_EC2ESE_
FN:317,318,_ZN9__gnu_cxx5__ops10_Iter_predIN7testing8internal15TestSuiteNameIsEEclISt16reverse_iteratorINS_17__normal_iteratorIPPNS2_9TestSuiteESt6vectorISA_SaISA_EEEEEEEbT_
FN:317,318,_ZN9__gnu_cxx5__ops10_Iter_predIN7testing8internal17TestPropertyKeyIsEEclINS_17__normal_iteratorIPNS2_12TestPropertyESt6vectorIS8_SaIS8_EEEEEEbT_
FN:317,318,_ZN9__gnu_cxx5__ops10_Iter_predIZN7testing8internal12_GLOBAL__N_113IsGlobPatternERKNSt7__cxx1112basic_stringIcSt11char_traitsIcESaIcEEEEUlcE_EclINS_17__normal_iteratorIPKcSA_EEEEbT_
FN:317,318,_ZN9__gnu_cxx5__ops10_Iter_predIZNK7testing8internal12_GLOBAL__N_114UnitTestFilter11MatchesNameERKNSt7__cxx1112basic_stringIcSt11char_traitsIcESaIcEEEEUlSD_E_EclINS_17__normal_iteratorIPSC_St6vectorISB_SaISB_EEEEEEbT_
FN:324,325,_ZN9__gnu_cxx5__ops11__pred_iterIN7testing8internal15TestSuiteNameIsEEENS0_10_Iter_predIT_EES6_
FN:324,325,_ZN9__gnu_cxx5__ops11__pred_iterIN7testing8internal17TestPropertyKeyIsEEENS0_10_Iter_predIT_EES6_
FN:324,325,_ZN9__gnu_cxx5__ops11__pred_iterIZN7testing8internal12_GLOBAL__N_113IsGlobPatternERKNSt7__cxx1112basic_stringIcSt11char_traitsIcESaIcEEEEUlcE_EENS0_10_Iter_predIT_EESF_
FN:324,325,_ZN9__gnu_cxx5__ops11__pred_iterIZNK7testing8internal12_GLOBAL__N_114UnitTestFilter11MatchesNameERKNSt7__cxx1112basic_stringIcSt11char_traitsIcESaIcEEEEUlSD_E_EENS0_10_Iter_predIT_EESG_
FNDA:1,_ZN9__gnu_cxx5__ops15_Iter_comp_iterIZN7testing9TestSuite3RunEvEUlPKNS2_8TestInfoES6_E_EC2ES7_
FNDA:0,_ZN9__gnu_cxx5__ops15_Iter_comp_iterIZN7testing9TestSuite3RunEvEUlPKNS2_8TestInfoES6_E_EclINS_17__normal_iteratorIPPS4_St6vectorISB_SaISB_EEEESC_EEbT_T0_
FNDA:27,_ZN9__gnu_cxx5__ops15_Iter_comp_iterIZN7testing9TestSuite3RunEvEUlPKNS2_8TestInfoES6_E_EclINS_17__normal_iteratorIPPS4_St6vectorISB_SaISB_EEEESG_EEbT_T0_
FNDA:8,_ZN9__gnu_cxx5__ops15_Iter_comp_iterIZN7testing9TestSuite3RunEvEUlPKNS2_8TestInfoES6_E_EclIPPS4_NS_17__normal_iteratorISB_St6vectorISA_SaISA_EEEEEEbT_T0_
FNDA:0,_ZN9__gnu_cxx5__ops15_Iter_comp_iterIZN7testing9TestSuite3RunEvEUlPKNS2_8TestInfoES6_E_EclIPPS4_SB_EEbT_T0_
FNDA:1,_ZN9__gnu_cxx5__ops16__iter_comp_iterIZN7testing9TestSuite3RunEvEUlPKNS2_8TestInfoES6_E_EENS0_15_Iter_comp_iterIT_EES9_
FNDA:0,_ZN9__gnu_cxx5__ops14_Iter_comp_valIZN7testing9TestSuite3RunEvEUlPKNS2_8TestInfoES6_E_EC2EONS0_15_Iter_comp_iterIS7_EE
FNDA:0,_ZN9__gnu_cxx5__ops14_Iter_comp_valIZN7testing9TestSuite3RunEvEUlPKNS2_8TestInfoES6_E_EclINS_17__normal_iteratorIPPS4_St6vectorISB_SaISB_EEEEKSB_EEbT_RT0_
FNDA:0,_ZN9__gnu_cxx5__ops15__iter_comp_valIZN7testing9TestSuite3RunEvEUlPKNS2_8TestInfoES6_E_EENS0_14_Iter_comp_valIT_EENS0_15_Iter_comp_iterIS9_EE
FNDA:13,_ZN9__gnu_cxx5__ops14_Val_comp_iterIZN7testing9TestSuite3RunEvEUlPKNS2_8TestInfoES6_E_EC2EONS0_15_Iter_comp_iterIS7_EE
FNDA:0,_ZN9__gnu_cxx5__ops14_Val_comp_iterIZN7testing9TestSuite3RunEvEUlPKNS2_8TestInfoES6_E_EclIKPS4_NS_17__normal_iteratorIPSA_St6vectorISA_SaISA_EEEEEEbRT_T0_
FNDA:13,_ZN9__gnu_cxx5__ops14_Val_comp_iterIZN7testing9TestSuite3RunEvEUlPKNS2_8TestInfoES6_E_EclIPS4_NS_17__normal_iteratorIPSA_St6vectorISA_SaISA_EEEEEEbRT_T0_
FNDA:13,_ZN9__gnu_cxx5__ops15__val_comp_iterIZN7testing9TestSuite3RunEvEUlPKNS2_8TestInfoES6_E_EENS0_14_Val_comp_iterIT_EENS0_15_Iter_comp_iterIS9_EE
FNDA:0,_ZN9__gnu_cxx5__ops16_Iter_equals_valIKNSt7__cxx1112basic_stringIcSt11char_traitsIcESaIcEEEEC2ERS8_
FNDA:0,_ZN9__gnu_cxx5__ops16_Iter_equals_valIKNSt7__cxx1112basic_stringIcSt11char_traitsIcESaIcEEEEclINS_17__normal_iteratorIPS8_St6vectorIS7_SaIS7_EEEEEEbT_
FNDA:0,_ZN9__gnu_cxx5__ops17__iter_equals_valIKNSt7__cxx1112basic_stringIcSt11char_traitsIcESaIcEEEEENS0_16_Iter_equals_valIT_EERSA_
FNDA:17,_ZN9__gnu_cxx5__ops10_Iter_predIN7testing8internal15TestSuiteNameIsEEC2ES4_
FNDA:0,_ZN9__gnu_cxx5__ops10_Iter_predIN7testing8internal17TestPropertyKeyIsEEC2ES4_
FNDA:5,_ZN9__gnu_cxx5__ops10_Iter_predIZN7testing8internal12_GLOBAL__N_113IsGlobPatternERKNSt7__cxx1112basic_stringIcSt11char_traitsIcESaIcEEEEUlcE_EC2ESD_
FNDA:69,_ZN9__gnu_cxx5__ops10_Iter_predIZNK7testing8internal12_GLOBAL__N_114UnitTestFilter11MatchesNameERKNSt7__cxx1112basic_stringIcSt11char_traitsIcESaIcEEEEUlSD_E_EC2ESE_
FNDA:16,_ZN9__gnu_cxx5__ops10_Iter_predIN7testing8internal15TestSuiteNameIsEEclISt16reverse_iteratorINS_17__normal_iteratorIPPNS2_9TestSuiteESt6vectorISA_SaISA_EEEEEEEbT_
FNDA:0,_ZN9__gnu_cxx5__ops10_Iter_predIN7testing8internal17TestPropertyKeyIsEEclINS_17__normal_iteratorIPNS2_12TestPropertyESt6vectorIS8_SaIS8_EEEEEEbT_
FNDA:14,_ZN9__gnu_cxx5__ops10_Iter_predIZN7testing8internal12_GLOBAL__N_113IsGlobPatternERKNSt7__cxx1112basic_stringIcSt11char_traitsIcESaIcEEEEUlcE_EclINS_17__normal_iteratorIPKcSA_EEEEbT_
FNDA:87,_ZN9__gnu_cxx5__ops10_Iter_predIZNK7testing8internal12_GLOBAL__N_114UnitTestFilter11MatchesNameERKNSt7__cxx1112basic_stringIcSt11char_traitsIcESaIcEEEEUlSD_E_EclINS_17__normal_iteratorIPSC_St6vectorISB_SaISB_EEEEEEbT_
FNDA:17,_ZN9__gnu_cxx5__ops11__pred_iterIN7testing8internal15TestSuiteNameIsEEENS0_10_Iter_predIT_EES6_
FNDA:0,_ZN9__gnu_cxx5__ops11__pred_iterIN7testing8internal17TestPropertyKeyIsEEENS0_10_Iter_predIT_EES6_
FNDA:5,_ZN9__gnu_cxx5__ops11__pred_iterIZN7testing8internal12_GLOBAL__N_113IsGlobPatternERKNSt7__cxx1112basic_stringIcSt11char_traitsIcESaIcEEEEUlcE_EENS0_10_Iter_predIT_EESF_
FNDA:69,_ZN9__gnu_cxx5__ops11__pred_iterIZNK7testing8internal12_GLOBAL__N_114UnitTestFilter11MatchesNameERKNSt7__cxx1112basic_stringIcSt11char_traitsIcESaIcEEEEUlSD_E_EENS0_10_Iter_predIT_EESG_
FNF:28
FNH:16
DA:150,1
DA:151,1
DA:152,1
DA:157,35
DA:158,35
DA:164,1
DA:165,1
DA:187,0
DA:188,0
DA:189,0
DA:195,0
DA:196,0
DA:208,0
DA:209,0
DA:231,13
DA:232,13
DA:233,13
DA:239,13
DA:240,13
DA:252,13
DA:253,13
DA:262,0
DA:263,0
DA:264,0
DA:269,0
DA:270,0
DA:276,0
DA:277,0
DA:310,91
DA:311,91
DA:312,91
DA:317,117
DA:318,117
DA:324,91
DA:325,91
LF:35
LH:21
end_of_record
TN:
SF:/usr/include/c++/13/bits/ptr_traits.h
FN:141,142,_ZNSt19__ptr_traits_ptr_toIPKcS0_Lb0EE10pointer_toERS0_
FN:141,142,_ZNSt19__ptr_traits_ptr_toIPKwS0_Lb0EE10pointer_toERS0_
FN:141,142,_ZNSt19__ptr_traits_ptr_toIPNSt8__detail10_Hash_nodeINSt7__cxx1112basic_stringIcSt11char_traitsIcESaIcEEELb1EEES8_Lb0EE10pointer_toERS8_
FN:141,142,_ZNSt19__ptr_traits_ptr_toIPPNSt8__detail15_Hash_node_baseES2_Lb0EE10pointer_toERS2_
FN:141,142,_ZNSt19__ptr_traits_ptr_toIPccLb0EE10pointer_toERc
FN:141,142,_ZNSt19__ptr_traits_ptr_toIPwwLb0EE10pointer_toERw
FN:212,216,_ZSt12__to_addressINSt8__detail10_Hash_nodeINSt7__cxx1112basic_stringIcSt11char_traitsIcESaIcEEELb1EEEEPT_SA_
FN:212,216,_ZSt12__to_addressIPNSt8__detail15_Hash_node_baseEEPT_S4_
FNDA:2090,_ZNSt19__ptr_traits_ptr_toIPKcS0_Lb0EE10pointer_toERS0_
FNDA:0,_ZNSt19__ptr_traits_ptr_toIPKwS0_Lb0EE10pointer_toERS0_
FNDA:0,_ZNSt19__ptr_traits_ptr_toIPNSt8__detail10_Hash_nodeINSt7__cxx1112basic_stringIcSt11char_traitsIcESaIcEEELb1EEES8_Lb0EE10pointer_toERS8_
FNDA:0,_ZNSt19__ptr_traits_ptr_toIPPNSt8__detail15_Hash_node_baseES2_Lb0EE10pointer_toERS2_
FNDA:599,_ZNSt19__ptr_traits_ptr_toIPccLb0EE10pointer_toERc
FNDA:0,_ZNSt19__ptr_traits_ptr_toIPwwLb0EE10pointer_toERw
FNDA:0,_ZSt12__to_addressINSt8__detail10_Hash_nodeINSt7__cxx1112basic_stringIcSt11char_traitsIcESaIcEEELb1EEEEPT_SA_
FNDA:0,_ZSt12__to_addressIPNSt8__detail15_Hash_node_baseEEPT_S4_
FNF:8
FNH:2
DA:141,2689
DA:142,2689
DA:212,0
DA:215,0
LF:4
LH:2
end_of_record
TN:
SF:/usr/include/c++/13/bits/stl_algo.h
FN:1102,1114,_ZSt9__reverseIN9__gnu_cxx17__normal_iteratorIPN7testing8internal13edit_distance8EditTypeESt6vectorIS5_SaIS5_EEEEEvT_SB_St26random_access_iterator_tag
FN:1131,1138,_ZSt7reverseIN9__gnu_cxx17__normal_iteratorIPN7testing8internal13edit_distance8EditTypeESt6vectorIS5_SaIS5_EEEEEvT_SB_
FN:1283,1362,_ZNSt3_V28__rotateIN9__gnu_cxx17__normal_iteratorIPPN7testing8TestInfoESt6vectorIS5_SaIS5_EEEEEET_SB_SB_SB_St26random_access_iterator_tag
FN:1390,1401,_ZNSt3_V26rotateIN9__gnu_cxx17__normal_iteratorIPPN7testing8TestInfoESt6vectorIS5_SaIS5_EEEEEET_SB_SB_SB_
FN:1472,1495,_ZSt11__partitionIN9__gnu_cxx17__normal_iteratorIPNSt7__cxx1112basic_stringIcSt11char_traitsIcESaIcEEESt6vectorIS7_SaIS7_EEEEPFbRKS7_EET_SH_SH_T0_St26bidirectional_iterator_tag
FN:1792,1806,_ZSt25__unguarded_linear_insertIN9__gnu_cxx17__normal_iteratorIPPN7testing8TestInfoESt6vectorIS4_SaIS4_EEEENS0_5__ops14_Val_comp_iterIZNS2_9TestSuite3RunEvEUlPKS3_SE_E_EEEvT_T0_
FN:1812,1830,_ZSt16__insertion_sortIN9__gnu_cxx17__normal_iteratorIPPN7testing8TestInfoESt6vectorIS4_SaIS4_EEEENS0_5__ops15_Iter_comp_iterIZNS2_9TestSuite3RunEvEUlPKS3_SE_E_EEEvT_SH_T0_
FN:2022,2045,_ZSt13__upper_boundIN9__gnu_cxx17__normal_iteratorIPPN7testing8TestInfoESt6vectorIS4_SaIS4_EEEES4_NS0_5__ops14_Val_comp_iterIZNS2_9TestSuite3RunEvEUlPKS3_SE_E_EEET_SH_SH_RKT0_T1_
FN:2294,2314,_ZSt21__move_merge_adaptiveIPPN7testing8TestInfoEN9__gnu_cxx17__normal_iteratorIS3_St6vectorIS2_SaIS2_EEEES9_NS4_5__ops15_Iter_comp_iterIZNS0_9TestSuite3RunEvEUlPKS1_SE_E_EEEvT_SH_T0_SI_T1_T2_
FN:2320,2357,_ZSt30__move_merge_adaptive_backwardIN9__gnu_cxx17__normal_iteratorIPPN7testing8TestInfoESt6vectorIS4_SaIS4_EEEES5_S9_NS0_5__ops15_Iter_comp_iterIZNS2_9TestSuite3RunEvEUlPKS3_SE_E_EEEvT_SH_T0_SI_T1_T2_
FN:2363,2395,_ZSt17__rotate_adaptiveIN9__gnu_cxx17__normal_iteratorIPPN7testing8TestInfoESt6vectorIS4_SaIS4_EEEES5_lET_SA_SA_SA_T1_SB_T0_SB_
FN:2401,2419,_ZSt16__merge_adaptiveIN9__gnu_cxx17__normal_iteratorIPPN7testing8TestInfoESt6vectorIS4_SaIS4_EEEElS5_NS0_5__ops15_Iter_comp_iterIZNS2_9TestSuite3RunEvEUlPKS3_SE_E_EEEvT_SH_SH_T0_SI_T1_T2_
FN:2424,2471,_ZSt23__merge_adaptive_resizeIN9__gnu_cxx17__normal_iteratorIPPN7testing8TestInfoESt6vectorIS4_SaIS4_EEEElS5_NS0_5__ops15_Iter_comp_iterIZNS2_9TestSuite3RunEvEUlPKS3_SE_E_EEEvT_SH_SH_T0_SI_T1_SI_T2_
FN:2477,2522,_ZSt22__merge_without_bufferIN9__gnu_cxx17__normal_iteratorIPPN7testing8TestInfoESt6vectorIS4_SaIS4_EEEElNS0_5__ops15_Iter_comp_iterIZNS2_9TestSuite3RunEvEUlPKS3_SE_E_EEEvT_SH_SH_T0_SI_T1_
FN:2649,2670,_ZSt12__move_mergeIN9__gnu_cxx17__normal_iteratorIPPN7testing8TestInfoESt6vectorIS4_SaIS4_EEEES5_NS0_5__ops15_Iter_comp_iterIZNS2_9TestSuite3RunEvEUlPKS3_SE_E_EEET0_T_SI_SI_SI_SH_T1_
FN:2649,2670,_ZSt12__move_mergeIPPN7testing8TestInfoEN9__gnu_cxx17__normal_iteratorIS3_St6vectorIS2_SaIS2_EEEENS4_5__ops15_Iter_comp_iterIZNS0_9TestSuite3RunEvEUlPKS1_SE_E_EEET0_T_SI_SI_SI_SH_T1_
FN:2675,2694,_ZSt17__merge_sort_loopIN9__gnu_cxx17__normal_iteratorIPPN7testing8TestInfoESt6vectorIS4_SaIS4_EEEES5_lNS0_5__ops15_Iter_comp_iterIZNS2_9TestSuite3RunEvEUlPKS3_SE_E_EEEvT_SH_T0_T1_T2_
FN:2675,2694,_ZSt17__merge_sort_loopIPPN7testing8TestInfoEN9__gnu_cxx17__normal_iteratorIS3_St6vectorIS2_SaIS2_EEEElNS4_5__ops15_Iter_comp_iterIZNS0_9TestSuite3RunEvEUlPKS1_SE_E_EEEvT_SH_T0_T1_T2_
FN:2700,2710,_ZSt22__chunk_insertion_sortIN9__gnu_cxx17__normal_iteratorIPPN7testing8TestInfoESt6vectorIS4_SaIS4_EEEElNS0_5__ops15_Iter_comp_iterIZNS2_9TestSuite3RunEvEUlPKS3_SE_E_EEEvT_SH_T0_T1_
FN:2716,2738,_ZSt24__merge_sort_with_bufferIN9__gnu_cxx17__normal_iteratorIPPN7testing8TestInfoESt6vectorIS4_SaIS4_EEEES5_NS0_5__ops15_Iter_comp_iterIZNS2_9TestSuite3RunEvEUlPKS3_SE_E_EEEvT_SH_T0_T1_
FN:2742,2753,_ZSt22__stable_sort_adaptiveIN9__gnu_cxx17__normal_iteratorIPPN7testing8TestInfoESt6vectorIS4_SaIS4_EEEES5_NS0_5__ops15_Iter_comp_iterIZNS2_9TestSuite3RunEvEUlPKS3_SE_E_EEEvT_SH_SH_T0_T1_
FN:2758,2780,_ZSt29__stable_sort_adaptive_resizeIN9__gnu_cxx17__normal_iteratorIPPN7testing8TestInfoESt6vectorIS4_SaIS4_EEEES5_lNS0_5__ops15_Iter_comp_iterIZNS2_9TestSuite3RunEvEUlPKS3_SE_E_EEEvT_SH_T0_T1_T2_
FN:2785,2800,_ZSt21__inplace_stable_sortIN9__gnu_cxx17__normal_iteratorIPPN7testing8TestInfoESt6vectorIS4_SaIS4_EEEENS0_5__ops15_Iter_comp_iterIZNS2_9TestSuite3RunEvEUlPKS3_SE_E_EEEvT_SH_T0_
FN:3827,3835,_ZSt8for_eachIN9__gnu_cxx17__normal_iteratorIPKPN7testing11EnvironmentESt6vectorIS4_SaIS4_EEEEPFvS4_EET0_T_SE_SD_
FN:3827,3835,_ZSt8for_eachIN9__gnu_cxx17__normal_iteratorIPKPN7testing17TestEventListenerESt6vectorIS4_SaIS4_EEEEPFvS4_EET0_T_SE_SD_
FN:3827,3835,_ZSt8for_eachIN9__gnu_cxx17__normal_iteratorIPKPN7testing8TestInfoESt6vectorIS4_SaIS4_EEEEPFvS4_EET0_T_SE_SD_
FN:3827,3835,_ZSt8for_eachIN9__gnu_cxx17__normal_iteratorIPKPN7testing9TestSuiteESt6vectorIS4_SaIS4_EEEEPFvS4_EET0_T_SE_SD_
FN:3827,3835,_ZSt8for_eachISt16reverse_iteratorIN9__gnu_cxx17__normal_iteratorIPPN7testing11EnvironmentESt6vectorIS5_SaIS5_EEEEEPFvS5_EET0_T_SF_SE_
FN:3889,3899,_ZSt4findIN9__gnu_cxx17__normal_iteratorIPKNSt7__cxx1112basic_stringIcSt11char_traitsIcESaIcEEESt6vectorIS7_SaIS7_EEEES7_ET_SE_SE_RKT0_
FN:3914,3925,_ZSt7find_ifIN9__gnu_cxx17__normal_iteratorIPKNSt7__cxx1112basic_stringIcSt11char_traitsIcESaIcEEESt6vectorIS7_SaIS7_EEEEZNK7testing8internal12_GLOBAL__N_114UnitTestFilter11MatchesNameERS8_EUlSI_E_ET_SK_SK_T0_
FN:3914,3925,_ZSt7find_ifIN9__gnu_cxx17__normal_iteratorIPKcNSt7__cxx1112basic_stringIcSt11char_traitsIcESaIcEEEEEZN7testing8internal12_GLOBAL__N_113IsGlobPatternERKS9_EUlcE_ET_SH_SH_T0_
FN:3914,3925,_ZSt7find_ifIN9__gnu_cxx17__normal_iteratorIPN7testing12TestPropertyESt6vectorIS3_SaIS3_EEEENS2_8internal17TestPropertyKeyIsEET_SB_SB_T0_
FN:3914,3925,_ZSt7find_ifISt16reverse_iteratorIN9__gnu_cxx17__normal_iteratorIPPN7testing9TestSuiteESt6vectorIS5_SaIS5_EEEEENS3_8internal15TestSuiteNameIsEET_SE_SE_T0_
FN:4662,4674,_ZSt9partitionIN9__gnu_cxx17__normal_iteratorIPNSt7__cxx1112basic_stringIcSt11char_traitsIcESaIcEEESt6vectorIS7_SaIS7_EEEEPFbRKS7_EET_SH_SH_T0_
FN:476,477,_ZSt7none_ofIN9__gnu_cxx17__normal_iteratorIPKNSt7__cxx1112basic_stringIcSt11char_traitsIcESaIcEEESt6vectorIS7_SaIS7_EEEEZNK7testing8internal12_GLOBAL__N_114UnitTestFilter11MatchesNameERS8_EUlSI_E_EbT_SK_T0_
FN:476,477,_ZSt7none_ofIN9__gnu_cxx17__normal_iteratorIPKcNSt7__cxx1112basic_stringIcSt11char_traitsIcESaIcEEEEEZN7testing8internal12_GLOBAL__N_113IsGlobPatternERKS9_EUlcE_EbT_SH_T0_
FN:495,496,_ZSt6any_ofIN9__gnu_cxx17__normal_iteratorIPKNSt7__cxx1112basic_stringIcSt11char_traitsIcESaIcEEESt6vectorIS7_SaIS7_EEEEZNK7testing8internal12_GLOBAL__N_114UnitTestFilter11MatchesNameERS8_EUlSI_E_EbT_SK_T0_
FN:495,496,_ZSt6any_ofIN9__gnu_cxx17__normal_iteratorIPKcNSt7__cxx1112basic_stringIcSt11char_traitsIcESaIcEEEEEZN7testing8internal12_GLOBAL__N_113IsGlobPatternERKS9_EUlcE_EbT_SH_T0_
FN:5023,5052,_ZSt13__stable_sortIN9__gnu_cxx17__normal_iteratorIPPN7testing8TestInfoESt6vectorIS4_SaIS4_EEEENS0_5__ops15_Iter_comp_iterIZNS2_9TestSuite3RunEvEUlPKS3_SE_E_EEEvT_SH_T0_
FN:5107,5121,_ZSt11stable_sortIN9__gnu_cxx17__normal_iteratorIPPN7testing8TestInfoESt6vectorIS4_SaIS4_EEEEZNS2_9TestSuite3RunEvEUlPKS3_SC_E_EvT_SE_T0_
FNDA:0,_ZSt9__reverseIN9__gnu_cxx17__normal_iteratorIPN7testing8internal13edit_distance8EditTypeESt6vectorIS5_SaIS5_EEEEEvT_SB_St26random_access_iterator_tag
FNDA:0,_ZSt7reverseIN9__gnu_cxx17__normal_iteratorIPN7testing8internal13edit_distance8EditTypeESt6vectorIS5_SaIS5_EEEEEvT_SB_
FNDA:0,_ZNSt3_V28__rotateIN9__gnu_cxx17__normal_iteratorIPPN7testing8TestInfoESt6vectorIS5_SaIS5_EEEEEET_SB_SB_SB_St26random_access_iterator_tag
FNDA:0,_ZNSt3_V26rotateIN9__gnu_cxx17__normal_iteratorIPPN7testing8TestInfoESt6vectorIS5_SaIS5_EEEEEET_SB_SB_SB_
FNDA:3,_ZSt11__partitionIN9__gnu_cxx17__normal_iteratorIPNSt7__cxx1112basic_stringIcSt11char_traitsIcESaIcEEESt6vectorIS7_SaIS7_EEEEPFbRKS7_EET_SH_SH_T0_St26bidirectional_iterator_tag
FNDA:13,_ZSt25__unguarded_linear_insertIN9__gnu_cxx17__normal_iteratorIPPN7testing8TestInfoESt6vectorIS4_SaIS4_EEEENS0_5__ops14_Val_comp_iterIZNS2_9TestSuite3RunEvEUlPKS3_SE_E_EEEvT_T0_
FNDA:4,_ZSt16__insertion_sortIN9__gnu_cxx17__normal_iteratorIPPN7testing8TestInfoESt6vectorIS4_SaIS4_EEEENS0_5__ops15_Iter_comp_iterIZNS2_9TestSuite3RunEvEUlPKS3_SE_E_EEEvT_SH_T0_
FNDA:0,_ZSt13__upper_boundIN9__gnu_cxx17__normal_iteratorIPPN7testing8TestInfoESt6vectorIS4_SaIS4_EEEES4_NS0_5__ops14_Val_comp_iterIZNS2_9TestSuite3RunEvEUlPKS3_SE_E_EEET_SH_SH_RKT0_T1_
FNDA:0,_ZSt21__move_merge_adaptiveIPPN7testing8TestInfoEN9__gnu_cxx17__normal_iteratorIS3_St6vectorIS2_SaIS2_EEEES9_NS4_5__ops15_Iter_comp_iterIZNS0_9TestSuite3RunEvEUlPKS1_SE_E_EEEvT_SH_T0_SI_T1_T2_
FNDA:1,_ZSt30__move_merge_adaptive_backwardIN9__gnu_cxx17__normal_iteratorIPPN7testing8TestInfoESt6vectorIS4_SaIS4_EEEES5_S9_NS0_5__ops15_Iter_comp_iterIZNS2_9TestSuite3RunEvEUlPKS3_SE_E_EEEvT_SH_T0_SI_T1_T2_
FNDA:0,_ZSt17__rotate_adaptiveIN9__gnu_cxx17__normal_iteratorIPPN7testing8TestInfoESt6vectorIS4_SaIS4_EEEES5_lET_SA_SA_SA_T1_SB_T0_SB_
FNDA:1,_ZSt16__merge_adaptiveIN9__gnu_cxx17__normal_iteratorIPPN7testing8TestInfoESt6vectorIS4_SaIS4_EEEElS5_NS0_5__ops15_Iter_comp_iterIZNS2_9TestSuite3RunEvEUlPKS3_SE_E_EEEvT_SH_SH_T0_SI_T1_T2_
FNDA:0,_ZSt23__merge_adaptive_resizeIN9__gnu_cxx17__normal_iteratorIPPN7testing8TestInfoESt6vectorIS4_SaIS4_EEEElS5_NS0_5__ops15_Iter_comp_iterIZNS2_9TestSuite3RunEvEUlPKS3_SE_E_EEEvT_SH_SH_T0_SI_T1_SI_T2_
FNDA:0,_ZSt22__merge_without_bufferIN9__gnu_cxx17__normal_iteratorIPPN7testing8TestInfoESt6vectorIS4_SaIS4_EEEElNS0_5__ops15_Iter_comp_iterIZNS2_9TestSuite3RunEvEUlPKS3_SE_E_EEEvT_SH_SH_T0_SI_T1_
FNDA:2,_ZSt12__move_mergeIN9__gnu_cxx17__normal_iteratorIPPN7testing8TestInfoESt6vectorIS4_SaIS4_EEEES5_NS0_5__ops15_Iter_comp_iterIZNS2_9TestSuite3RunEvEUlPKS3_SE_E_EEET0_T_SI_SI_SI_SH_T1_
FNDA:2,_ZSt12__move_mergeIPPN7testing8TestInfoEN9__gnu_cxx17__normal_iteratorIS3_St6vectorIS2_SaIS2_EEEENS4_5__ops15_Iter_comp_iterIZNS0_9TestSuite3RunEvEUlPKS1_SE_E_EEET0_T_SI_SI_SI_SH_T1_
FNDA:2,_ZSt17__merge_sort_loopIN9__gnu_cxx17__normal_iteratorIPPN7testing8TestInfoESt6vectorIS4_SaIS4_EEEES5_lNS0_5__ops15_Iter_comp_iterIZNS2_9TestSuite3RunEvEUlPKS3_SE_E_EEEvT_SH_T0_T1_T2_
FNDA:2,_ZSt17__merge_sort_loopIPPN7testing8TestInfoEN9__gnu_cxx17__normal_iteratorIS3_St6vectorIS2_SaIS2_EEEElNS4_5__ops15_Iter_comp_iterIZNS0_9TestSuite3RunEvEUlPKS1_SE_E_EEEvT_SH_T0_T1_T2_
FNDA:2,_ZSt22__chunk_insertion_sortIN9__gnu_cxx17__normal_iteratorIPPN7testing8TestInfoESt6vectorIS4_SaIS4_EEEElNS0_5__ops15_Iter_comp_iterIZNS2_9TestSuite3RunEvEUlPKS3_SE_E_EEEvT_SH_T0_T1_
FNDA:2,_ZSt24__merge_sort_with_bufferIN9__gnu_cxx17__normal_iteratorIPPN7testing8TestInfoESt6vectorIS4_SaIS4_EEEES5_NS0_5__ops15_Iter_comp_iterIZNS2_9TestSuite3RunEvEUlPKS3_SE_E_EEEvT_SH_T0_T1_
FNDA:1,_ZSt22__stable_sort_adaptiveIN9__gnu_cxx17__normal_iteratorIPPN7testing8TestInfoESt6vectorIS4_SaIS4_EEEES5_NS0_5__ops15_Iter_comp_iterIZNS2_9TestSuite3RunEvEUlPKS3_SE_E_EEEvT_SH_SH_T0_T1_
FNDA:0,_ZSt29__stable_sort_adaptive_resizeIN9__gnu_cxx17__normal_iteratorIPPN7testing8TestInfoESt6vectorIS4_SaIS4_EEEES5_lNS0_5__ops15_Iter_comp_iterIZNS2_9TestSuite3RunEvEUlPKS3_SE_E_EEEvT_SH_T0_T1_T2_
FNDA:0,_ZSt21__inplace_stable_sortIN9__gnu_cxx17__normal_iteratorIPPN7testing8TestInfoESt6vectorIS4_SaIS4_EEEENS0_5__ops15_Iter_comp_iterIZNS2_9TestSuite3RunEvEUlPKS3_SE_E_EEEvT_SH_T0_
FNDA:2,_ZSt8for_eachIN9__gnu_cxx17__normal_iteratorIPKPN7testing11EnvironmentESt6vectorIS4_SaIS4_EEEEPFvS4_EET0_T_SE_SD_
FNDA:1,_ZSt8for_eachIN9__gnu_cxx17__normal_iteratorIPKPN7testing17TestEventListenerESt6vectorIS4_SaIS4_EEEEPFvS4_EET0_T_SE_SD_
FNDA:2,_ZSt8for_eachIN9__gnu_cxx17__normal_iteratorIPKPN7testing8TestInfoESt6vectorIS4_SaIS4_EEEEPFvS4_EET0_T_SE_SD_
FNDA:2,_ZSt8for_eachIN9__gnu_cxx17__normal_iteratorIPKPN7testing9TestSuiteESt6vectorIS4_SaIS4_EEEEPFvS4_EET0_T_SE_SD_
FNDA:1,_ZSt8for_eachISt16reverse_iteratorIN9__gnu_cxx17__normal_iteratorIPPN7testing11EnvironmentESt6vectorIS5_SaIS5_EEEEEPFvS5_EET0_T_SF_SE_
FNDA:0,_ZSt4findIN9__gnu_cxx17__normal_iteratorIPKNSt7__cxx1112basic_stringIcSt11char_traitsIcESaIcEEESt6vectorIS7_SaIS7_EEEES7_ET_SE_SE_RKT0_
FNDA:69,_ZSt7find_ifIN9__gnu_cxx17__normal_iteratorIPKNSt7__cxx1112basic_stringIcSt11char_traitsIcESaIcEEESt6vectorIS7_SaIS7_EEEEZNK7testing8internal12_GLOBAL__N_114UnitTestFilter11MatchesNameERS8_EUlSI_E_ET_SK_SK_T0_
FNDA:5,_ZSt7find_ifIN9__gnu_cxx17__normal_iteratorIPKcNSt7__cxx1112basic_stringIcSt11char_traitsIcESaIcEEEEEZN7testing8internal12_GLOBAL__N_113IsGlobPatternERKS9_EUlcE_ET_SH_SH_T0_
FNDA:0,_ZSt7find_ifIN9__gnu_cxx17__normal_iteratorIPN7testing12TestPropertyESt6vectorIS3_SaIS3_EEEENS2_8internal17TestPropertyKeyIsEET_SB_SB_T0_
FNDA:17,_ZSt7find_ifISt16reverse_iteratorIN9__gnu_cxx17__normal_iteratorIPPN7testing9TestSuiteESt6vectorIS5_SaIS5_EEEEENS3_8internal15TestSuiteNameIsEET_SE_SE_T0_
FNDA:3,_ZSt9partitionIN9__gnu_cxx17__normal_iteratorIPNSt7__cxx1112basic_stringIcSt11char_traitsIcESaIcEEESt6vectorIS7_SaIS7_EEEEPFbRKS7_EET_SH_SH_T0_
FNDA:69,_ZSt7none_ofIN9__gnu_cxx17__normal_iteratorIPKNSt7__cxx1112basic_stringIcSt11char_traitsIcESaIcEEESt6vectorIS7_SaIS7_EEEEZNK7testing8internal12_GLOBAL__N_114UnitTestFilter11MatchesNameERS8_EUlSI_E_EbT_SK_T0_
FNDA:5,_ZSt7none_ofIN9__gnu_cxx17__normal_iteratorIPKcNSt7__cxx1112basic_stringIcSt11char_traitsIcESaIcEEEEEZN7testing8internal12_GLOBAL__N_113IsGlobPatternERKS9_EUlcE_EbT_SH_T0_
FNDA:69,_ZSt6any_ofIN9__gnu_cxx17__normal_iteratorIPKNSt7__cxx1112basic_stringIcSt11char_traitsIcESaIcEEESt6vectorIS7_SaIS7_EEEEZNK7testing8internal12_GLOBAL__N_114UnitTestFilter11MatchesNameERS8_EUlSI_E_EbT_SK_T0_
FNDA:5,_ZSt6any_ofIN9__gnu_cxx17__normal_iteratorIPKcNSt7__cxx1112basic_stringIcSt11char_traitsIcESaIcEEEEEZN7testing8internal12_GLOBAL__N_113IsGlobPatternERKS9_EUlcE_EbT_SH_T0_
FNDA:1,_ZSt13__stable_sortIN9__gnu_cxx17__normal_iteratorIPPN7testing8TestInfoESt6vectorIS4_SaIS4_EEEENS0_5__ops15_Iter_comp_iterIZNS2_9TestSuite3RunEvEUlPKS3_SE_E_EEEvT_SH_T0_
FNDA:1,_ZSt11stable_sortIN9__gnu_cxx17__normal_iteratorIPPN7testing8TestInfoESt6vectorIS4_SaIS4_EEEEZNS2_9TestSuite3RunEvEUlPKS3_SC_E_EvT_SE_T0_
FNF:40
FNH:27
DA:476,74
DA:477,74
DA:495,74
DA:496,74
DA:1102,0
DA:1105,0
DA:1106,0
DA:1107,0
DA:1108,0
DA:1110,0
DA:1111,0
DA:1112,0
DA:1131,0
DA:1137,0
DA:1138,0
DA:1283,0
DA:1292,0
DA:1293,0
DA:1294,0
DA:1295,0
DA:1302,0
DA:1303,0
DA:1305,0
DA:1307,0
DA:1308,0
DA:1311,0
DA:1312,0
DA:1314,0
DA:1316,0
DA:1318,0
DA:1320,0
DA:1321,0
DA:1322,0
DA:1323,0
DA:1325,0
DA:1326,0
DA:1328,0
DA:1329,0
DA:1330,0
DA:1332,0
DA:1333,0
DA:1334,0
DA:1335,0
DA:1336,0
DA:1340,0
DA:1341,0
DA:1343,0
DA:1344,0
DA:1345,0
DA:1346,0
DA:1348,0
DA:1349,0
DA:1350,0
DA:1352,0
DA:1353,0
DA:1354,0
DA:1356,0
DA:1357,0
DA:1358,0
DA:1359,0
DA:1390,0
DA:1399,0
DA:1400,0
DA:1472,3
DA:1475,0
DA:1478,13
DA:1479,3
DA:1480,5
DA:1481,5
DA:1483,0
DA:1484,0
DA:1486,0
DA:1487,0
DA:1488,0
DA:1489,0
DA:1491,0
DA:1492,0
DA:1493,0
DA:1792,13
DA:1796,13
DA:1797,13
DA:1798,13
DA:1799,13
DA:1801,0
DA:1802,0
DA:1803,0
DA:1805,13
DA:1806,13
DA:1812,4
DA:1815,4
DA:1817,17
DA:1819,13
DA:1822,0
DA:1823,0
DA:1824,0
DA:1827,13
DA:2022,0
DA:2028,0
DA:2030,0
DA:2032,0
DA:2033,0
DA:2035,0
DA:2036,0
DA:2039,0
DA:2040,0
DA:2041,0
DA:2044,0
DA:2294,0
DA:2298,0
DA:2300,0
DA:2302,0
DA:2303,0
DA:2307,0
DA:2308,0
DA:2310,0
DA:2312,0
DA:2313,0
DA:2314,0
DA:2320,1
DA:2327,1
DA:2329,0
DA:2330,0
DA:2332,1
DA:2333,0
DA:2335,1
DA:2336,1
DA:2339,8
DA:2341,0
DA:2342,0
DA:2344,0
DA:2345,0
DA:2347,0
DA:2351,8
DA:2352,8
DA:2353,1
DA:2354,7
DA:2363,0
DA:2371,0
DA:2373,0
DA:2375,0
DA:2376,0
DA:2377,0
DA:2380,0
DA:2382,0
DA:2384,0
DA:2386,0
DA:2387,0
DA:2388,0
DA:2391,0
DA:2394,0
DA:2401,1
DA:2407,1
DA:2409,0
DA:2410,0
DA:2415,1
DA:2416,1
DA:2419,1
DA:2424,0
DA:2431,0
DA:2432,0
DA:2436,0
DA:2437,0
DA:2438,0
DA:2439,0
DA:2440,0
DA:2442,0
DA:2445,0
DA:2447,0
DA:2451,0
DA:2454,0
DA:2456,0
DA:2459,0
DA:2460,0
DA:2463,0
DA:2466,0
DA:2471,0
DA:2477,0
DA:2483,0
DA:2484,0
DA:2486,0
DA:2488,0
DA:2489,0
DA:2490,0
DA:2493,0
DA:2494,0
DA:2495,0
DA:2496,0
DA:2497,0
DA:2499,0
DA:2502,0
DA:2504,0
DA:2508,0
DA:2511,0
DA:2513,0
DA:2516,0
DA:2517,0
DA:2518,0
DA:2520,0
DA:2649,4
DA:2653,18
DA:2655,14
DA:2657,0
DA:2658,0
DA:2662,14
DA:2663,14
DA:2665,14
DA:2667,4
DA:2675,4
DA:2680,4
DA:2682,4
DA:2684,0
DA:2685,0
DA:2686,0
DA:2688,0
DA:2690,4
DA:2692,4
DA:2693,2
DA:2694,4
DA:2700,2
DA:2704,4
DA:2706,2
DA:2707,2
DA:2709,2
DA:2710,2
DA:2716,2
DA:2723,2
DA:2724,2
DA:2726,2
DA:2727,2
DA:2729,4
DA:2731,2
DA:2733,2
DA:2734,2
DA:2736,2
DA:2738,2
DA:2742,1
DA:2747,1
DA:2748,1
DA:2750,1
DA:2753,1
DA:2758,0
DA:2763,0
DA:2764,0
DA:2765,0
DA:2767,0
DA:2769,0
DA:2771,0
DA:2772,0
DA:2773,0
DA:2778,0
DA:2780,0
DA:2785,0
DA:2788,0
DA:2790,0
DA:2791,0
DA:2793,0
DA:2794,0
DA:2795,0
DA:2796,0
DA:3827,8
DA:3832,45
DA:3833,37
DA:3834,8
DA:3889,0
DA:3897,0
DA:3898,0
DA:3914,91
DA:3923,74
DA:3924,91
DA:4662,3
DA:4672,3
DA:4673,3
DA:5023,1
DA:5031,1
DA:5032,0
DA:5038,1
DA:5040,1
DA:5041,2
DA:5042,1
DA:5044,0
DA:5045,0
DA:5047,0
DA:5048,0
DA:5052,1
DA:5107,1
DA:5119,1
DA:5121,1
LF:287
LH:92
end_of_record
TN:
SF:/usr/include/c++/13/bits/stl_algobase.h
FN:1018,1018,_ZSt17__size_to_integerm
FN:1117,1130,_ZSt10__fill_n_aIPN7testing8internal13edit_distance8EditTypeEmS3_ET_S5_T0_RKT1_St26random_access_iterator_tag
FN:1117,1130,_ZSt10__fill_n_aIPdmdET_S1_T0_RKT1_St26random_access_iterator_tag
FN:1152,1159,_ZSt6fill_nIPN7testing8internal13edit_distance8EditTypeEmS3_ET_S5_T0_RKT1_
FN:1152,1159,_ZSt6fill_nIPdmdET_S1_T0_RKT1_
FN:1182,1187,_ZNSt7__equalILb1EE5equalIiEEbPKT_S4_S4_
FN:1213,1220,_ZSt12__equal_aux1IPKiS1_EbT_S2_T0_
FN:1225,1230,_ZSt11__equal_auxIN9__gnu_cxx17__normal_iteratorIPKiSt6vectorIiSaIiEEEES7_EbT_S8_T0_
FN:1459,1482,_ZSt13__lower_boundIN9__gnu_cxx17__normal_iteratorIPPN7testing8TestInfoESt6vectorIS4_SaIS4_EEEES4_NS0_5__ops14_Iter_comp_valIZNS2_9TestSuite3RunEvEUlPKS3_SE_E_EEET_SH_SH_RKT0_T1_
FN:1547,1558,_ZSt5equalIN9__gnu_cxx17__normal_iteratorIPKiSt6vectorIiSaIiEEEES7_EbT_S8_T0_
FN:155,187,_ZSt9iter_swapIN9__gnu_cxx17__normal_iteratorIPN7testing8internal13edit_distance8EditTypeESt6vectorIS5_SaIS5_EEEESA_EvT_T0_
FN:155,187,_ZSt9iter_swapIN9__gnu_cxx17__normal_iteratorIPNSt7__cxx1112basic_stringIcSt11char_traitsIcESaIcEEESt6vectorIS7_SaIS7_EEEESC_EvT_T0_
FN:155,187,_ZSt9iter_swapIN9__gnu_cxx17__normal_iteratorIPPN7testing8TestInfoESt6vectorIS4_SaIS4_EEEES9_EvT_T0_
FN:204,217,_ZSt11swap_rangesIN9__gnu_cxx17__normal_iteratorIPPN7testing8TestInfoESt6vectorIS4_SaIS4_EEEES9_ET0_T_SB_SA_
FN:2064,2110,_ZSt9__find_ifIN9__gnu_cxx17__normal_iteratorIPKNSt7__cxx1112basic_stringIcSt11char_traitsIcESaIcEEESt6vectorIS7_SaIS7_EEEENS0_5__ops10_Iter_predIZNK7testing8internal12_GLOBAL__N_114UnitTestFilter11MatchesNameERS8_EUlSK_E_EEET_SN_SN_T0_St26random_access_iterator_tag
FN:2064,2110,_ZSt9__find_ifIN9__gnu_cxx17__normal_iteratorIPKNSt7__cxx1112basic_stringIcSt11char_traitsIcESaIcEEESt6vectorIS7_SaIS7_EEEENS0_5__ops16_Iter_equals_valIS8_EEET_SH_SH_T0_St26random_access_iterator_tag
FN:2064,2110,_ZSt9__find_ifIN9__gnu_cxx17__normal_iteratorIPKcNSt7__cxx1112basic_stringIcSt11char_traitsIcESaIcEEEEENS0_5__ops10_Iter_predIZN7testing8internal12_GLOBAL__N_113IsGlobPatternERKS9_EUlcE_EEET_SK_SK_T0_St26random_access_iterator_tag
FN:2064,2110,_ZSt9__find_ifIN9__gnu_cxx17__normal_iteratorIPN7testing12TestPropertyESt6vectorIS3_SaIS3_EEEENS0_5__ops10_Iter_predINS2_8internal17TestPropertyKeyIsEEEET_SE_SE_T0_St26random_access_iterator_tag
FN:2064,2110,_ZSt9__find_ifISt16reverse_iteratorIN9__gnu_cxx17__normal_iteratorIPPN7testing9TestSuiteESt6vectorIS5_SaIS5_EEEEENS1_5__ops10_Iter_predINS3_8internal15TestSuiteNameIsEEEET_SH_SH_T0_St26random_access_iterator_tag
FN:2115,2119,_ZSt9__find_ifIN9__gnu_cxx17__normal_iteratorIPKNSt7__cxx1112basic_stringIcSt11char_traitsIcESaIcEEESt6vectorIS7_SaIS7_EEEENS0_5__ops10_Iter_predIZNK7testing8internal12_GLOBAL__N_114UnitTestFilter11MatchesNameERS8_EUlSK_E_EEET_SN_SN_T0_
FN:2115,2119,_ZSt9__find_ifIN9__gnu_cxx17__normal_iteratorIPKNSt7__cxx1112basic_stringIcSt11char_traitsIcESaIcEEESt6vectorIS7_SaIS7_EEEENS0_5__ops16_Iter_equals_valIS8_EEET_SH_SH_T0_
FN:2115,2119,_ZSt9__find_ifIN9__gnu_cxx17__normal_iteratorIPKcNSt7__cxx1112basic_stringIcSt11char_traitsIcESaIcEEEEENS0_5__ops10_Iter_predIZN7testing8internal12_GLOBAL__N_113IsGlobPatternERKS9_EUlcE_EEET_SK_SK_T0_
FN:2115,2119,_ZSt9__find_ifIN9__gnu_cxx17__normal_iteratorIPN7testing12TestPropertyESt6vectorIS3_SaIS3_EEEENS0_5__ops10_Iter_predINS2_8internal17TestPropertyKeyIsEEEET_SE_SE_T0_
FN:2115,2119,_ZSt9__find_ifISt16reverse_iteratorIN9__gnu_cxx17__normal_iteratorIPPN7testing9TestSuiteESt6vectorIS5_SaIS5_EEEEENS1_5__ops10_Iter_predINS3_8internal15TestSuiteNameIsEEEET_SH_SH_T0_
FN:233,241,_ZSt3minIdERKT_S2_S2_
FN:233,241,_ZSt3minIlERKT_S2_S2_
FN:233,241,_ZSt3minImERKT_S2_S2_
FN:257,265,_ZSt3maxImERKT_S2_S2_
FN:316,318,_ZSt12__niter_baseIPKiET_S2_
FN:316,318,_ZSt12__niter_baseIPN7testing12TestPropertyEET_S3_
FN:316,318,_ZSt12__niter_baseIPN7testing14TestPartResultEET_S3_
FN:316,318,_ZSt12__niter_baseIPN7testing8internal13edit_distance8EditTypeEET_S5_
FN:316,318,_ZSt12__niter_baseIPN7testing8internal9TraceInfoEET_S4_
FN:316,318,_ZSt12__niter_baseIPNSt7__cxx1112basic_stringIcSt11char_traitsIcESaIcEEEET_S7_
FN:316,318,_ZSt12__niter_baseIPPN7testing11EnvironmentEET_S4_
FN:316,318,_ZSt12__niter_baseIPPN7testing17TestEventListenerEET_S4_
FN:316,318,_ZSt12__niter_baseIPPN7testing8TestInfoEET_S4_
FN:316,318,_ZSt12__niter_baseIPPN7testing9TestSuiteEET_S4_
FN:316,318,_ZSt12__niter_baseIPdET_S1_
FN:316,318,_ZSt12__niter_baseIPiET_S1_
FN:316,318,_ZSt12__niter_baseIPmET_S1_
FN:316,318,_ZSt12__niter_baseISt15insert_iteratorISt13unordered_setINSt7__cxx1112basic_stringIcSt11char_traitsIcESaIcEEESt4hashIS7_ESt8equal_toIS7_ESaIS7_EEEET_SF_
FN:316,318,_ZSt12__niter_baseISt15insert_iteratorISt6vectorINSt7__cxx1112basic_stringIcSt11char_traitsIcESaIcEEESaIS7_EEEET_SB_
FN:331,332,_ZSt12__niter_wrapIN9__gnu_cxx17__normal_iteratorIPPN7testing17TestEventListenerESt6vectorIS4_SaIS4_EEEES5_ET_SA_T0_
FN:331,332,_ZSt12__niter_wrapIN9__gnu_cxx17__normal_iteratorIPPN7testing8TestInfoESt6vectorIS4_SaIS4_EEEES5_ET_SA_T0_
FN:338,339,_ZSt12__niter_wrapIPN7testing8internal13edit_distance8EditTypeEET_RKS5_S5_
FN:338,339,_ZSt12__niter_wrapIPNSt7__cxx1112basic_stringIcSt11char_traitsIcESaIcEEEET_RKS7_S7_
FN:338,339,_ZSt12__niter_wrapIPPN7testing8TestInfoEET_RKS4_S4_
FN:338,339,_ZSt12__niter_wrapIPPN7testing9TestSuiteEET_RKS4_S4_
FN:338,339,_ZSt12__niter_wrapIPdET_RKS1_S1_
FN:338,339,_ZSt12__niter_wrapIPiET_RKS1_S1_
FN:338,339,_ZSt12__niter_wrapISt15insert_iteratorISt13unordered_setINSt7__cxx1112basic_stringIcSt11char_traitsIcESaIcEEESt4hashIS7_ESt8equal_toIS7_ESaIS7_EEEET_RKSF_SF_
FN:338,339,_ZSt12__niter_wrapISt15insert_iteratorISt6vectorINSt7__cxx1112basic_stringIcSt11char_traitsIcESaIcEEESaIS7_EEEET_RKSB_SB_
FN:383,393,_ZNSt11__copy_moveILb0ELb0ESt26random_access_iterator_tagE8__copy_mIPKN7testing8internal13edit_distance8EditTypeEPS6_EET0_T_SB_SA_
FN:383,393,_ZNSt11__copy_moveILb0ELb0ESt26random_access_iterator_tagE8__copy_mIPKdPdEET0_T_S7_S6_
FN:383,393,_ZNSt11__copy_moveILb0ELb0ESt26random_access_iterator_tagE8__copy_mIPKiPiEET0_T_S7_S6_
FN:397,398,_ZNSt11__copy_moveILb0ELb0ESt26random_access_iterator_tagE12__assign_oneIN7testing8internal13edit_distance8EditTypeEKS6_EEvPT_PT0_
FN:397,398,_ZNSt11__copy_moveILb0ELb0ESt26random_access_iterator_tagE12__assign_oneIdKdEEvPT_PT0_
FN:397,398,_ZNSt11__copy_moveILb0ELb0ESt26random_access_iterator_tagE12__assign_oneIiKiEEvPT_PT0_
FN:408,418,_ZNSt11__copy_moveILb1ELb0ESt26random_access_iterator_tagE8__copy_mIPNSt7__cxx1112basic_stringIcSt11char_traitsIcESaIcEEESt15insert_iteratorISt13unordered_setIS8_St4hashIS8_ESt8equal_toIS8_ESaIS8_EEEEET0_T_SK_SJ_
FN:408,418,_ZNSt11__copy_moveILb1ELb0ESt26random_access_iterator_tagE8__copy_mIPNSt7__cxx1112basic_stringIcSt11char_traitsIcESaIcEEESt15insert_iteratorISt6vectorIS8_SaIS8_EEEEET0_T_SG_SF_
FN:408,418,_ZNSt11__copy_moveILb1ELb0ESt26random_access_iterator_tagE8__copy_mIPPN7testing17TestEventListenerES6_EET0_T_S8_S7_
FN:408,418,_ZNSt11__copy_moveILb1ELb0ESt26random_access_iterator_tagE8__copy_mIPPN7testing8TestInfoES6_EET0_T_S8_S7_
FN:422,423,_ZNSt11__copy_moveILb1ELb0ESt26random_access_iterator_tagE12__assign_oneIPN7testing17TestEventListenerES5_EEvPT_PT0_
FN:422,423,_ZNSt11__copy_moveILb1ELb0ESt26random_access_iterator_tagE12__assign_oneIPN7testing8TestInfoES5_EEvPT_PT0_
FN:422,423,_ZNSt11__copy_moveILb1ELb0ESt26random_access_iterator_tagE12__assign_oneIPN7testing9TestSuiteES5_EEvPT_PT0_
FN:433,442,_ZNSt11__copy_moveILb0ELb1ESt26random_access_iterator_tagE8__copy_mIKN7testing8internal13edit_distance8EditTypeES6_EEPT0_PT_SB_S9_
FN:433,442,_ZNSt11__copy_moveILb0ELb1ESt26random_access_iterator_tagE8__copy_mIKddEEPT0_PT_S7_S5_
FN:433,442,_ZNSt11__copy_moveILb0ELb1ESt26random_access_iterator_tagE8__copy_mIKiiEEPT0_PT_S7_S5_
FN:433,442,_ZNSt11__copy_moveILb1ELb1ESt26random_access_iterator_tagE8__copy_mIPN7testing17TestEventListenerES5_EEPT0_PT_S9_S7_
FN:433,442,_ZNSt11__copy_moveILb1ELb1ESt26random_access_iterator_tagE8__copy_mIPN7testing8TestInfoES5_EEPT0_PT_S9_S7_
FN:497,507,_ZSt14__copy_move_a2ILb0EPKN7testing8internal13edit_distance8EditTypeEPS3_ET1_T0_S8_S7_
FN:497,507,_ZSt14__copy_move_a2ILb0EPKdPdET1_T0_S4_S3_
FN:497,507,_ZSt14__copy_move_a2ILb0EPKiPiET1_T0_S4_S3_
FN:497,507,_ZSt14__copy_move_a2ILb1EPNSt7__cxx1112basic_stringIcSt11char_traitsIcESaIcEEESt15insert_iteratorISt13unordered_setIS5_St4hashIS5_ESt8equal_toIS5_ESaIS5_EEEET1_T0_SH_SG_
FN:497,507,_ZSt14__copy_move_a2ILb1EPNSt7__cxx1112basic_stringIcSt11char_traitsIcESaIcEEESt15insert_iteratorISt6vectorIS5_SaIS5_EEEET1_T0_SD_SC_
FN:497,507,_ZSt14__copy_move_a2ILb1EPPN7testing17TestEventListenerES3_ET1_T0_S5_S4_
FN:497,507,_ZSt14__copy_move_a2ILb1EPPN7testing8TestInfoES3_ET1_T0_S5_S4_
FN:532,533,_ZSt14__copy_move_a1ILb0EPKN7testing8internal13edit_distance8EditTypeEPS3_ET1_T0_S8_S7_
FN:532,533,_ZSt14__copy_move_a1ILb0EPKdPdET1_T0_S4_S3_
FN:532,533,_ZSt14__copy_move_a1ILb0EPKiPiET1_T0_S4_S3_
FN:532,533,_ZSt14__copy_move_a1ILb1EPNSt7__cxx1112basic_stringIcSt11char_traitsIcESaIcEEESt15insert_iteratorISt13unordered_setIS5_St4hashIS5_ESt8equal_toIS5_ESaIS5_EEEET1_T0_SH_SG_
FN:532,533,_ZSt14__copy_move_a1ILb1EPNSt7__cxx1112basic_stringIcSt11char_traitsIcESaIcEEESt15insert_iteratorISt6vectorIS5_SaIS5_EEEET1_T0_SD_SC_
FN:532,533,_ZSt14__copy_move_a1ILb1EPPN7testing17TestEventListenerES3_ET1_T0_S5_S4_
FN:532,533,_ZSt14__copy_move_a1ILb1EPPN7testing8TestInfoES3_ET1_T0_S5_S4_
FN:538,544,_ZSt13__copy_move_aILb0EN9__gnu_cxx17__normal_iteratorIPKN7testing8internal13edit_distance8EditTypeESt6vectorIS5_SaIS5_EEEEPS5_ET1_T0_SE_SD_
FN:538,544,_ZSt13__copy_move_aILb0EN9__gnu_cxx17__normal_iteratorIPKdSt6vectorIdSaIdEEEEPdET1_T0_SA_S9_
FN:538,544,_ZSt13__copy_move_aILb0EPKiPiET1_T0_S4_S3_
FN:538,544,_ZSt13__copy_move_aILb1EN9__gnu_cxx17__normal_iteratorIPNSt7__cxx1112basic_stringIcSt11char_traitsIcESaIcEEESt6vectorIS7_SaIS7_EEEESt15insert_iteratorISB_EET1_T0_SG_SF_
FN:538,544,_ZSt13__copy_move_aILb1EN9__gnu_cxx17__normal_iteratorIPNSt7__cxx1112basic_stringIcSt11char_traitsIcESaIcEEESt6vectorIS7_SaIS7_EEEESt15insert_iteratorISt13unordered_setIS7_St4hashIS7_ESt8equal_toIS7_ESA_EEET1_T0_SM_SL_
FN:538,544,_ZSt13__copy_move_aILb1EN9__gnu_cxx17__normal_iteratorIPPN7testing17TestEventListenerESt6vectorIS4_SaIS4_EEEES9_ET1_T0_SB_SA_
FN:538,544,_ZSt13__copy_move_aILb1EN9__gnu_cxx17__normal_iteratorIPPN7testing8TestInfoESt6vectorIS4_SaIS4_EEEES5_ET1_T0_SB_SA_
FN:538,544,_ZSt13__copy_move_aILb1EN9__gnu_cxx17__normal_iteratorIPPN7testing8TestInfoESt6vectorIS4_SaIS4_EEEES9_ET1_T0_SB_SA_
FN:538,544,_ZSt13__copy_move_aILb1EPPN7testing8TestInfoEN9__gnu_cxx17__normal_iteratorIS3_St6vectorIS2_SaIS2_EEEEET1_T0_SB_SA_
FN:624,634,_ZSt4copyIN9__gnu_cxx17__normal_iteratorIPKN7testing8internal13edit_distance8EditTypeESt6vectorIS5_SaIS5_EEEEPS5_ET0_T_SE_SD_
FN:624,634,_ZSt4copyIN9__gnu_cxx17__normal_iteratorIPKdSt6vectorIdSaIdEEEEPdET0_T_SA_S9_
FN:624,634,_ZSt4copyIPKiPiET0_T_S4_S3_
FN:657,667,_ZSt4moveIN9__gnu_cxx17__normal_iteratorIPNSt7__cxx1112basic_stringIcSt11char_traitsIcESaIcEEESt6vectorIS7_SaIS7_EEEESt15insert_iteratorISB_EET0_T_SG_SF_
FN:657,667,_ZSt4moveIN9__gnu_cxx17__normal_iteratorIPNSt7__cxx1112basic_stringIcSt11char_traitsIcESaIcEEESt6vectorIS7_SaIS7_EEEESt15insert_iteratorISt13unordered_setIS7_St4hashIS7_ESt8equal_toIS7_ESA_EEET0_T_SM_SL_
FN:657,667,_ZSt4moveIN9__gnu_cxx17__normal_iteratorIPPN7testing17TestEventListenerESt6vectorIS4_SaIS4_EEEES9_ET0_T_SB_SA_
FN:657,667,_ZSt4moveIN9__gnu_cxx17__normal_iteratorIPPN7testing8TestInfoESt6vectorIS4_SaIS4_EEEES5_ET0_T_SB_SA_
FN:657,667,_ZSt4moveIN9__gnu_cxx17__normal_iteratorIPPN7testing8TestInfoESt6vectorIS4_SaIS4_EEEES9_ET0_T_SB_SA_
FN:657,667,_ZSt4moveIPPN7testing8TestInfoEN9__gnu_cxx17__normal_iteratorIS3_St6vectorIS2_SaIS2_EEEEET0_T_SB_SA_
FN:727,734,_ZNSt20__copy_move_backwardILb1ELb0ESt26random_access_iterator_tagE13__copy_move_bIPNSt7__cxx1112basic_stringIcSt11char_traitsIcESaIcEEES9_EET0_T_SB_SA_
FN:727,734,_ZNSt20__copy_move_backwardILb1ELb0ESt26random_access_iterator_tagE13__copy_move_bIPPN7testing8TestInfoES6_EET0_T_S8_S7_
FN:727,734,_ZNSt20__copy_move_backwardILb1ELb0ESt26random_access_iterator_tagE13__copy_move_bIPPN7testing9TestSuiteES6_EET0_T_S8_S7_
FN:744,753,_ZNSt20__copy_move_backwardILb1ELb1ESt26random_access_iterator_tagE13__copy_move_bIPN7testing8TestInfoES5_EEPT0_PT_S9_S7_
FN:744,753,_ZNSt20__copy_move_backwardILb1ELb1ESt26random_access_iterator_tagE13__copy_move_bIPN7testing9TestSuiteES5_EEPT0_PT_S9_S7_
FN:759,772,_ZSt23__copy_move_backward_a2ILb1EPNSt7__cxx1112basic_stringIcSt11char_traitsIcESaIcEEES6_ET1_T0_S8_S7_
FN:759,772,_ZSt23__copy_move_backward_a2ILb1EPPN7testing8TestInfoES3_ET1_T0_S5_S4_
FN:759,772,_ZSt23__copy_move_backward_a2ILb1EPPN7testing9TestSuiteES3_ET1_T0_S5_S4_
FN:777,778,_ZSt23__copy_move_backward_a1ILb1EPNSt7__cxx1112basic_stringIcSt11char_traitsIcESaIcEEES6_ET1_T0_S8_S7_
FN:777,778,_ZSt23__copy_move_backward_a1ILb1EPPN7testing8TestInfoES3_ET1_T0_S5_S4_
FN:777,778,_ZSt23__copy_move_backward_a1ILb1EPPN7testing9TestSuiteES3_ET1_T0_S5_S4_
FN:805,811,_ZSt22__copy_move_backward_aILb1EN9__gnu_cxx17__normal_iteratorIPPN7testing8TestInfoESt6vectorIS4_SaIS4_EEEES9_ET1_T0_SB_SA_
FN:805,811,_ZSt22__copy_move_backward_aILb1EPNSt7__cxx1112basic_stringIcSt11char_traitsIcESaIcEEES6_ET1_T0_S8_S7_
FN:805,811,_ZSt22__copy_move_backward_aILb1EPPN7testing8TestInfoEN9__gnu_cxx17__normal_iteratorIS3_St6vectorIS2_SaIS2_EEEEET1_T0_SB_SA_
FN:805,811,_ZSt22__copy_move_backward_aILb1EPPN7testing9TestSuiteES3_ET1_T0_S5_S4_
FN:892,904,_ZSt13move_backwardIN9__gnu_cxx17__normal_iteratorIPPN7testing8TestInfoESt6vectorIS4_SaIS4_EEEES9_ET0_T_SB_SA_
FN:892,904,_ZSt13move_backwardIPNSt7__cxx1112basic_stringIcSt11char_traitsIcESaIcEEES6_ET0_T_S8_S7_
FN:892,904,_ZSt13move_backwardIPPN7testing8TestInfoEN9__gnu_cxx17__normal_iteratorIS3_St6vectorIS2_SaIS2_EEEEET0_T_SB_SA_
FN:892,904,_ZSt13move_backwardIPPN7testing9TestSuiteES3_ET0_T_S5_S4_
FN:915,920,_ZSt9__fill_a1IPN7testing8internal13edit_distance8EditTypeES3_EN9__gnu_cxx11__enable_ifIXntsrSt11__is_scalarIT0_E7__valueEvE6__typeET_SC_RKS8_
FN:926,932,_ZSt9__fill_a1IPddEN9__gnu_cxx11__enable_ifIXsrSt11__is_scalarIT0_E7__valueEvE6__typeET_S8_RKS4_
FN:93,109,_ZSt8__memcmpIiiEiPKT_PKT0_m
FN:976,977,_ZSt8__fill_aIPN7testing8internal13edit_distance8EditTypeES3_EvT_S5_RKT0_
FN:976,977,_ZSt8__fill_aIPddEvT_S1_RKT0_
FNDA:0,_ZSt17__size_to_integerm
FNDA:0,_ZSt10__fill_n_aIPN7testing8internal13edit_distance8EditTypeEmS3_ET_S5_T0_RKT1_St26random_access_iterator_tag
FNDA:0,_ZSt10__fill_n_aIPdmdET_S1_T0_RKT1_St26random_access_iterator_tag
FNDA:0,_ZSt6fill_nIPN7testing8internal13edit_distance8EditTypeEmS3_ET_S5_T0_RKT1_
FNDA:0,_ZSt6fill_nIPdmdET_S1_T0_RKT1_
FNDA:1,_ZNSt7__equalILb1EE5equalIiEEbPKT_S4_S4_
FNDA:1,_ZSt12__equal_aux1IPKiS1_EbT_S2_T0_
FNDA:1,_ZSt11__equal_auxIN9__gnu_cxx17__normal_iteratorIPKiSt6vectorIiSaIiEEEES7_EbT_S8_T0_
FNDA:0,_ZSt13__lower_boundIN9__gnu_cxx17__normal_iteratorIPPN7testing8TestInfoESt6vectorIS4_SaIS4_EEEES4_NS0_5__ops14_Iter_comp_valIZNS2_9TestSuite3RunEvEUlPKS3_SE_E_EEET_SH_SH_RKT0_T1_
FNDA:1,_ZSt5equalIN9__gnu_cxx17__normal_iteratorIPKiSt6vectorIiSaIiEEEES7_EbT_S8_T0_
FNDA:0,_ZSt9iter_swapIN9__gnu_cxx17__normal_iteratorIPN7testing8internal13edit_distance8EditTypeESt6vectorIS5_SaIS5_EEEESA_EvT_T0_
FNDA:0,_ZSt9iter_swapIN9__gnu_cxx17__normal_iteratorIPNSt7__cxx1112basic_stringIcSt11char_traitsIcESaIcEEESt6vectorIS7_SaIS7_EEEESC_EvT_T0_
FNDA:0,_ZSt9iter_swapIN9__gnu_cxx17__normal_iteratorIPPN7testing8TestInfoESt6vectorIS4_SaIS4_EEEES9_EvT_T0_
FNDA:0,_ZSt11swap_rangesIN9__gnu_cxx17__normal_iteratorIPPN7testing8TestInfoESt6vectorIS4_SaIS4_EEEES9_ET0_T_SB_SA_
FNDA:69,_ZSt9__find_ifIN9__gnu_cxx17__normal_iteratorIPKNSt7__cxx1112basic_stringIcSt11char_traitsIcESaIcEEESt6vectorIS7_SaIS7_EEEENS0_5__ops10_Iter_predIZNK7testing8internal12_GLOBAL__N_114UnitTestFilter11MatchesNameERS8_EUlSK_E_EEET_SN_SN_T0_St26random_access_iterator_tag
FNDA:0,_ZSt9__find_ifIN9__gnu_cxx17__normal_iteratorIPKNSt7__cxx1112basic_stringIcSt11char_traitsIcESaIcEEESt6vectorIS7_SaIS7_EEEENS0_5__ops16_Iter_equals_valIS8_EEET_SH_SH_T0_St26random_access_iterator_tag
FNDA:5,_ZSt9__find_ifIN9__gnu_cxx17__normal_iteratorIPKcNSt7__cxx1112basic_stringIcSt11char_traitsIcESaIcEEEEENS0_5__ops10_Iter_predIZN7testing8internal12_GLOBAL__N_113IsGlobPatternERKS9_EUlcE_EEET_SK_SK_T0_St26random_access_iterator_tag
FNDA:0,_ZSt9__find_ifIN9__gnu_cxx17__normal_iteratorIPN7testing12TestPropertyESt6vectorIS3_SaIS3_EEEENS0_5__ops10_Iter_predINS2_8internal17TestPropertyKeyIsEEEET_SE_SE_T0_St26random_access_iterator_tag
FNDA:17,_ZSt9__find_ifISt16reverse_iteratorIN9__gnu_cxx17__normal_iteratorIPPN7testing9TestSuiteESt6vectorIS5_SaIS5_EEEEENS1_5__ops10_Iter_predINS3_8internal15TestSuiteNameIsEEEET_SH_SH_T0_St26random_access_iterator_tag
FNDA:69,_ZSt9__find_ifIN9__gnu_cxx17__normal_iteratorIPKNSt7__cxx1112basic_stringIcSt11char_traitsIcESaIcEEESt6vectorIS7_SaIS7_EEEENS0_5__ops10_Iter_predIZNK7testing8internal12_GLOBAL__N_114UnitTestFilter11MatchesNameERS8_EUlSK_E_EEET_SN_SN_T0_
FNDA:0,_ZSt9__find_ifIN9__gnu_cxx17__normal_iteratorIPKNSt7__cxx1112basic_stringIcSt11char_traitsIcESaIcEEESt6vectorIS7_SaIS7_EEEENS0_5__ops16_Iter_equals_valIS8_EEET_SH_SH_T0_
FNDA:5,_ZSt9__find_ifIN9__gnu_cxx17__normal_iteratorIPKcNSt7__cxx1112basic_stringIcSt11char_traitsIcESaIcEEEEENS0_5__ops10_Iter_predIZN7testing8internal12_GLOBAL__N_113IsGlobPatternERKS9_EUlcE_EEET_SK_SK_T0_
FNDA:0,_ZSt9__find_ifIN9__gnu_cxx17__normal_iteratorIPN7testing12TestPropertyESt6vectorIS3_SaIS3_EEEENS0_5__ops10_Iter_predINS2_8internal17TestPropertyKeyIsEEEET_SE_SE_T0_
FNDA:17,_ZSt9__find_ifISt16reverse_iteratorIN9__gnu_cxx17__normal_iteratorIPPN7testing9TestSuiteESt6vectorIS5_SaIS5_EEEEENS1_5__ops10_Iter_predINS3_8internal15TestSuiteNameIsEEEET_SH_SH_T0_
FNDA:0,_ZSt3minIdERKT_S2_S2_
FNDA:4,_ZSt3minIlERKT_S2_S2_
FNDA:54,_ZSt3minImERKT_S2_S2_
FNDA:25,_ZSt3maxImERKT_S2_S2_
FNDA:2,_ZSt12__niter_baseIPKiET_S2_
FNDA:0,_ZSt12__niter_baseIPN7testing12TestPropertyEET_S3_
FNDA:0,_ZSt12__niter_baseIPN7testing14TestPartResultEET_S3_
FNDA:0,_ZSt12__niter_baseIPN7testing8internal13edit_distance8EditTypeEET_S5_
FNDA:0,_ZSt12__niter_baseIPN7testing8internal9TraceInfoEET_S4_
FNDA:51,_ZSt12__niter_baseIPNSt7__cxx1112basic_stringIcSt11char_traitsIcESaIcEEEET_S7_
FNDA:0,_ZSt12__niter_baseIPPN7testing11EnvironmentEET_S4_
FNDA:6,_ZSt12__niter_baseIPPN7testing17TestEventListenerEET_S4_
FNDA:49,_ZSt12__niter_baseIPPN7testing8TestInfoEET_S4_
FNDA:6,_ZSt12__niter_baseIPPN7testing9TestSuiteEET_S4_
FNDA:0,_ZSt12__niter_baseIPdET_S1_
FNDA:61,_ZSt12__niter_baseIPiET_S1_
FNDA:0,_ZSt12__niter_baseIPmET_S1_
FNDA:3,_ZSt12__niter_baseISt15insert_iteratorISt13unordered_setINSt7__cxx1112basic_stringIcSt11char_traitsIcESaIcEEESt4hashIS7_ESt8equal_toIS7_ESaIS7_EEEET_SF_
FNDA:3,_ZSt12__niter_baseISt15insert_iteratorISt6vectorINSt7__cxx1112basic_stringIcSt11char_traitsIcESaIcEEESaIS7_EEEET_SB_
FNDA:0,_ZSt12__niter_wrapIN9__gnu_cxx17__normal_iteratorIPPN7testing17TestEventListenerESt6vectorIS4_SaIS4_EEEES5_ET_SA_T0_
FNDA:4,_ZSt12__niter_wrapIN9__gnu_cxx17__normal_iteratorIPPN7testing8TestInfoESt6vectorIS4_SaIS4_EEEES5_ET_SA_T0_
FNDA:0,_ZSt12__niter_wrapIPN7testing8internal13edit_distance8EditTypeEET_RKS5_S5_
FNDA:0,_ZSt12__niter_wrapIPNSt7__cxx1112basic_stringIcSt11char_traitsIcESaIcEEEET_RKS7_S7_
FNDA:5,_ZSt12__niter_wrapIPPN7testing8TestInfoEET_RKS4_S4_
FNDA:0,_ZSt12__niter_wrapIPPN7testing9TestSuiteEET_RKS4_S4_
FNDA:0,_ZSt12__niter_wrapIPdET_RKS1_S1_
FNDA:1,_ZSt12__niter_wrapIPiET_RKS1_S1_
FNDA:3,_ZSt12__niter_wrapISt15insert_iteratorISt13unordered_setINSt7__cxx1112basic_stringIcSt11char_traitsIcESaIcEEESt4hashIS7_ESt8equal_toIS7_ESaIS7_EEEET_RKSF_SF_
FNDA:3,_ZSt12__niter_wrapISt15insert_iteratorISt6vectorINSt7__cxx1112basic_stringIcSt11char_traitsIcESaIcEEESaIS7_EEEET_RKSB_SB_
FNDA:0,_ZNSt11__copy_moveILb0ELb0ESt26random_access_iterator_tagE8__copy_mIPKN7testing8internal13edit_distance8EditTypeEPS6_EET0_T_SB_SA_
FNDA:0,_ZNSt11__copy_moveILb0ELb0ESt26random_access_iterator_tagE8__copy_mIPKdPdEET0_T_S7_S6_
FNDA:0,_ZNSt11__copy_moveILb0ELb0ESt26random_access_iterator_tagE8__copy_mIPKiPiEET0_T_S7_S6_
FNDA:0,_ZNSt11__copy_moveILb0ELb0ESt26random_access_iterator_tagE12__assign_oneIN7testing8internal13edit_distance8EditTypeEKS6_EEvPT_PT0_
FNDA:0,_ZNSt11__copy_moveILb0ELb0ESt26random_access_iterator_tagE12__assign_oneIdKdEEvPT_PT0_
FNDA:0,_ZNSt11__copy_moveILb0ELb0ESt26random_access_iterator_tagE12__assign_oneIiKiEEvPT_PT0_
FNDA:3,_ZNSt11__copy_moveILb1ELb0ESt26random_access_iterator_tagE8__copy_mIPNSt7__cxx1112basic_stringIcSt11char_traitsIcESaIcEEESt15insert_iteratorISt13unordered_setIS8_St4hashIS8_ESt8equal_toIS8_ESaIS8_EEEEET0_T_SK_SJ_
FNDA:3,_ZNSt11__copy_moveILb1ELb0ESt26random_access_iterator_tagE8__copy_mIPNSt7__cxx1112basic_stringIcSt11char_traitsIcESaIcEEESt15insert_iteratorISt6vectorIS8_SaIS8_EEEEET0_T_SG_SF_
FNDA:0,_ZNSt11__copy_moveILb1ELb0ESt26random_access_iterator_tagE8__copy_mIPPN7testing17TestEventListenerES6_EET0_T_S8_S7_
FNDA:0,_ZNSt11__copy_moveILb1ELb0ESt26random_access_iterator_tagE8__copy_mIPPN7testing8TestInfoES6_EET0_T_S8_S7_
FNDA:0,_ZNSt11__copy_moveILb1ELb0ESt26random_access_iterator_tagE12__assign_oneIPN7testing17TestEventListenerES5_EEvPT_PT0_
FNDA:1,_ZNSt11__copy_moveILb1ELb0ESt26random_access_iterator_tagE12__assign_oneIPN7testing8TestInfoES5_EEvPT_PT0_
FNDA:0,_ZNSt11__copy_moveILb1ELb0ESt26random_access_iterator_tagE12__assign_oneIPN7testing9TestSuiteES5_EEvPT_PT0_
FNDA:0,_ZNSt11__copy_moveILb0ELb1ESt26random_access_iterator_tagE8__copy_mIKN7testing8internal13edit_distance8EditTypeES6_EEPT0_PT_SB_S9_
FNDA:0,_ZNSt11__copy_moveILb0ELb1ESt26random_access_iterator_tagE8__copy_mIKddEEPT0_PT_S7_S5_
FNDA:1,_ZNSt11__copy_moveILb0ELb1ESt26random_access_iterator_tagE8__copy_mIKiiEEPT0_PT_S7_S5_
FNDA:0,_ZNSt11__copy_moveILb1ELb1ESt26random_access_iterator_tagE8__copy_mIPN7testing17TestEventListenerES5_EEPT0_PT_S9_S7_
FNDA:9,_ZNSt11__copy_moveILb1ELb1ESt26random_access_iterator_tagE8__copy_mIPN7testing8TestInfoES5_EEPT0_PT_S9_S7_
FNDA:0,_ZSt14__copy_move_a2ILb0EPKN7testing8internal13edit_distance8EditTypeEPS3_ET1_T0_S8_S7_
FNDA:0,_ZSt14__copy_move_a2ILb0EPKdPdET1_T0_S4_S3_
FNDA:1,_ZSt14__copy_move_a2ILb0EPKiPiET1_T0_S4_S3_
FNDA:3,_ZSt14__copy_move_a2ILb1EPNSt7__cxx1112basic_stringIcSt11char_traitsIcESaIcEEESt15insert_iteratorISt13unordered_setIS5_St4hashIS5_ESt8equal_toIS5_ESaIS5_EEEET1_T0_SH_SG_
FNDA:3,_ZSt14__copy_move_a2ILb1EPNSt7__cxx1112basic_stringIcSt11char_traitsIcESaIcEEESt15insert_iteratorISt6vectorIS5_SaIS5_EEEET1_T0_SD_SC_
FNDA:0,_ZSt14__copy_move_a2ILb1EPPN7testing17TestEventListenerES3_ET1_T0_S5_S4_
FNDA:9,_ZSt14__copy_move_a2ILb1EPPN7testing8TestInfoES3_ET1_T0_S5_S4_
FNDA:0,_ZSt14__copy_move_a1ILb0EPKN7testing8internal13edit_distance8EditTypeEPS3_ET1_T0_S8_S7_
FNDA:0,_ZSt14__copy_move_a1ILb0EPKdPdET1_T0_S4_S3_
FNDA:1,_ZSt14__copy_move_a1ILb0EPKiPiET1_T0_S4_S3_
FNDA:3,_ZSt14__copy_move_a1ILb1EPNSt7__cxx1112basic_stringIcSt11char_traitsIcESaIcEEESt15insert_iteratorISt13unordered_setIS5_St4hashIS5_ESt8equal_toIS5_ESaIS5_EEEET1_T0_SH_SG_
FNDA:3,_ZSt14__copy_move_a1ILb1EPNSt7__cxx1112basic_stringIcSt11char_traitsIcESaIcEEESt15insert_iteratorISt6vectorIS5_SaIS5_EEEET1_T0_SD_SC_
FNDA:0,_ZSt14__copy_move_a1ILb1EPPN7testing17TestEventListenerES3_ET1_T0_S5_S4_
FNDA:9,_ZSt14__copy_move_a1ILb1EPPN7testing8TestInfoES3_ET1_T0_S5_S4_
FNDA:0,_ZSt13__copy_move_aILb0EN9__gnu_cxx17__normal_iteratorIPKN7testing8internal13edit_distance8EditTypeESt6vectorIS5_SaIS5_EEEEPS5_ET1_T0_SE_SD_
FNDA:0,_ZSt13__copy_move_aILb0EN9__gnu_cxx17__normal_iteratorIPKdSt6vectorIdSaIdEEEEPdET1_T0_SA_S9_
FNDA:1,_ZSt13__copy_move_aILb0EPKiPiET1_T0_S4_S3_
FNDA:3,_ZSt13__copy_move_aILb1EN9__gnu_cxx17__normal_iteratorIPNSt7__cxx1112basic_stringIcSt11char_traitsIcESaIcEEESt6vectorIS7_SaIS7_EEEESt15insert_iteratorISB_EET1_T0_SG_SF_
FNDA:3,_ZSt13__copy_move_aILb1EN9__gnu_cxx17__normal_iteratorIPNSt7__cxx1112basic_stringIcSt11char_traitsIcESaIcEEESt6vectorIS7_SaIS7_EEEESt15insert_iteratorISt13unordered_setIS7_St4hashIS7_ESt8equal_toIS7_ESA_EEET1_T0_SM_SL_
FNDA:0,_ZSt13__copy_move_aILb1EN9__gnu_cxx17__normal_iteratorIPPN7testing17TestEventListenerESt6vectorIS4_SaIS4_EEEES9_ET1_T0_SB_SA_
FNDA:5,_ZSt13__copy_move_aILb1EN9__gnu_cxx17__normal_iteratorIPPN7testing8TestInfoESt6vectorIS4_SaIS4_EEEES5_ET1_T0_SB_SA_
FNDA:0,_ZSt13__copy_move_aILb1EN9__gnu_cxx17__normal_iteratorIPPN7testing8TestInfoESt6vectorIS4_SaIS4_EEEES9_ET1_T0_SB_SA_
FNDA:4,_ZSt13__copy_move_aILb1EPPN7testing8TestInfoEN9__gnu_cxx17__normal_iteratorIS3_St6vectorIS2_SaIS2_EEEEET1_T0_SB_SA_
FNDA:0,_ZSt4copyIN9__gnu_cxx17__normal_iteratorIPKN7testing8internal13edit_distance8EditTypeESt6vectorIS5_SaIS5_EEEEPS5_ET0_T_SE_SD_
FNDA:0,_ZSt4copyIN9__gnu_cxx17__normal_iteratorIPKdSt6vectorIdSaIdEEEEPdET0_T_SA_S9_
FNDA:1,_ZSt4copyIPKiPiET0_T_S4_S3_
FNDA:3,_ZSt4moveIN9__gnu_cxx17__normal_iteratorIPNSt7__cxx1112basic_stringIcSt11char_traitsIcESaIcEEESt6vectorIS7_SaIS7_EEEESt15insert_iteratorISB_EET0_T_SG_SF_
FNDA:3,_ZSt4moveIN9__gnu_cxx17__normal_iteratorIPNSt7__cxx1112basic_stringIcSt11char_traitsIcESaIcEEESt6vectorIS7_SaIS7_EEEESt15insert_iteratorISt13unordered_setIS7_St4hashIS7_ESt8equal_toIS7_ESA_EEET0_T_SM_SL_
FNDA:0,_ZSt4moveIN9__gnu_cxx17__normal_iteratorIPPN7testing17TestEventListenerESt6vectorIS4_SaIS4_EEEES9_ET0_T_SB_SA_
FNDA:5,_ZSt4moveIN9__gnu_cxx17__normal_iteratorIPPN7testing8TestInfoESt6vectorIS4_SaIS4_EEEES5_ET0_T_SB_SA_
FNDA:0,_ZSt4moveIN9__gnu_cxx17__normal_iteratorIPPN7testing8TestInfoESt6vectorIS4_SaIS4_EEEES9_ET0_T_SB_SA_
FNDA:4,_ZSt4moveIPPN7testing8TestInfoEN9__gnu_cxx17__normal_iteratorIS3_St6vectorIS2_SaIS2_EEEEET0_T_SB_SA_
FNDA:0,_ZNSt20__copy_move_backwardILb1ELb0ESt26random_access_iterator_tagE13__copy_move_bIPNSt7__cxx1112basic_stringIcSt11char_traitsIcESaIcEEES9_EET0_T_SB_SA_
FNDA:0,_ZNSt20__copy_move_backwardILb1ELb0ESt26random_access_iterator_tagE13__copy_move_bIPPN7testing8TestInfoES6_EET0_T_S8_S7_
FNDA:0,_ZNSt20__copy_move_backwardILb1ELb0ESt26random_access_iterator_tagE13__copy_move_bIPPN7testing9TestSuiteES6_EET0_T_S8_S7_
FNDA:0,_ZNSt20__copy_move_backwardILb1ELb1ESt26random_access_iterator_tagE13__copy_move_bIPN7testing8TestInfoES5_EEPT0_PT_S9_S7_
FNDA:0,_ZNSt20__copy_move_backwardILb1ELb1ESt26random_access_iterator_tagE13__copy_move_bIPN7testing9TestSuiteES5_EEPT0_PT_S9_S7_
FNDA:0,_ZSt23__copy_move_backward_a2ILb1EPNSt7__cxx1112basic_stringIcSt11char_traitsIcESaIcEEES6_ET1_T0_S8_S7_
FNDA:0,_ZSt23__copy_move_backward_a2ILb1EPPN7testing8TestInfoES3_ET1_T0_S5_S4_
FNDA:0,_ZSt23__copy_move_backward_a2ILb1EPPN7testing9TestSuiteES3_ET1_T0_S5_S4_
FNDA:0,_ZSt23__copy_move_backward_a1ILb1EPNSt7__cxx1112basic_stringIcSt11char_traitsIcESaIcEEES6_ET1_T0_S8_S7_
FNDA:0,_ZSt23__copy_move_backward_a1ILb1EPPN7testing8TestInfoES3_ET1_T0_S5_S4_
FNDA:0,_ZSt23__copy_move_backward_a1ILb1EPPN7testing9TestSuiteES3_ET1_T0_S5_S4_
FNDA:0,_ZSt22__copy_move_backward_aILb1EN9__gnu_cxx17__normal_iteratorIPPN7testing8TestInfoESt6vectorIS4_SaIS4_EEEES9_ET1_T0_SB_SA_
FNDA:0,_ZSt22__copy_move_backward_aILb1EPNSt7__cxx1112basic_stringIcSt11char_traitsIcESaIcEEES6_ET1_T0_S8_S7_
FNDA:0,_ZSt22__copy_move_backward_aILb1EPPN7testing8TestInfoEN9__gnu_cxx17__normal_iteratorIS3_St6vectorIS2_SaIS2_EEEEET1_T0_SB_SA_
FNDA:0,_ZSt22__copy_move_backward_aILb1EPPN7testing9TestSuiteES3_ET1_T0_S5_S4_
FNDA:0,_ZSt13move_backwardIN9__gnu_cxx17__normal_iteratorIPPN7testing8TestInfoESt6vectorIS4_SaIS4_EEEES9_ET0_T_SB_SA_
FNDA:0,_ZSt13move_backwardIPNSt7__cxx1112basic_stringIcSt11char_traitsIcESaIcEEES6_ET0_T_S8_S7_
FNDA:0,_ZSt13move_backwardIPPN7testing8TestInfoEN9__gnu_cxx17__normal_iteratorIS3_St6vectorIS2_SaIS2_EEEEET0_T_SB_SA_
FNDA:0,_ZSt13move_backwardIPPN7testing9TestSuiteES3_ET0_T_S5_S4_
FNDA:0,_ZSt9__fill_a1IPN7testing8internal13edit_distance8EditTypeES3_EN9__gnu_cxx11__enable_ifIXntsrSt11__is_scalarIT0_E7__valueEvE6__typeET_SC_RKS8_
FNDA:0,_ZSt9__fill_a1IPddEN9__gnu_cxx11__enable_ifIXsrSt11__is_scalarIT0_E7__valueEvE6__typeET_S8_RKS4_
FNDA:1,_ZSt8__memcmpIiiEiPKT_PKT0_m
FNDA:0,_ZSt8__fill_aIPN7testing8internal13edit_distance8EditTypeES3_EvT_S5_RKT0_
FNDA:0,_ZSt8__fill_aIPddEvT_S1_RKT0_
FNF:127
FNH:50
DA:93,1
DA:99,1
DA:101,0
DA:102,0
DA:103,0
DA:104,0
DA:108,1
DA:155,0
DA:185,0
DA:187,0
DA:204,0
DA:214,0
DA:215,0
DA:216,0
DA:233,58
DA:238,58
DA:239,2
DA:240,56
DA:257,25
DA:262,25
DA:263,11
DA:264,14
DA:316,181
DA:318,181
DA:331,4
DA:332,4
DA:338,12
DA:339,12
DA:383,0
DA:386,0
DA:388,0
DA:389,0
DA:390,0
DA:392,0
DA:397,0
DA:398,0
DA:408,6
DA:411,11
DA:413,5
DA:414,5
DA:415,5
DA:417,6
DA:422,1
DA:423,1
DA:433,10
DA:435,10
DA:436,10
DA:437,5
DA:438,5
DA:440,1
DA:441,10
DA:497,16
DA:501,16
DA:503,0
DA:506,16
DA:532,16
DA:533,16
DA:538,16
DA:540,16
DA:543,16
DA:624,1
DA:633,1
DA:657,15
DA:665,15
DA:666,15
DA:727,0
DA:730,0
DA:731,0
DA:732,0
DA:733,0
DA:744,0
DA:746,0
DA:747,0
DA:748,0
DA:749,0
DA:751,0
DA:752,0
DA:759,0
DA:763,0
DA:765,0
DA:769,0
DA:771,0
DA:777,0
DA:778,0
DA:805,0
DA:807,0
DA:810,0
DA:892,0
DA:901,0
DA:903,0
DA:915,0
DA:918,0
DA:919,0
DA:920,0
DA:926,0
DA:929,0
DA:930,0
DA:931,0
DA:932,0
DA:976,0
DA:977,0
DA:1018,0
DA:1117,0
DA:1123,0
DA:1124,0
DA:1128,0
DA:1129,0
DA:1152,0
DA:1157,0
DA:1158,0
DA:1182,1
DA:1184,1
DA:1185,1
DA:1186,0
DA:1213,1
DA:1216,1
DA:1219,1
DA:1225,1
DA:1227,1
DA:1229,1
DA:1459,0
DA:1465,0
DA:1467,0
DA:1469,0
DA:1470,0
DA:1472,0
DA:1474,0
DA:1475,0
DA:1476,0
DA:1479,0
DA:1481,0
DA:1547,1
DA:1557,1
DA:2064,91
DA:2068,91
DA:2070,93
DA:2072,5
DA:2073,3
DA:2074,2
DA:2076,2
DA:2077,0
DA:2078,2
DA:2080,2
DA:2081,0
DA:2082,2
DA:2084,2
DA:2085,0
DA:2086,2
DA:2089,88
DA:2091,0
DA:2092,0
DA:2093,0
DA:2094,0
DA:2096,36
DA:2097,36
DA:2098,0
DA:2099,36
DA:2101,70
DA:2102,70
DA:2103,35
DA:2104,35
DA:2106,53
DA:2108,53
DA:2115,91
DA:2117,108
DA:2118,125
LF:166
LH:81
end_of_record
TN:
SF:/usr/include/c++/13/bits/stl_construct.h
FN:109,120,_ZSt10_ConstructIN7testing8internal13edit_distance8EditTypeEJEEvPT_DpOT0_
FN:109,120,_ZSt10_ConstructIN7testing8internal13edit_distance8EditTypeEJRKS3_EEvPT_DpOT0_
FN:109,120,_ZSt10_ConstructINSt7__cxx1112basic_stringIcSt11char_traitsIcESaIcEEEJRKPKcEEvPT_DpOT0_
FN:109,120,_ZSt10_ConstructINSt7__cxx1112basic_stringIcSt11char_traitsIcESaIcEEEJRKS5_EEvPT_DpOT0_
FN:109,120,_ZSt10_ConstructISt6vectorIN7testing8internal13edit_distance8EditTypeESaIS4_EEJRKS6_EEvPT_DpOT0_
FN:109,120,_ZSt10_ConstructISt6vectorIdSaIdEEJRKS2_EEvPT_DpOT0_
FN:109,120,_ZSt10_ConstructIdJEEvPT_DpOT0_
FN:109,120,_ZSt10_ConstructIdJRKdEEvPT_DpOT0_
FN:109,120,_ZSt10_ConstructIiJRKiEEvPT_DpOT0_
FN:146,153,_ZSt8_DestroyIN7testing12TestPropertyEEvPT_
FN:146,153,_ZSt8_DestroyIN7testing14TestPartResultEEvPT_
FN:146,153,_ZSt8_DestroyIN7testing8internal13edit_distance8EditTypeEEvPT_
FN:146,153,_ZSt8_DestroyIN7testing8internal9TraceInfoEEvPT_
FN:146,153,_ZSt8_DestroyINSt7__cxx1112basic_stringIcSt11char_traitsIcESaIcEEEEvPT_
FN:146,153,_ZSt8_DestroyIPN7testing11EnvironmentEEvPT_
FN:146,153,_ZSt8_DestroyIPN7testing17TestEventListenerEEvPT_
FN:146,153,_ZSt8_DestroyIPN7testing8TestInfoEEvPT_
FN:146,153,_ZSt8_DestroyIPN7testing8internal30ParameterizedTestSuiteInfoBaseEEvPT_
FN:146,153,_ZSt8_DestroyIPN7testing9TestSuiteEEvPT_
FN:146,153,_ZSt8_DestroyISt6vectorIN7testing8internal13edit_distance8EditTypeESaIS4_EEEvPT_
FN:146,153,_ZSt8_DestroyISt6vectorIdSaIdEEEvPT_
FN:146,153,_ZSt8_DestroyIdEvPT_
FN:146,153,_ZSt8_DestroyIiEvPT_
FN:146,153,_ZSt8_DestroyImEvPT_
FN:160,164,_ZNSt12_Destroy_auxILb0EE9__destroyIPN7testing12TestPropertyEEEvT_S5_
FN:160,164,_ZNSt12_Destroy_auxILb0EE9__destroyIPN7testing14TestPartResultEEEvT_S5_
FN:160,164,_ZNSt12_Destroy_auxILb0EE9__destroyIPN7testing8internal13edit_distance8EditTypeEEEvT_S7_
FN:160,164,_ZNSt12_Destroy_auxILb0EE9__destroyIPN7testing8internal9TraceInfoEEEvT_S6_
FN:160,164,_ZNSt12_Destroy_auxILb0EE9__destroyIPNSt7__cxx1112basic_stringIcSt11char_traitsIcESaIcEEEEEvT_S9_
FN:160,164,_ZNSt12_Destroy_auxILb0EE9__destroyIPPN7testing11EnvironmentEEEvT_S6_
FN:160,164,_ZNSt12_Destroy_auxILb0EE9__destroyIPPN7testing17TestEventListenerEEEvT_S6_
FN:160,164,_ZNSt12_Destroy_auxILb0EE9__destroyIPPN7testing8TestInfoEEEvT_S6_
FN:160,164,_ZNSt12_Destroy_auxILb0EE9__destroyIPPN7testing8internal30ParameterizedTestSuiteInfoBaseEEEvT_S7_
FN:160,164,_ZNSt12_Destroy_auxILb0EE9__destroyIPPN7testing9TestSuiteEEEvT_S6_
FN:160,164,_ZNSt12_Destroy_auxILb0EE9__destroyIPSt6vectorIN7testing8internal13edit_distance8EditTypeESaIS6_EEEEvT_SA_
FN:160,164,_ZNSt12_Destroy_auxILb0EE9__destroyIPSt6vectorIdSaIdEEEEvT_S6_
FN:160,164,_ZNSt12_Destroy_auxILb0EE9__destroyIPdEEvT_S3_
FN:160,164,_ZNSt12_Destroy_auxILb0EE9__destroyIPiEEvT_S3_
FN:160,164,_ZNSt12_Destroy_auxILb0EE9__destroyIPmEEvT_S3_
FN:172,172,_ZNSt12_Destroy_auxILb1EE9__destroyIPN7testing8internal13edit_distance8EditTypeEEEvT_S7_
FN:172,172,_ZNSt12_Destroy_auxILb1EE9__destroyIPPN7testing11EnvironmentEEEvT_S6_
FN:172,172,_ZNSt12_Destroy_auxILb1EE9__destroyIPPN7testing17TestEventListenerEEEvT_S6_
FN:172,172,_ZNSt12_Destroy_auxILb1EE9__destroyIPPN7testing8TestInfoEEEvT_S6_
FN:172,172,_ZNSt12_Destroy_auxILb1EE9__destroyIPPN7testing8internal30ParameterizedTestSuiteInfoBaseEEEvT_S7_
FN:172,172,_ZNSt12_Destroy_auxILb1EE9__destroyIPPN7testing9TestSuiteEEEvT_S6_
FN:172,172,_ZNSt12_Destroy_auxILb1EE9__destroyIPdEEvT_S3_
FN:172,172,_ZNSt12_Destroy_auxILb1EE9__destroyIPiEEvT_S3_
FN:172,172,_ZNSt12_Destroy_auxILb1EE9__destroyIPmEEvT_S3_
FN:182,197,_ZSt8_DestroyIPN7testing12TestPropertyEEvT_S3_
FN:182,197,_ZSt8_DestroyIPN7testing14TestPartResultEEvT_S3_
FN:182,197,_ZSt8_DestroyIPN7testing8internal13edit_distance8EditTypeEEvT_S5_
FN:182,197,_ZSt8_DestroyIPN7testing8internal9TraceInfoEEvT_S4_
FN:182,197,_ZSt8_DestroyIPNSt7__cxx1112basic_stringIcSt11char_traitsIcESaIcEEEEvT_S7_
FN:182,197,_ZSt8_DestroyIPPN7testing11EnvironmentEEvT_S4_
FN:182,197,_ZSt8_DestroyIPPN7testing17TestEventListenerEEvT_S4_
FN:182,197,_ZSt8_DestroyIPPN7testing8TestInfoEEvT_S4_
FN:182,197,_ZSt8_DestroyIPPN7testing8internal30ParameterizedTestSuiteInfoBaseEEvT_S5_
FN:182,197,_ZSt8_DestroyIPPN7testing9TestSuiteEEvT_S4_
FN:182,197,_ZSt8_DestroyIPSt6vectorIN7testing8internal13edit_distance8EditTypeESaIS4_EEEvT_S8_
FN:182,197,_ZSt8_DestroyIPSt6vectorIdSaIdEEEvT_S4_
FN:182,197,_ZSt8_DestroyIPdEvT_S1_
FN:182,197,_ZSt8_DestroyIPiEvT_S1_
FN:182,197,_ZSt8_DestroyIPmEvT_S1_
FN:80,89,_ZSt10destroy_atIN7testing12TestPropertyEEvPT_
FN:80,89,_ZSt10destroy_atIN7testing14TestPartResultEEvPT_
FN:80,89,_ZSt10destroy_atIN7testing8internal13edit_distance8EditTypeEEvPT_
FN:80,89,_ZSt10destroy_atIN7testing8internal9TraceInfoEEvPT_
FN:80,89,_ZSt10destroy_atINSt7__cxx1112basic_stringIcSt11char_traitsIcESaIcEEEEvPT_
FN:80,89,_ZSt10destroy_atIPN7testing11EnvironmentEEvPT_
FN:80,89,_ZSt10destroy_atIPN7testing17TestEventListenerEEvPT_
FN:80,89,_ZSt10destroy_atIPN7testing8TestInfoEEvPT_
FN:80,89,_ZSt10destroy_atIPN7testing8internal30ParameterizedTestSuiteInfoBaseEEvPT_
FN:80,89,_ZSt10destroy_atIPN7testing9TestSuiteEEvPT_
FN:80,89,_ZSt10destroy_atISt4pairIKNSt7__cxx1112basic_stringIcSt11char_traitsIcESaIcEEEN7testing8internal34TypeParameterizedTestSuiteRegistry30TypeParameterizedTestSuiteInfoEEEvPT_
FN:80,89,_ZSt10destroy_atISt4pairIKNSt7__cxx1112basic_stringIcSt11char_traitsIcESaIcEEEmEEvPT_
FN:80,89,_ZSt10destroy_atISt4pairIcPKcEEvPT_
FN:80,89,_ZSt10destroy_atISt6vectorIN7testing8internal13edit_distance8EditTypeESaIS4_EEEvPT_
FN:80,89,_ZSt10destroy_atISt6vectorIdSaIdEEEvPT_
FN:80,89,_ZSt10destroy_atIdEvPT_
FN:80,89,_ZSt10destroy_atIiEvPT_
FN:80,89,_ZSt10destroy_atImEvPT_
FN:94,97,_ZSt12construct_atIN7testing12TestPropertyEJRKS1_EEDTgsnwcvPvLi0E_T_pispcl7declvalIT0_EEEEPS5_DpOS6_
FN:94,97,_ZSt12construct_atIN7testing12TestPropertyEJS1_EEDTgsnwcvPvLi0E_T_pispcl7declvalIT0_EEEEPS3_DpOS4_
FN:94,97,_ZSt12construct_atIN7testing14TestPartResultEJRKS1_EEDTgsnwcvPvLi0E_T_pispcl7declvalIT0_EEEEPS5_DpOS6_
FN:94,97,_ZSt12construct_atIN7testing14TestPartResultEJS1_EEDTgsnwcvPvLi0E_T_pispcl7declvalIT0_EEEEPS3_DpOS4_
FN:94,97,_ZSt12construct_atIN7testing8internal13edit_distance8EditTypeEJEEDTgsnwcvPvLi0E_T_pispcl7declvalIT0_EEEEPS5_DpOS6_
FN:94,97,_ZSt12construct_atIN7testing8internal13edit_distance8EditTypeEJRKS3_EEDTgsnwcvPvLi0E_T_pispcl7declvalIT0_EEEEPS7_DpOS8_
FN:94,97,_ZSt12construct_atIN7testing8internal13edit_distance8EditTypeEJS3_EEDTgsnwcvPvLi0E_T_pispcl7declvalIT0_EEEEPS5_DpOS6_
FN:94,97,_ZSt12construct_atIN7testing8internal9TraceInfoEJRKS2_EEDTgsnwcvPvLi0E_T_pispcl7declvalIT0_EEEEPS6_DpOS7_
FN:94,97,_ZSt12construct_atIN7testing8internal9TraceInfoEJS2_EEDTgsnwcvPvLi0E_T_pispcl7declvalIT0_EEEEPS4_DpOS5_
FN:94,97,_ZSt12construct_atINSt7__cxx1112basic_stringIcSt11char_traitsIcESaIcEEEJRKPKcEEDTgsnwcvPvLi0E_T_pispcl7declvalIT0_EEEEPSB_DpOSC_
FN:94,97,_ZSt12construct_atINSt7__cxx1112basic_stringIcSt11char_traitsIcESaIcEEEJRKS5_EEDTgsnwcvPvLi0E_T_pispcl7declvalIT0_EEEEPS9_DpOSA_
FN:94,97,_ZSt12construct_atINSt7__cxx1112basic_stringIcSt11char_traitsIcESaIcEEEJS5_EEDTgsnwcvPvLi0E_T_pispcl7declvalIT0_EEEEPS7_DpOS8_
FN:94,97,_ZSt12construct_atIPN7testing11EnvironmentEJRKS2_EEDTgsnwcvPvLi0E_T_pispcl7declvalIT0_EEEEPS6_DpOS7_
FN:94,97,_ZSt12construct_atIPN7testing11EnvironmentEJS2_EEDTgsnwcvPvLi0E_T_pispcl7declvalIT0_EEEEPS4_DpOS5_
FN:94,97,_ZSt12construct_atIPN7testing17TestEventListenerEJRKS2_EEDTgsnwcvPvLi0E_T_pispcl7declvalIT0_EEEEPS6_DpOS7_
FN:94,97,_ZSt12construct_atIPN7testing17TestEventListenerEJS2_EEDTgsnwcvPvLi0E_T_pispcl7declvalIT0_EEEEPS4_DpOS5_
FN:94,97,_ZSt12construct_atIPN7testing8TestInfoEJRKS2_EEDTgsnwcvPvLi0E_T_pispcl7declvalIT0_EEEEPS6_DpOS7_
FN:94,97,_ZSt12construct_atIPN7testing8TestInfoEJS2_EEDTgsnwcvPvLi0E_T_pispcl7declvalIT0_EEEEPS4_DpOS5_
FN:94,97,_ZSt12construct_atIPN7testing9TestSuiteEJRKS2_EEDTgsnwcvPvLi0E_T_pispcl7declvalIT0_EEEEPS6_DpOS7_
FN:94,97,_ZSt12construct_atIPN7testing9TestSuiteEJS2_EEDTgsnwcvPvLi0E_T_pispcl7declvalIT0_EEEEPS4_DpOS5_
FN:94,97,_ZSt12construct_atISt4pairIKNSt7__cxx1112basic_stringIcSt11char_traitsIcESaIcEEEN7testing8internal34TypeParameterizedTestSuiteRegistry30TypeParameterizedTestSuiteInfoEEJS6_SB_EEDTgsnwcvPvLi0E_T_pispcl7declvalIT0_EEEEPSE_DpOSF_
FN:94,97,_ZSt12construct_atISt4pairIKNSt7__cxx1112basic_stringIcSt11char_traitsIcESaIcEEEmEJRKSt21piecewise_construct_tSt5tupleIJRS7_EESC_IJEEEEDTgsnwcvPvLi0E_T_pispcl7declvalIT0_EEEEPSH_DpOSI_
FN:94,97,_ZSt12construct_atISt4pairIcPKcEJS3_EEDTgsnwcvPvLi0E_T_pispcl7declvalIT0_EEEEPS5_DpOS6_
FN:94,97,_ZSt12construct_atISt6vectorIN7testing8internal13edit_distance8EditTypeESaIS4_EEJRKS6_EEDTgsnwcvPvLi0E_T_pispcl7declvalIT0_EEEEPSA_DpOSB_
FN:94,97,_ZSt12construct_atISt6vectorIdSaIdEEJRKS2_EEDTgsnwcvPvLi0E_T_pispcl7declvalIT0_EEEEPS6_DpOS7_
FN:94,97,_ZSt12construct_atIcJRKcEEDTgsnwcvPvLi0E_T_pispcl7declvalIT0_EEEEPS3_DpOS4_
FN:94,97,_ZSt12construct_atIcJRcEEDTgsnwcvPvLi0E_T_pispcl7declvalIT0_EEEEPS2_DpOS3_
FN:94,97,_ZSt12construct_atIdJEEDTgsnwcvPvLi0E_T_pispcl7declvalIT0_EEEEPS1_DpOS2_
FN:94,97,_ZSt12construct_atIdJRKdEEDTgsnwcvPvLi0E_T_pispcl7declvalIT0_EEEEPS3_DpOS4_
FN:94,97,_ZSt12construct_atIiJRKiEEDTgsnwcvPvLi0E_T_pispcl7declvalIT0_EEEEPS3_DpOS4_
FN:94,97,_ZSt12construct_atIiJiEEDTgsnwcvPvLi0E_T_pispcl7declvalIT0_EEEEPS1_DpOS2_
FN:94,97,_ZSt12construct_atImJmEEDTgsnwcvPvLi0E_T_pispcl7declvalIT0_EEEEPS1_DpOS2_
FN:94,97,_ZSt12construct_atIwJRKwEEDTgsnwcvPvLi0E_T_pispcl7declvalIT0_EEEEPS3_DpOS4_
FNDA:0,_ZSt10_ConstructIN7testing8internal13edit_distance8EditTypeEJEEvPT_DpOT0_
FNDA:0,_ZSt10_ConstructIN7testing8internal13edit_distance8EditTypeEJRKS3_EEvPT_DpOT0_
FNDA:0,_ZSt10_ConstructINSt7__cxx1112basic_stringIcSt11char_traitsIcESaIcEEEJRKPKcEEvPT_DpOT0_
FNDA:1,_ZSt10_ConstructINSt7__cxx1112basic_stringIcSt11char_traitsIcESaIcEEEJRKS5_EEvPT_DpOT0_
FNDA:0,_ZSt10_ConstructISt6vectorIN7testing8internal13edit_distance8EditTypeESaIS4_EEJRKS6_EEvPT_DpOT0_
FNDA:0,_ZSt10_ConstructISt6vectorIdSaIdEEJRKS2_EEvPT_DpOT0_
FNDA:0,_ZSt10_ConstructIdJEEvPT_DpOT0_
FNDA:0,_ZSt10_ConstructIdJRKdEEvPT_DpOT0_
FNDA:0,_ZSt10_ConstructIiJRKiEEvPT_DpOT0_
FNDA:0,_ZSt8_DestroyIN7testing12TestPropertyEEvPT_
FNDA:0,_ZSt8_DestroyIN7testing14TestPartResultEEvPT_
FNDA:0,_ZSt8_DestroyIN7testing8internal13edit_distance8EditTypeEEvPT_
FNDA:0,_ZSt8_DestroyIN7testing8internal9TraceInfoEEvPT_
FNDA:13,_ZSt8_DestroyINSt7__cxx1112basic_stringIcSt11char_traitsIcESaIcEEEEvPT_
FNDA:0,_ZSt8_DestroyIPN7testing11EnvironmentEEvPT_
FNDA:0,_ZSt8_DestroyIPN7testing17TestEventListenerEEvPT_
FNDA:0,_ZSt8_DestroyIPN7testing8TestInfoEEvPT_
FNDA:0,_ZSt8_DestroyIPN7testing8internal30ParameterizedTestSuiteInfoBaseEEvPT_
FNDA:0,_ZSt8_DestroyIPN7testing9TestSuiteEEvPT_
FNDA:0,_ZSt8_DestroyISt6vectorIN7testing8internal13edit_distance8EditTypeESaIS4_EEEvPT_
FNDA:0,_ZSt8_DestroyISt6vectorIdSaIdEEEvPT_
FNDA:0,_ZSt8_DestroyIdEvPT_
FNDA:0,_ZSt8_DestroyIiEvPT_
FNDA:0,_ZSt8_DestroyImEvPT_
FNDA:19,_ZNSt12_Destroy_auxILb0EE9__destroyIPN7testing12TestPropertyEEEvT_S5_
FNDA:19,_ZNSt12_Destroy_auxILb0EE9__destroyIPN7testing14TestPartResultEEEvT_S5_
FNDA:0,_ZNSt12_Destroy_auxILb0EE9__destroyIPN7testing8internal13edit_distance8EditTypeEEEvT_S7_
FNDA:0,_ZNSt12_Destroy_auxILb0EE9__destroyIPN7testing8internal9TraceInfoEEEvT_S6_
FNDA:17,_ZNSt12_Destroy_auxILb0EE9__destroyIPNSt7__cxx1112basic_stringIcSt11char_traitsIcESaIcEEEEEvT_S9_
FNDA:0,_ZNSt12_Destroy_auxILb0EE9__destroyIPPN7testing11EnvironmentEEEvT_S6_
FNDA:0,_ZNSt12_Destroy_auxILb0EE9__destroyIPPN7testing17TestEventListenerEEEvT_S6_
FNDA:0,_ZNSt12_Destroy_auxILb0EE9__destroyIPPN7testing8TestInfoEEEvT_S6_
FNDA:0,_ZNSt12_Destroy_auxILb0EE9__destroyIPPN7testing8internal30ParameterizedTestSuiteInfoBaseEEEvT_S7_
FNDA:0,_ZNSt12_Destroy_auxILb0EE9__destroyIPPN7testing9TestSuiteEEEvT_S6_
FNDA:0,_ZNSt12_Destroy_auxILb0EE9__destroyIPSt6vectorIN7testing8internal13edit_distance8EditTypeESaIS6_EEEEvT_SA_
FNDA:0,_ZNSt12_Destroy_auxILb0EE9__destroyIPSt6vectorIdSaIdEEEEvT_S6_
FNDA:0,_ZNSt12_Destroy_auxILb0EE9__destroyIPdEEvT_S3_
FNDA:0,_ZNSt12_Destroy_auxILb0EE9__destroyIPiEEvT_S3_
FNDA:0,_ZNSt12_Destroy_auxILb0EE9__destroyIPmEEvT_S3_
FNDA:0,_ZNSt12_Destroy_auxILb1EE9__destroyIPN7testing8internal13edit_distance8EditTypeEEEvT_S7_
FNDA:1,_ZNSt12_Destroy_auxILb1EE9__destroyIPPN7testing11EnvironmentEEEvT_S6_
FNDA:1,_ZNSt12_Destroy_auxILb1EE9__destroyIPPN7testing17TestEventListenerEEEvT_S6_
FNDA:2,_ZNSt12_Destroy_auxILb1EE9__destroyIPPN7testing8TestInfoEEEvT_S6_
FNDA:1,_ZNSt12_Destroy_auxILb1EE9__destroyIPPN7testing8internal30ParameterizedTestSuiteInfoBaseEEEvT_S7_
FNDA:1,_ZNSt12_Destroy_auxILb1EE9__destroyIPPN7testing9TestSuiteEEEvT_S6_
FNDA:0,_ZNSt12_Destroy_auxILb1EE9__destroyIPdEEvT_S3_
FNDA:4,_ZNSt12_Destroy_auxILb1EE9__destroyIPiEEvT_S3_
FNDA:0,_ZNSt12_Destroy_auxILb1EE9__destroyIPmEEvT_S3_
FNDA:19,_ZSt8_DestroyIPN7testing12TestPropertyEEvT_S3_
FNDA:19,_ZSt8_DestroyIPN7testing14TestPartResultEEvT_S3_
FNDA:0,_ZSt8_DestroyIPN7testing8internal13edit_distance8EditTypeEEvT_S5_
FNDA:0,_ZSt8_DestroyIPN7testing8internal9TraceInfoEEvT_S4_
FNDA:17,_ZSt8_DestroyIPNSt7__cxx1112basic_stringIcSt11char_traitsIcESaIcEEEEvT_S7_
FNDA:1,_ZSt8_DestroyIPPN7testing11EnvironmentEEvT_S4_
FNDA:1,_ZSt8_DestroyIPPN7testing17TestEventListenerEEvT_S4_
FNDA:2,_ZSt8_DestroyIPPN7testing8TestInfoEEvT_S4_
FNDA:1,_ZSt8_DestroyIPPN7testing8internal30ParameterizedTestSuiteInfoBaseEEvT_S5_
FNDA:1,_ZSt8_DestroyIPPN7testing9TestSuiteEEvT_S4_
FNDA:0,_ZSt8_DestroyIPSt6vectorIN7testing8internal13edit_distance8EditTypeESaIS4_EEEvT_S8_
FNDA:0,_ZSt8_DestroyIPSt6vectorIdSaIdEEEvT_S4_
FNDA:0,_ZSt8_DestroyIPdEvT_S1_
FNDA:4,_ZSt8_DestroyIPiEvT_S1_
FNDA:0,_ZSt8_DestroyIPmEvT_S1_
FNDA:0,_ZSt10destroy_atIN7testing12TestPropertyEEvPT_
FNDA:0,_ZSt10destroy_atIN7testing14TestPartResultEEvPT_
FNDA:0,_ZSt10destroy_atIN7testing8internal13edit_distance8EditTypeEEvPT_
FNDA:0,_ZSt10destroy_atIN7testing8internal9TraceInfoEEvPT_
FNDA:15,_ZSt10destroy_atINSt7__cxx1112basic_stringIcSt11char_traitsIcESaIcEEEEvPT_
FNDA:0,_ZSt10destroy_atIPN7testing11EnvironmentEEvPT_
FNDA:0,_ZSt10destroy_atIPN7testing17TestEventListenerEEvPT_
FNDA:0,_ZSt10destroy_atIPN7testing8TestInfoEEvPT_
FNDA:0,_ZSt10destroy_atIPN7testing8internal30ParameterizedTestSuiteInfoBaseEEvPT_
FNDA:0,_ZSt10destroy_atIPN7testing9TestSuiteEEvPT_
FNDA:0,_ZSt10destroy_atISt4pairIKNSt7__cxx1112basic_stringIcSt11char_traitsIcESaIcEEEN7testing8internal34TypeParameterizedTestSuiteRegistry30TypeParameterizedTestSuiteInfoEEEvPT_
FNDA:0,_ZSt10destroy_atISt4pairIKNSt7__cxx1112basic_stringIcSt11char_traitsIcESaIcEEEmEEvPT_
FNDA:0,_ZSt10destroy_atISt4pairIcPKcEEvPT_
FNDA:0,_ZSt10destroy_atISt6vectorIN7testing8internal13edit_distance8EditTypeESaIS4_EEEvPT_
FNDA:0,_ZSt10destroy_atISt6vectorIdSaIdEEEvPT_
FNDA:0,_ZSt10destroy_atIdEvPT_
FNDA:0,_ZSt10destroy_atIiEvPT_
FNDA:0,_ZSt10destroy_atImEvPT_
FNDA:0,_ZSt12construct_atIN7testing12TestPropertyEJRKS1_EEDTgsnwcvPvLi0E_T_pispcl7declvalIT0_EEEEPS5_DpOS6_
FNDA:0,_ZSt12construct_atIN7testing12TestPropertyEJS1_EEDTgsnwcvPvLi0E_T_pispcl7declvalIT0_EEEEPS3_DpOS4_
FNDA:0,_ZSt12construct_atIN7testing14TestPartResultEJRKS1_EEDTgsnwcvPvLi0E_T_pispcl7declvalIT0_EEEEPS5_DpOS6_
FNDA:0,_ZSt12construct_atIN7testing14TestPartResultEJS1_EEDTgsnwcvPvLi0E_T_pispcl7declvalIT0_EEEEPS3_DpOS4_
FNDA:0,_ZSt12construct_atIN7testing8internal13edit_distance8EditTypeEJEEDTgsnwcvPvLi0E_T_pispcl7declvalIT0_EEEEPS5_DpOS6_
FNDA:0,_ZSt12construct_atIN7testing8internal13edit_distance8EditTypeEJRKS3_EEDTgsnwcvPvLi0E_T_pispcl7declvalIT0_EEEEPS7_DpOS8_
FNDA:0,_ZSt12construct_atIN7testing8internal13edit_distance8EditTypeEJS3_EEDTgsnwcvPvLi0E_T_pispcl7declvalIT0_EEEEPS5_DpOS6_
FNDA:0,_ZSt12construct_atIN7testing8internal9TraceInfoEJRKS2_EEDTgsnwcvPvLi0E_T_pispcl7declvalIT0_EEEEPS6_DpOS7_
FNDA:0,_ZSt12construct_atIN7testing8internal9TraceInfoEJS2_EEDTgsnwcvPvLi0E_T_pispcl7declvalIT0_EEEEPS4_DpOS5_
FNDA:0,_ZSt12construct_atINSt7__cxx1112basic_stringIcSt11char_traitsIcESaIcEEEJRKPKcEEDTgsnwcvPvLi0E_T_pispcl7declvalIT0_EEEEPSB_DpOSC_
FNDA:0,_ZSt12construct_atINSt7__cxx1112basic_stringIcSt11char_traitsIcESaIcEEEJRKS5_EEDTgsnwcvPvLi0E_T_pispcl7declvalIT0_EEEEPS9_DpOSA_
FNDA:14,_ZSt12construct_atINSt7__cxx1112basic_stringIcSt11char_traitsIcESaIcEEEJS5_EEDTgsnwcvPvLi0E_T_pispcl7declvalIT0_EEEEPS7_DpOS8_
FNDA:0,_ZSt12construct_atIPN7testing11EnvironmentEJRKS2_EEDTgsnwcvPvLi0E_T_pispcl7declvalIT0_EEEEPS6_DpOS7_
FNDA:0,_ZSt12construct_atIPN7testing11EnvironmentEJS2_EEDTgsnwcvPvLi0E_T_pispcl7declvalIT0_EEEEPS4_DpOS5_
FNDA:1,_ZSt12construct_atIPN7testing17TestEventListenerEJRKS2_EEDTgsnwcvPvLi0E_T_pispcl7declvalIT0_EEEEPS6_DpOS7_
FNDA:0,_ZSt12construct_atIPN7testing17TestEventListenerEJS2_EEDTgsnwcvPvLi0E_T_pispcl7declvalIT0_EEEEPS4_DpOS5_
FNDA:17,_ZSt12construct_atIPN7testing8TestInfoEJRKS2_EEDTgsnwcvPvLi0E_T_pispcl7declvalIT0_EEEEPS6_DpOS7_
FNDA:0,_ZSt12construct_atIPN7testing8TestInfoEJS2_EEDTgsnwcvPvLi0E_T_pispcl7declvalIT0_EEEEPS4_DpOS5_
FNDA:1,_ZSt12construct_atIPN7testing9TestSuiteEJRKS2_EEDTgsnwcvPvLi0E_T_pispcl7declvalIT0_EEEEPS6_DpOS7_
FNDA:0,_ZSt12construct_atIPN7testing9TestSuiteEJS2_EEDTgsnwcvPvLi0E_T_pispcl7declvalIT0_EEEEPS4_DpOS5_
FNDA:0,_ZSt12construct_atISt4pairIKNSt7__cxx1112basic_stringIcSt11char_traitsIcESaIcEEEN7testing8internal34TypeParameterizedTestSuiteRegistry30TypeParameterizedTestSuiteInfoEEJS6_SB_EEDTgsnwcvPvLi0E_T_pispcl7declvalIT0_EEEEPSE_DpOSF_
FNDA:0,_ZSt12construct_atISt4pairIKNSt7__cxx1112basic_stringIcSt11char_traitsIcESaIcEEEmEJRKSt21piecewise_construct_tSt5tupleIJRS7_EESC_IJEEEEDTgsnwcvPvLi0E_T_pispcl7declvalIT0_EEEEPSH_DpOSI_
FNDA:0,_ZSt12construct_atISt4pairIcPKcEJS3_EEDTgsnwcvPvLi0E_T_pispcl7declvalIT0_EEEEPS5_DpOS6_
FNDA:0,_ZSt12construct_atISt6vectorIN7testing8internal13edit_distance8EditTypeESaIS4_EEJRKS6_EEDTgsnwcvPvLi0E_T_pispcl7declvalIT0_EEEEPSA_DpOSB_
FNDA:0,_ZSt12construct_atISt6vectorIdSaIdEEJRKS2_EEDTgsnwcvPvLi0E_T_pispcl7declvalIT0_EEEEPS6_DpOS7_
FNDA:0,_ZSt12construct_atIcJRKcEEDTgsnwcvPvLi0E_T_pispcl7declvalIT0_EEEEPS3_DpOS4_
FNDA:0,_ZSt12construct_atIcJRcEEDTgsnwcvPvLi0E_T_pispcl7declvalIT0_EEEEPS2_DpOS3_
FNDA:0,_ZSt12construct_atIdJEEDTgsnwcvPvLi0E_T_pispcl7declvalIT0_EEEEPS1_DpOS2_
FNDA:0,_ZSt12construct_atIdJRKdEEDTgsnwcvPvLi0E_T_pispcl7declvalIT0_EEEEPS3_DpOS4_
FNDA:3,_ZSt12construct_atIiJRKiEEDTgsnwcvPvLi0E_T_pispcl7declvalIT0_EEEEPS3_DpOS4_
FNDA:18,_ZSt12construct_atIiJiEEDTgsnwcvPvLi0E_T_pispcl7declvalIT0_EEEEPS1_DpOS2_
FNDA:0,_ZSt12construct_atImJmEEDTgsnwcvPvLi0E_T_pispcl7declvalIT0_EEEEPS1_DpOS2_
FNDA:0,_ZSt12construct_atIwJRKwEEDTgsnwcvPvLi0E_T_pispcl7declvalIT0_EEEEPS3_DpOS4_
FNF:114
FNH:27
DA:80,15
DA:88,15
DA:89,15
DA:94,54
DA:97,54
DA:109,1
DA:112,1
DA:115,0
DA:116,0
DA:119,1
DA:146,13
DA:149,13
DA:153,13
DA:160,55
DA:162,68
DA:163,13
DA:164,55
DA:172,10
DA:182,65
DA:192,65
DA:193,0
DA:196,65
LF:22
LH:19
end_of_record
TN:
SF:/usr/include/c++/13/bits/stl_function.h
FN:1162,1163,_ZNKSt9_IdentityINSt7__cxx1112basic_stringIcSt11char_traitsIcESaIcEEEEclERS5_
FN:1166,1167,_ZNKSt9_IdentityINSt7__cxx1112basic_stringIcSt11char_traitsIcESaIcEEEEclERKS5_
FN:1182,1183,_ZNKSt10_Select1stISt4pairIKNSt7__cxx1112basic_stringIcSt11char_traitsIcESaIcEEEN7testing8internal12CodeLocationEEEclERKSB_
FN:1182,1183,_ZNKSt10_Select1stISt4pairIKNSt7__cxx1112basic_stringIcSt11char_traitsIcESaIcEEEN7testing8internal34TypeParameterizedTestSuiteRegistry30TypeParameterizedTestSuiteInfoEEEclERKSC_
FN:1182,1183,_ZNKSt10_Select1stISt4pairIKNSt7__cxx1112basic_stringIcSt11char_traitsIcESaIcEEEmEEclERKS8_
FN:377,378,_ZNKSt8equal_toINSt7__cxx1112basic_stringIcSt11char_traitsIcESaIcEEEEclERKS5_S8_
FN:407,408,_ZNKSt4lessINSt7__cxx1112basic_stringIcSt11char_traitsIcESaIcEEEEclERKS5_S8_
FN:451,458,_ZNKSt4lessIPKcEclES1_S1_
FN:451,458,_ZNKSt4lessIPKvEclES1_S1_
FN:499,502,_ZNKSt8equal_toIvEclIRKNSt7__cxx1112basic_stringIcSt11char_traitsIcESaIcEEES9_EEDTeqcl7forwardIT_Efp_Ecl7forwardIT0_Efp0_EEOSA_OSB_
FN:499,502,_ZNKSt8equal_toIvEclIRKSt17basic_string_viewIcSt11char_traitsIcEERKNSt7__cxx1112basic_stringIcS4_SaIcEEEEEDTeqcl7forwardIT_Efp_Ecl7forwardIT0_Efp0_EEOSE_OSF_
FN:589,595,_ZNKSt4lessIvEclIRKNSt7__cxx1112basic_stringIcSt11char_traitsIcESaIcEEES9_EEDTltcl7forwardIT_Efp_Ecl7forwardIT0_Efp0_EEOSA_OSB_
FN:607,608,_ZNSt4lessIvE6_S_cmpIRKNSt7__cxx1112basic_stringIcSt11char_traitsIcESaIcEEES9_EEDcOT_OT0_St17integral_constantIbLb0EE
FNDA:0,_ZNKSt9_IdentityINSt7__cxx1112basic_stringIcSt11char_traitsIcESaIcEEEEclERS5_
FNDA:0,_ZNKSt9_IdentityINSt7__cxx1112basic_stringIcSt11char_traitsIcESaIcEEEEclERKS5_
FNDA:0,_ZNKSt10_Select1stISt4pairIKNSt7__cxx1112basic_stringIcSt11char_traitsIcESaIcEEEN7testing8internal12CodeLocationEEEclERKSB_
FNDA:0,_ZNKSt10_Select1stISt4pairIKNSt7__cxx1112basic_stringIcSt11char_traitsIcESaIcEEEN7testing8internal34TypeParameterizedTestSuiteRegistry30TypeParameterizedTestSuiteInfoEEEclERKSC_
FNDA:0,_ZNKSt10_Select1stISt4pairIKNSt7__cxx1112basic_stringIcSt11char_traitsIcESaIcEEEmEEclERKS8_
FNDA:0,_ZNKSt8equal_toINSt7__cxx1112basic_stringIcSt11char_traitsIcESaIcEEEEclERKS5_S8_
FNDA:0,_ZNKSt4lessINSt7__cxx1112basic_stringIcSt11char_traitsIcESaIcEEEEclERKS5_S8_
FNDA:26,_ZNKSt4lessIPKcEclES1_S1_
FNDA:0,_ZNKSt4lessIPKvEclES1_S1_
FNDA:0,_ZNKSt8equal_toIvEclIRKNSt7__cxx1112basic_stringIcSt11char_traitsIcESaIcEEES9_EEDTeqcl7forwardIT_Efp_Ecl7forwardIT0_Efp0_EEOSA_OSB_
FNDA:0,_ZNKSt8equal_toIvEclIRKSt17basic_string_viewIcSt11char_traitsIcEERKNSt7__cxx1112basic_stringIcS4_SaIcEEEEEDTeqcl7forwardIT_Efp_Ecl7forwardIT0_Efp0_EEOSE_OSF_
FNDA:0,_ZNKSt4lessIvEclIRKNSt7__cxx1112basic_stringIcSt11char_traitsIcESaIcEEES9_EEDTltcl7forwardIT_Efp_Ecl7forwardIT0_Efp0_EEOSA_OSB_
FNDA:0,_ZNSt4lessIvE6_S_cmpIRKNSt7__cxx1112basic_stringIcSt11char_traitsIcESaIcEEES9_EEDcOT_OT0_St17integral_constantIbLb0EE
FNF:13
FNH:1
DA:377,0
DA:378,0
DA:407,0
DA:408,0
DA:451,26
DA:454,26
DA:455,0
DA:457,26
DA:499,0
DA:502,0
DA:589,0
DA:593,0
DA:594,0
DA:607,0
DA:608,0
DA:1162,0
DA:1163,0
DA:1166,0
DA:1167,0
DA:1182,0
DA:1183,0
LF:21
LH:3
end_of_record
TN:
SF:/usr/include/c++/13/bits/stl_iterator.h
FN:1020,1021,_ZSt8inserterISt13unordered_setINSt7__cxx1112basic_stringIcSt11char_traitsIcESaIcEEESt4hashIS6_ESt8equal_toIS6_ESaIS6_EEESt15insert_iteratorIT_ERSE_DTcl7__begincl7declvalISG_EEEE
FN:1020,1021,_ZSt8inserterISt6vectorINSt7__cxx1112basic_stringIcSt11char_traitsIcESaIcEEESaIS6_EEESt15insert_iteratorIT_ERSA_DTcl7__begincl7declvalISC_EEEE
FN:1072,1073,_ZN9__gnu_cxx17__normal_iteratorIPKPN7testing9TestSuiteESt6vectorIS3_SaIS3_EEEC2Ev
FN:1076,1077,_ZN9__gnu_cxx17__normal_iteratorIPKN7testing14TestPartResultESt6vectorIS2_SaIS2_EEEC2ERKS4_
FN:1076,1077,_ZN9__gnu_cxx17__normal_iteratorIPKN7testing8internal13edit_distance8EditTypeESt6vectorIS4_SaIS4_EEEC1ERKS6_
FN:1076,1077,_ZN9__gnu_cxx17__normal_iteratorIPKN7testing8internal9TraceInfoESt6vectorIS3_SaIS3_EEEC2ERKS5_
FN:1076,1077,_ZN9__gnu_cxx17__normal_iteratorIPKNSt7__cxx1112basic_stringIcSt11char_traitsIcESaIcEEESt6vectorIS6_SaIS6_EEEC2ERKS8_
FN:1076,1077,_ZN9__gnu_cxx17__normal_iteratorIPKPN7testing11EnvironmentESt6vectorIS3_SaIS3_EEEC2ERKS5_
FN:1076,1077,_ZN9__gnu_cxx17__normal_iteratorIPKPN7testing17TestEventListenerESt6vectorIS3_SaIS3_EEEC2ERKS5_
FN:1076,1077,_ZN9__gnu_cxx17__normal_iteratorIPKPN7testing8TestInfoESt6vectorIS3_SaIS3_EEEC2ERKS5_
FN:1076,1077,_ZN9__gnu_cxx17__normal_iteratorIPKPN7testing9TestSuiteESt6vectorIS3_SaIS3_EEEC2ERKS5_
FN:1076,1077,_ZN9__gnu_cxx17__normal_iteratorIPKcNSt7__cxx1112basic_stringIcSt11char_traitsIcESaIcEEEEC2ERKS2_
FN:1076,1077,_ZN9__gnu_cxx17__normal_iteratorIPKdSt6vectorIdSaIdEEEC2ERKS2_
FN:1076,1077,_ZN9__gnu_cxx17__normal_iteratorIPKiSt6vectorIiSaIiEEEC2ERKS2_
FN:1076,1077,_ZN9__gnu_cxx17__normal_iteratorIPN7testing12TestPropertyESt6vectorIS2_SaIS2_EEEC2ERKS3_
FN:1076,1077,_ZN9__gnu_cxx17__normal_iteratorIPN7testing14TestPartResultESt6vectorIS2_SaIS2_EEEC2ERKS3_
FN:1076,1077,_ZN9__gnu_cxx17__normal_iteratorIPN7testing8internal13edit_distance8EditTypeESt6vectorIS4_SaIS4_EEEC2ERKS5_
FN:1076,1077,_ZN9__gnu_cxx17__normal_iteratorIPN7testing8internal13edit_distance8EditTypeEvEC2ERKS5_
FN:1076,1077,_ZN9__gnu_cxx17__normal_iteratorIPN7testing8internal9TraceInfoESt6vectorIS3_SaIS3_EEEC2ERKS4_
FN:1076,1077,_ZN9__gnu_cxx17__normal_iteratorIPNSt7__cxx1112basic_stringIcSt11char_traitsIcESaIcEEESt6vectorIS6_SaIS6_EEEC1ERKS7_
FN:1076,1077,_ZN9__gnu_cxx17__normal_iteratorIPPN7testing11EnvironmentESt6vectorIS3_SaIS3_EEEC2ERKS4_
FN:1076,1077,_ZN9__gnu_cxx17__normal_iteratorIPPN7testing11EnvironmentEvEC2ERKS4_
FN:1076,1077,_ZN9__gnu_cxx17__normal_iteratorIPPN7testing17TestEventListenerESt6vectorIS3_SaIS3_EEEC2ERKS4_
FN:1076,1077,_ZN9__gnu_cxx17__normal_iteratorIPPN7testing17TestEventListenerEvEC2ERKS4_
FN:1076,1077,_ZN9__gnu_cxx17__normal_iteratorIPPN7testing8TestInfoESt6vectorIS3_SaIS3_EEEC2ERKS4_
FN:1076,1077,_ZN9__gnu_cxx17__normal_iteratorIPPN7testing8TestInfoEvEC2ERKS4_
FN:1076,1077,_ZN9__gnu_cxx17__normal_iteratorIPPN7testing8internal30ParameterizedTestSuiteInfoBaseESt6vectorIS4_SaIS4_EEEC2ERKS5_
FN:1076,1077,_ZN9__gnu_cxx17__normal_iteratorIPPN7testing9TestSuiteESt6vectorIS3_SaIS3_EEEC2ERKS4_
FN:1076,1077,_ZN9__gnu_cxx17__normal_iteratorIPPN7testing9TestSuiteEvEC2ERKS4_
FN:1076,1077,_ZN9__gnu_cxx17__normal_iteratorIPcNSt7__cxx1112basic_stringIcSt11char_traitsIcESaIcEEEEC2ERKS1_
FN:1076,1077,_ZN9__gnu_cxx17__normal_iteratorIPiSt6vectorIiSaIiEEEC2ERKS1_
FN:1076,1077,_ZN9__gnu_cxx17__normal_iteratorIPivEC2ERKS1_
FN:1076,1077,_ZN9__gnu_cxx17__normal_iteratorIPmSt6vectorImSaImEEEC2ERKS1_
FN:1076,1077,_ZN9__gnu_cxx17__normal_iteratorIPmvEC2ERKS1_
FN:1083,1094,_ZN9__gnu_cxx17__normal_iteratorIPKNSt7__cxx1112basic_stringIcSt11char_traitsIcESaIcEEESt6vectorIS6_SaIS6_EEEC2IPS6_vEERKNS0_IT_SB_EE
FN:1083,1094,_ZN9__gnu_cxx17__normal_iteratorIPKPN7testing17TestEventListenerESt6vectorIS3_SaIS3_EEEC2IPS3_vEERKNS0_IT_S8_EE
FN:1083,1094,_ZN9__gnu_cxx17__normal_iteratorIPKPN7testing9TestSuiteESt6vectorIS3_SaIS3_EEEC2IPS3_vEERKNS0_IT_S8_EE
FN:1083,1094,_ZN9__gnu_cxx17__normal_iteratorIPKcNSt7__cxx1112basic_stringIcSt11char_traitsIcESaIcEEEEC2IPcvEERKNS0_IT_S8_EE
FN:1099,1100,_ZNK9__gnu_cxx17__normal_iteratorIPKN7testing14TestPartResultESt6vectorIS2_SaIS2_EEEdeEv
FN:1099,1100,_ZNK9__gnu_cxx17__normal_iteratorIPKN7testing8internal13edit_distance8EditTypeESt6vectorIS4_SaIS4_EEEdeEv
FN:1099,1100,_ZNK9__gnu_cxx17__normal_iteratorIPKNSt7__cxx1112basic_stringIcSt11char_traitsIcESaIcEEESt6vectorIS6_SaIS6_EEEdeEv
FN:1099,1100,_ZNK9__gnu_cxx17__normal_iteratorIPKPN7testing11EnvironmentESt6vectorIS3_SaIS3_EEEdeEv
FN:1099,1100,_ZNK9__gnu_cxx17__normal_iteratorIPKPN7testing17TestEventListenerESt6vectorIS3_SaIS3_EEEdeEv
FN:1099,1100,_ZNK9__gnu_cxx17__normal_iteratorIPKPN7testing8TestInfoESt6vectorIS3_SaIS3_EEEdeEv
FN:1099,1100,_ZNK9__gnu_cxx17__normal_iteratorIPKPN7testing9TestSuiteESt6vectorIS3_SaIS3_EEEdeEv
FN:1099,1100,_ZNK9__gnu_cxx17__normal_iteratorIPKcNSt7__cxx1112basic_stringIcSt11char_traitsIcESaIcEEEEdeEv
FN:1099,1100,_ZNK9__gnu_cxx17__normal_iteratorIPKdSt6vectorIdSaIdEEEdeEv
FN:1099,1100,_ZNK9__gnu_cxx17__normal_iteratorIPKiSt6vectorIiSaIiEEEdeEv
FN:1099,1100,_ZNK9__gnu_cxx17__normal_iteratorIPN7testing12TestPropertyESt6vectorIS2_SaIS2_EEEdeEv
FN:1099,1100,_ZNK9__gnu_cxx17__normal_iteratorIPN7testing8internal13edit_distance8EditTypeESt6vectorIS4_SaIS4_EEEdeEv
FN:1099,1100,_ZNK9__gnu_cxx17__normal_iteratorIPN7testing8internal13edit_distance8EditTypeEvEdeEv
FN:1099,1100,_ZNK9__gnu_cxx17__normal_iteratorIPNSt7__cxx1112basic_stringIcSt11char_traitsIcESaIcEEESt6vectorIS6_SaIS6_EEEdeEv
FN:1099,1100,_ZNK9__gnu_cxx17__normal_iteratorIPPN7testing11EnvironmentESt6vectorIS3_SaIS3_EEEdeEv
FN:1099,1100,_ZNK9__gnu_cxx17__normal_iteratorIPPN7testing11EnvironmentEvEdeEv
FN:1099,1100,_ZNK9__gnu_cxx17__normal_iteratorIPPN7testing17TestEventListenerEvEdeEv
FN:1099,1100,_ZNK9__gnu_cxx17__normal_iteratorIPPN7testing8TestInfoESt6vectorIS3_SaIS3_EEEdeEv
FN:1099,1100,_ZNK9__gnu_cxx17__normal_iteratorIPPN7testing8TestInfoEvEdeEv
FN:1099,1100,_ZNK9__gnu_cxx17__normal_iteratorIPPN7testing8internal30ParameterizedTestSuiteInfoBaseESt6vectorIS4_SaIS4_EEEdeEv
FN:1099,1100,_ZNK9__gnu_cxx17__normal_iteratorIPPN7testing9TestSuiteESt6vectorIS3_SaIS3_EEEdeEv
FN:1099,1100,_ZNK9__gnu_cxx17__normal_iteratorIPPN7testing9TestSuiteEvEdeEv
FN:1099,1100,_ZNK9__gnu_cxx17__normal_iteratorIPcNSt7__cxx1112basic_stringIcSt11char_traitsIcESaIcEEEEdeEv
FN:1099,1100,_ZNK9__gnu_cxx17__normal_iteratorIPiSt6vectorIiSaIiEEEdeEv
FN:1099,1100,_ZNK9__gnu_cxx17__normal_iteratorIPivEdeEv
FN:1099,1100,_ZNK9__gnu_cxx17__normal_iteratorIPmSt6vectorImSaImEEEdeEv
FN:1099,1100,_ZNK9__gnu_cxx17__normal_iteratorIPmvEdeEv
FN:1104,1105,_ZNK9__gnu_cxx17__normal_iteratorIPN7testing12TestPropertyESt6vectorIS2_SaIS2_EEEptEv
FN:1109,1113,_ZN9__gnu_cxx17__normal_iteratorIPKN7testing14TestPartResultESt6vectorIS2_SaIS2_EEEppEv
FN:1109,1113,_ZN9__gnu_cxx17__normal_iteratorIPKN7testing8internal13edit_distance8EditTypeESt6vectorIS4_SaIS4_EEEppEv
FN:1109,1113,_ZN9__gnu_cxx17__normal_iteratorIPKNSt7__cxx1112basic_stringIcSt11char_traitsIcESaIcEEESt6vectorIS6_SaIS6_EEEppEv
FN:1109,1113,_ZN9__gnu_cxx17__normal_iteratorIPKPN7testing11EnvironmentESt6vectorIS3_SaIS3_EEEppEv
FN:1109,1113,_ZN9__gnu_cxx17__normal_iteratorIPKPN7testing17TestEventListenerESt6vectorIS3_SaIS3_EEEppEv
FN:1109,1113,_ZN9__gnu_cxx17__normal_iteratorIPKPN7testing8TestInfoESt6vectorIS3_SaIS3_EEEppEv
FN:1109,1113,_ZN9__gnu_cxx17__normal_iteratorIPKPN7testing9TestSuiteESt6vectorIS3_SaIS3_EEEppEv
FN:1109,1113,_ZN9__gnu_cxx17__normal_iteratorIPKcNSt7__cxx1112basic_stringIcSt11char_traitsIcESaIcEEEEppEv
FN:1109,1113,_ZN9__gnu_cxx17__normal_iteratorIPKdSt6vectorIdSaIdEEEppEv
FN:1109,1113,_ZN9__gnu_cxx17__normal_iteratorIPKiSt6vectorIiSaIiEEEppEv
FN:1109,1113,_ZN9__gnu_cxx17__normal_iteratorIPN7testing12TestPropertyESt6vectorIS2_SaIS2_EEEppEv
FN:1109,1113,_ZN9__gnu_cxx17__normal_iteratorIPN7testing8internal13edit_distance8EditTypeESt6vectorIS4_SaIS4_EEEppEv
FN:1109,1113,_ZN9__gnu_cxx17__normal_iteratorIPN7testing8internal13edit_distance8EditTypeEvEppEv
FN:1109,1113,_ZN9__gnu_cxx17__normal_iteratorIPNSt7__cxx1112basic_stringIcSt11char_traitsIcESaIcEEESt6vectorIS6_SaIS6_EEEppEv
FN:1109,1113,_ZN9__gnu_cxx17__normal_iteratorIPPN7testing11EnvironmentEvEppEv
FN:1109,1113,_ZN9__gnu_cxx17__normal_iteratorIPPN7testing17TestEventListenerEvEppEv
FN:1109,1113,_ZN9__gnu_cxx17__normal_iteratorIPPN7testing8TestInfoESt6vectorIS3_SaIS3_EEEppEv
FN:1109,1113,_ZN9__gnu_cxx17__normal_iteratorIPPN7testing8TestInfoEvEppEv
FN:1109,1113,_ZN9__gnu_cxx17__normal_iteratorIPPN7testing8internal30ParameterizedTestSuiteInfoBaseESt6vectorIS4_SaIS4_EEEppEv
FN:1109,1113,_ZN9__gnu_cxx17__normal_iteratorIPPN7testing9TestSuiteESt6vectorIS3_SaIS3_EEEppEv
FN:1109,1113,_ZN9__gnu_cxx17__normal_iteratorIPPN7testing9TestSuiteEvEppEv
FN:1109,1113,_ZN9__gnu_cxx17__normal_iteratorIPivEppEv
FN:1109,1113,_ZN9__gnu_cxx17__normal_iteratorIPmvEppEv
FN:1117,1118,_ZN9__gnu_cxx17__normal_iteratorIPcNSt7__cxx1112basic_stringIcSt11char_traitsIcESaIcEEEEppEi
FN:1123,1127,_ZN9__gnu_cxx17__normal_iteratorIPN7testing8internal13edit_distance8EditTypeESt6vectorIS4_SaIS4_EEEmmEv
FN:1123,1127,_ZN9__gnu_cxx17__normal_iteratorIPNSt7__cxx1112basic_stringIcSt11char_traitsIcESaIcEEESt6vectorIS6_SaIS6_EEEmmEv
FN:1123,1127,_ZN9__gnu_cxx17__normal_iteratorIPPN7testing11EnvironmentESt6vectorIS3_SaIS3_EEEmmEv
FN:1123,1127,_ZN9__gnu_cxx17__normal_iteratorIPPN7testing8TestInfoESt6vectorIS3_SaIS3_EEEmmEv
FN:1123,1127,_ZN9__gnu_cxx17__normal_iteratorIPPN7testing9TestSuiteESt6vectorIS3_SaIS3_EEEmmEv
FN:1123,1127,_ZN9__gnu_cxx17__normal_iteratorIPcNSt7__cxx1112basic_stringIcSt11char_traitsIcESaIcEEEEmmEv
FN:1142,1143,_ZN9__gnu_cxx17__normal_iteratorIPPN7testing8TestInfoESt6vectorIS3_SaIS3_EEEpLEl
FN:1142,1143,_ZN9__gnu_cxx17__normal_iteratorIPcNSt7__cxx1112basic_stringIcSt11char_traitsIcESaIcEEEEpLEl
FN:1147,1148,_ZNK9__gnu_cxx17__normal_iteratorIPKN7testing8internal13edit_distance8EditTypeESt6vectorIS4_SaIS4_EEEplEl
FN:1147,1148,_ZNK9__gnu_cxx17__normal_iteratorIPNSt7__cxx1112basic_stringIcSt11char_traitsIcESaIcEEESt6vectorIS6_SaIS6_EEEplEl
FN:1147,1148,_ZNK9__gnu_cxx17__normal_iteratorIPPN7testing17TestEventListenerESt6vectorIS3_SaIS3_EEEplEl
FN:1147,1148,_ZNK9__gnu_cxx17__normal_iteratorIPPN7testing8TestInfoESt6vectorIS3_SaIS3_EEEplEl
FN:1147,1148,_ZNK9__gnu_cxx17__normal_iteratorIPPN7testing9TestSuiteESt6vectorIS3_SaIS3_EEEplEl
FN:1157,1158,_ZNK9__gnu_cxx17__normal_iteratorIPNSt7__cxx1112basic_stringIcSt11char_traitsIcESaIcEEESt6vectorIS6_SaIS6_EEEmiEl
FN:1157,1158,_ZNK9__gnu_cxx17__normal_iteratorIPPN7testing8TestInfoESt6vectorIS3_SaIS3_EEEmiEl
FN:1157,1158,_ZNK9__gnu_cxx17__normal_iteratorIPiSt6vectorIiSaIiEEEmiEl
FN:1157,1158,_ZNK9__gnu_cxx17__normal_iteratorIPmSt6vectorImSaImEEEmiEl
FN:1162,1163,_ZNK9__gnu_cxx17__normal_iteratorIPKN7testing14TestPartResultESt6vectorIS2_SaIS2_EEE4baseEv
FN:1162,1163,_ZNK9__gnu_cxx17__normal_iteratorIPKN7testing8internal13edit_distance8EditTypeESt6vectorIS4_SaIS4_EEE4baseEv
FN:1162,1163,_ZNK9__gnu_cxx17__normal_iteratorIPKN7testing8internal9TraceInfoESt6vectorIS3_SaIS3_EEE4baseEv
FN:1162,1163,_ZNK9__gnu_cxx17__normal_iteratorIPKNSt7__cxx1112basic_stringIcSt11char_traitsIcESaIcEEESt6vectorIS6_SaIS6_EEE4baseEv
FN:1162,1163,_ZNK9__gnu_cxx17__normal_iteratorIPKPN7testing11EnvironmentESt6vectorIS3_SaIS3_EEE4baseEv
FN:1162,1163,_ZNK9__gnu_cxx17__normal_iteratorIPKPN7testing17TestEventListenerESt6vectorIS3_SaIS3_EEE4baseEv
FN:1162,1163,_ZNK9__gnu_cxx17__normal_iteratorIPKPN7testing8TestInfoESt6vectorIS3_SaIS3_EEE4baseEv
FN:1162,1163,_ZNK9__gnu_cxx17__normal_iteratorIPKPN7testing9TestSuiteESt6vectorIS3_SaIS3_EEE4baseEv
FN:1162,1163,_ZNK9__gnu_cxx17__normal_iteratorIPKcNSt7__cxx1112basic_stringIcSt11char_traitsIcESaIcEEEE4baseEv
FN:1162,1163,_ZNK9__gnu_cxx17__normal_iteratorIPKdSt6vectorIdSaIdEEE4baseEv
FN:1162,1163,_ZNK9__gnu_cxx17__normal_iteratorIPKiSt6vectorIiSaIiEEE4baseEv
FN:1162,1163,_ZNK9__gnu_cxx17__normal_iteratorIPN7testing12TestPropertyESt6vectorIS2_SaIS2_EEE4baseEv
FN:1162,1163,_ZNK9__gnu_cxx17__normal_iteratorIPN7testing14TestPartResultESt6vectorIS2_SaIS2_EEE4baseEv
FN:1162,1163,_ZNK9__gnu_cxx17__normal_iteratorIPN7testing8internal13edit_distance8EditTypeESt6vectorIS4_SaIS4_EEE4baseEv
FN:1162,1163,_ZNK9__gnu_cxx17__normal_iteratorIPN7testing8internal13edit_distance8EditTypeEvE4baseEv
FN:1162,1163,_ZNK9__gnu_cxx17__normal_iteratorIPN7testing8internal9TraceInfoESt6vectorIS3_SaIS3_EEE4baseEv
FN:1162,1163,_ZNK9__gnu_cxx17__normal_iteratorIPNSt7__cxx1112basic_stringIcSt11char_traitsIcESaIcEEESt6vectorIS6_SaIS6_EEE4baseEv
FN:1162,1163,_ZNK9__gnu_cxx17__normal_iteratorIPPN7testing11EnvironmentESt6vectorIS3_SaIS3_EEE4baseEv
FN:1162,1163,_ZNK9__gnu_cxx17__normal_iteratorIPPN7testing11EnvironmentEvE4baseEv
FN:1162,1163,_ZNK9__gnu_cxx17__normal_iteratorIPPN7testing17TestEventListenerESt6vectorIS3_SaIS3_EEE4baseEv
FN:1162,1163,_ZNK9__gnu_cxx17__normal_iteratorIPPN7testing17TestEventListenerEvE4baseEv
FN:1162,1163,_ZNK9__gnu_cxx17__normal_iteratorIPPN7testing8TestInfoESt6vectorIS3_SaIS3_EEE4baseEv
FN:1162,1163,_ZNK9__gnu_cxx17__normal_iteratorIPPN7testing8TestInfoEvE4baseEv
FN:1162,1163,_ZNK9__gnu_cxx17__normal_iteratorIPPN7testing8internal30ParameterizedTestSuiteInfoBaseESt6vectorIS4_SaIS4_EEE4baseEv
FN:1162,1163,_ZNK9__gnu_cxx17__normal_iteratorIPPN7testing9TestSuiteESt6vectorIS3_SaIS3_EEE4baseEv
FN:1162,1163,_ZNK9__gnu_cxx17__normal_iteratorIPPN7testing9TestSuiteEvE4baseEv
FN:1162,1163,_ZNK9__gnu_cxx17__normal_iteratorIPcNSt7__cxx1112basic_stringIcSt11char_traitsIcESaIcEEEE4baseEv
FN:1162,1163,_ZNK9__gnu_cxx17__normal_iteratorIPiSt6vectorIiSaIiEEE4baseEv
FN:1162,1163,_ZNK9__gnu_cxx17__normal_iteratorIPivE4baseEv
FN:1162,1163,_ZNK9__gnu_cxx17__normal_iteratorIPmSt6vectorImSaImEEE4baseEv
FN:1162,1163,_ZNK9__gnu_cxx17__normal_iteratorIPmvE4baseEv
FN:1178,1184,_ZN9__gnu_cxxeqIPKNSt7__cxx1112basic_stringIcSt11char_traitsIcESaIcEEEPS6_St6vectorIS6_SaIS6_EEEEbRKNS_17__normal_iteratorIT_T1_EERKNSD_IT0_SF_EE
FN:1178,1184,_ZN9__gnu_cxxeqIPKPN7testing9TestSuiteEPS3_St6vectorIS3_SaIS3_EEEEbRKNS_17__normal_iteratorIT_T1_EERKNSA_IT0_SC_EE
FN:1178,1184,_ZN9__gnu_cxxeqIPKcPcNSt7__cxx1112basic_stringIcSt11char_traitsIcESaIcEEEEEbRKNS_17__normal_iteratorIT_T1_EERKNSA_IT0_SC_EE
FN:1197,1203,_ZN9__gnu_cxxeqIPKN7testing14TestPartResultESt6vectorIS2_SaIS2_EEEEbRKNS_17__normal_iteratorIT_T0_EESD_
FN:1197,1203,_ZN9__gnu_cxxeqIPKN7testing8internal13edit_distance8EditTypeESt6vectorIS4_SaIS4_EEEEbRKNS_17__normal_iteratorIT_T0_EESF_
FN:1197,1203,_ZN9__gnu_cxxeqIPKN7testing8internal9TraceInfoESt6vectorIS3_SaIS3_EEEEbRKNS_17__normal_iteratorIT_T0_EESE_
FN:1197,1203,_ZN9__gnu_cxxeqIPKNSt7__cxx1112basic_stringIcSt11char_traitsIcESaIcEEESt6vectorIS6_SaIS6_EEEEbRKNS_17__normal_iteratorIT_T0_EESH_
FN:1197,1203,_ZN9__gnu_cxxeqIPKPN7testing11EnvironmentESt6vectorIS3_SaIS3_EEEEbRKNS_17__normal_iteratorIT_T0_EESE_
FN:1197,1203,_ZN9__gnu_cxxeqIPKPN7testing17TestEventListenerESt6vectorIS3_SaIS3_EEEEbRKNS_17__normal_iteratorIT_T0_EESE_
FN:1197,1203,_ZN9__gnu_cxxeqIPKPN7testing8TestInfoESt6vectorIS3_SaIS3_EEEEbRKNS_17__normal_iteratorIT_T0_EESE_
FN:1197,1203,_ZN9__gnu_cxxeqIPKPN7testing9TestSuiteESt6vectorIS3_SaIS3_EEEEbRKNS_17__normal_iteratorIT_T0_EESE_
FN:1197,1203,_ZN9__gnu_cxxeqIPKcNSt7__cxx1112basic_stringIcSt11char_traitsIcESaIcEEEEEbRKNS_17__normal_iteratorIT_T0_EESE_
FN:1197,1203,_ZN9__gnu_cxxeqIPKdSt6vectorIdSaIdEEEEbRKNS_17__normal_iteratorIT_T0_EESB_
FN:1197,1203,_ZN9__gnu_cxxeqIPKiSt6vectorIiSaIiEEEEbRKNS_17__normal_iteratorIT_T0_EESB_
FN:1197,1203,_ZN9__gnu_cxxeqIPN7testing12TestPropertyESt6vectorIS2_SaIS2_EEEEbRKNS_17__normal_iteratorIT_T0_EESC_
FN:1197,1203,_ZN9__gnu_cxxeqIPN7testing8internal13edit_distance8EditTypeESt6vectorIS4_SaIS4_EEEEbRKNS_17__normal_iteratorIT_T0_EESE_
FN:1197,1203,_ZN9__gnu_cxxeqIPNSt7__cxx1112basic_stringIcSt11char_traitsIcESaIcEEESt6vectorIS6_SaIS6_EEEEbRKNS_17__normal_iteratorIT_T0_EESG_
FN:1197,1203,_ZN9__gnu_cxxeqIPPN7testing11EnvironmentESt6vectorIS3_SaIS3_EEEEbRKNS_17__normal_iteratorIT_T0_EESD_
FN:1197,1203,_ZN9__gnu_cxxeqIPPN7testing17TestEventListenerESt6vectorIS3_SaIS3_EEEEbRKNS_17__normal_iteratorIT_T0_EESD_
FN:1197,1203,_ZN9__gnu_cxxeqIPPN7testing8TestInfoESt6vectorIS3_SaIS3_EEEEbRKNS_17__normal_iteratorIT_T0_EESD_
FN:1197,1203,_ZN9__gnu_cxxeqIPPN7testing8internal30ParameterizedTestSuiteInfoBaseESt6vectorIS4_SaIS4_EEEEbRKNS_17__normal_iteratorIT_T0_EESE_
FN:1197,1203,_ZN9__gnu_cxxeqIPPN7testing9TestSuiteESt6vectorIS3_SaIS3_EEEEbRKNS_17__normal_iteratorIT_T0_EESD_
FN:1197,1203,_ZN9__gnu_cxxeqIPcNSt7__cxx1112basic_stringIcSt11char_traitsIcESaIcEEEEEbRKNS_17__normal_iteratorIT_T0_EESD_
FN:1208,1211,_ZN9__gnu_cxxssIPN7testing8internal13edit_distance8EditTypeESt6vectorIS4_SaIS4_EEEEDTclL_ZNSt8__detail11__synth3wayEEcl7declvalIRT_EEcl7declvalISB_EEEERKNS_17__normal_iteratorISA_T0_EESH_
FN:1321,1329,_ZN9__gnu_cxxmiIPKPN7testing9TestSuiteEPS3_St6vectorIS3_SaIS3_EEEEDTmicldtfp_4baseEcldtfp0_4baseEERKNS_17__normal_iteratorIT_T1_EERKNSB_IT0_SD_EE
FN:1321,1329,_ZN9__gnu_cxxmiIPKcPcNSt7__cxx1112basic_stringIcSt11char_traitsIcESaIcEEEEEDTmicldtfp_4baseEcldtfp0_4baseEERKNS_17__normal_iteratorIT_T1_EERKNSB_IT0_SD_EE
FN:1334,1337,_ZN9__gnu_cxxmiIPKN7testing8internal13edit_distance8EditTypeESt6vectorIS4_SaIS4_EEEENS_17__normal_iteratorIT_T0_E15difference_typeERKSD_SG_
FN:1334,1337,_ZN9__gnu_cxxmiIPKNSt7__cxx1112basic_stringIcSt11char_traitsIcESaIcEEESt6vectorIS6_SaIS6_EEEENS_17__normal_iteratorIT_T0_E15difference_typeERKSF_SI_
FN:1334,1337,_ZN9__gnu_cxxmiIPKPN7testing17TestEventListenerESt6vectorIS3_SaIS3_EEEENS_17__normal_iteratorIT_T0_E15difference_typeERKSC_SF_
FN:1334,1337,_ZN9__gnu_cxxmiIPKPN7testing9TestSuiteESt6vectorIS3_SaIS3_EEEENS_17__normal_iteratorIT_T0_E15difference_typeERKSC_SF_
FN:1334,1337,_ZN9__gnu_cxxmiIPKcNSt7__cxx1112basic_stringIcSt11char_traitsIcESaIcEEEEENS_17__normal_iteratorIT_T0_E15difference_typeERKSC_SF_
FN:1334,1337,_ZN9__gnu_cxxmiIPN7testing12TestPropertyESt6vectorIS2_SaIS2_EEEENS_17__normal_iteratorIT_T0_E15difference_typeERKSA_SD_
FN:1334,1337,_ZN9__gnu_cxxmiIPN7testing14TestPartResultESt6vectorIS2_SaIS2_EEEENS_17__normal_iteratorIT_T0_E15difference_typeERKSA_SD_
FN:1334,1337,_ZN9__gnu_cxxmiIPN7testing8internal13edit_distance8EditTypeESt6vectorIS4_SaIS4_EEEENS_17__normal_iteratorIT_T0_E15difference_typeERKSC_SF_
FN:1334,1337,_ZN9__gnu_cxxmiIPN7testing8internal9TraceInfoESt6vectorIS3_SaIS3_EEEENS_17__normal_iteratorIT_T0_E15difference_typeERKSB_SE_
FN:1334,1337,_ZN9__gnu_cxxmiIPNSt7__cxx1112basic_stringIcSt11char_traitsIcESaIcEEESt6vectorIS6_SaIS6_EEEENS_17__normal_iteratorIT_T0_E15difference_typeERKSE_SH_
FN:1334,1337,_ZN9__gnu_cxxmiIPPN7testing11EnvironmentESt6vectorIS3_SaIS3_EEEENS_17__normal_iteratorIT_T0_E15difference_typeERKSB_SE_
FN:1334,1337,_ZN9__gnu_cxxmiIPPN7testing17TestEventListenerESt6vectorIS3_SaIS3_EEEENS_17__normal_iteratorIT_T0_E15difference_typeERKSB_SE_
FN:1334,1337,_ZN9__gnu_cxxmiIPPN7testing8TestInfoESt6vectorIS3_SaIS3_EEEENS_17__normal_iteratorIT_T0_E15difference_typeERKSB_SE_
FN:1334,1337,_ZN9__gnu_cxxmiIPPN7testing9TestSuiteESt6vectorIS3_SaIS3_EEEENS_17__normal_iteratorIT_T0_E15difference_typeERKSB_SE_
FN:1334,1337,_ZN9__gnu_cxxmiIPiSt6vectorIiSaIiEEEENS_17__normal_iteratorIT_T0_E15difference_typeERKS8_SB_
FN:1334,1337,_ZN9__gnu_cxxmiIPmSt6vectorImSaImEEEENS_17__normal_iteratorIT_T0_E15difference_typeERKS8_SB_
FN:1357,1359,_ZSt12__niter_baseIPKN7testing8internal13edit_distance8EditTypeESt6vectorIS3_SaIS3_EEET_N9__gnu_cxx17__normal_iteratorIS9_T0_EE
FN:1357,1359,_ZSt12__niter_baseIPKdSt6vectorIdSaIdEEET_N9__gnu_cxx17__normal_iteratorIS5_T0_EE
FN:1357,1359,_ZSt12__niter_baseIPKiSt6vectorIiSaIiEEET_N9__gnu_cxx17__normal_iteratorIS5_T0_EE
FN:1357,1359,_ZSt12__niter_baseIPNSt7__cxx1112basic_stringIcSt11char_traitsIcESaIcEEESt6vectorIS5_SaIS5_EEET_N9__gnu_cxx17__normal_iteratorISA_T0_EE
FN:1357,1359,_ZSt12__niter_baseIPPN7testing17TestEventListenerESt6vectorIS2_SaIS2_EEET_N9__gnu_cxx17__normal_iteratorIS7_T0_EE
FN:1357,1359,_ZSt12__niter_baseIPPN7testing8TestInfoESt6vectorIS2_SaIS2_EEET_N9__gnu_cxx17__normal_iteratorIS7_T0_EE
FN:195,198,_ZNSt16reverse_iteratorIN9__gnu_cxx17__normal_iteratorIPPN7testing11EnvironmentESt6vectorIS4_SaIS4_EEEEEC2ES9_
FN:195,198,_ZNSt16reverse_iteratorIN9__gnu_cxx17__normal_iteratorIPPN7testing9TestSuiteESt6vectorIS4_SaIS4_EEEEEC2ES9_
FN:204,207,_ZNSt16reverse_iteratorIN9__gnu_cxx17__normal_iteratorIPPN7testing9TestSuiteESt6vectorIS4_SaIS4_EEEEEC2ERKSA_
FN:248,250,_ZNKSt16reverse_iteratorIN9__gnu_cxx17__normal_iteratorIPPN7testing11EnvironmentESt6vectorIS4_SaIS4_EEEEE4baseEv
FN:248,250,_ZNKSt16reverse_iteratorIN9__gnu_cxx17__normal_iteratorIPPN7testing9TestSuiteESt6vectorIS4_SaIS4_EEEEE4baseEv
FN:264,268,_ZNKSt16reverse_iteratorIN9__gnu_cxx17__normal_iteratorIPPN7testing11EnvironmentESt6vectorIS4_SaIS4_EEEEEdeEv
FN:264,268,_ZNKSt16reverse_iteratorIN9__gnu_cxx17__normal_iteratorIPPN7testing9TestSuiteESt6vectorIS4_SaIS4_EEEEEdeEv
FN:296,300,_ZNSt16reverse_iteratorIN9__gnu_cxx17__normal_iteratorIPPN7testing11EnvironmentESt6vectorIS4_SaIS4_EEEEEppEv
FN:296,300,_ZNSt16reverse_iteratorIN9__gnu_cxx17__normal_iteratorIPPN7testing9TestSuiteESt6vectorIS4_SaIS4_EEEEEppEv
FN:593,596,_ZSteqIN9__gnu_cxx17__normal_iteratorIPPN7testing11EnvironmentESt6vectorIS4_SaIS4_EEEEEbRKSt16reverse_iteratorIT_ESE_
FN:593,596,_ZSteqIN9__gnu_cxx17__normal_iteratorIPPN7testing9TestSuiteESt6vectorIS4_SaIS4_EEEEEbRKSt16reverse_iteratorIT_ESE_
FN:625,628,_ZStmiIN9__gnu_cxx17__normal_iteratorIPPN7testing9TestSuiteESt6vectorIS4_SaIS4_EEEES9_EDTmicldtfp0_4baseEcldtfp_4baseEERKSt16reverse_iteratorIT_ERKSB_IT0_E
FN:929,930,_ZNSt15insert_iteratorISt13unordered_setINSt7__cxx1112basic_stringIcSt11char_traitsIcESaIcEEESt4hashIS6_ESt8equal_toIS6_ESaIS6_EEEC2ERSC_NSt8__detail14_Node_iteratorIS6_Lb1ELb1EEE
FN:929,930,_ZNSt15insert_iteratorISt6vectorINSt7__cxx1112basic_stringIcSt11char_traitsIcESaIcEEESaIS6_EEEC2ERS8_N9__gnu_cxx17__normal_iteratorIPS6_S8_EE
FN:975,980,_ZNSt15insert_iteratorISt13unordered_setINSt7__cxx1112basic_stringIcSt11char_traitsIcESaIcEEESt4hashIS6_ESt8equal_toIS6_ESaIS6_EEEaSEOS6_
FN:975,980,_ZNSt15insert_iteratorISt6vectorINSt7__cxx1112basic_stringIcSt11char_traitsIcESaIcEEESaIS6_EEEaSEOS6_
FN:986,987,_ZNSt15insert_iteratorISt13unordered_setINSt7__cxx1112basic_stringIcSt11char_traitsIcESaIcEEESt4hashIS6_ESt8equal_toIS6_ESaIS6_EEEdeEv
FN:986,987,_ZNSt15insert_iteratorISt6vectorINSt7__cxx1112basic_stringIcSt11char_traitsIcESaIcEEESaIS6_EEEdeEv
FN:992,993,_ZNSt15insert_iteratorISt13unordered_setINSt7__cxx1112basic_stringIcSt11char_traitsIcESaIcEEESt4hashIS6_ESt8equal_toIS6_ESaIS6_EEEppEv
FN:992,993,_ZNSt15insert_iteratorISt6vectorINSt7__cxx1112basic_stringIcSt11char_traitsIcESaIcEEESaIS6_EEEppEv
FNDA:3,_ZSt8inserterISt13unordered_setINSt7__cxx1112basic_stringIcSt11char_traitsIcESaIcEEESt4hashIS6_ESt8equal_toIS6_ESaIS6_EEESt15insert_iteratorIT_ERSE_DTcl7__begincl7declvalISG_EEEE
FNDA:3,_ZSt8inserterISt6vectorINSt7__cxx1112basic_stringIcSt11char_traitsIcESaIcEEESaIS6_EEESt15insert_iteratorIT_ERSA_DTcl7__begincl7declvalISC_EEEE
FNDA:0,_ZN9__gnu_cxx17__normal_iteratorIPKPN7testing9TestSuiteESt6vectorIS3_SaIS3_EEEC2Ev
FNDA:244,_ZN9__gnu_cxx17__normal_iteratorIPKN7testing14TestPartResultESt6vectorIS2_SaIS2_EEEC2ERKS4_
FNDA:0,_ZN9__gnu_cxx17__normal_iteratorIPKN7testing8internal13edit_distance8EditTypeESt6vectorIS4_SaIS4_EEEC1ERKS6_
FNDA:0,_ZN9__gnu_cxx17__normal_iteratorIPKN7testing8internal9TraceInfoESt6vectorIS3_SaIS3_EEEC2ERKS5_
FNDA:156,_ZN9__gnu_cxx17__normal_iteratorIPKNSt7__cxx1112basic_stringIcSt11char_traitsIcESaIcEEESt6vectorIS6_SaIS6_EEEC2ERKS8_
FNDA:4,_ZN9__gnu_cxx17__normal_iteratorIPKPN7testing11EnvironmentESt6vectorIS3_SaIS3_EEEC2ERKS5_
FNDA:2,_ZN9__gnu_cxx17__normal_iteratorIPKPN7testing17TestEventListenerESt6vectorIS3_SaIS3_EEEC2ERKS5_
FNDA:175,_ZN9__gnu_cxx17__normal_iteratorIPKPN7testing8TestInfoESt6vectorIS3_SaIS3_EEEC2ERKS5_
FNDA:16,_ZN9__gnu_cxx17__normal_iteratorIPKPN7testing9TestSuiteESt6vectorIS3_SaIS3_EEEC2ERKS5_
FNDA:45,_ZN9__gnu_cxx17__normal_iteratorIPKcNSt7__cxx1112basic_stringIcSt11char_traitsIcESaIcEEEEC2ERKS2_
FNDA:0,_ZN9__gnu_cxx17__normal_iteratorIPKdSt6vectorIdSaIdEEEC2ERKS2_
FNDA:3,_ZN9__gnu_cxx17__normal_iteratorIPKiSt6vectorIiSaIiEEEC2ERKS2_
FNDA:0,_ZN9__gnu_cxx17__normal_iteratorIPN7testing12TestPropertyESt6vectorIS2_SaIS2_EEEC2ERKS3_
FNDA:0,_ZN9__gnu_cxx17__normal_iteratorIPN7testing14TestPartResultESt6vectorIS2_SaIS2_EEEC2ERKS3_
FNDA:0,_ZN9__gnu_cxx17__normal_iteratorIPN7testing8internal13edit_distance8EditTypeESt6vectorIS4_SaIS4_EEEC2ERKS5_
FNDA:0,_ZN9__gnu_cxx17__normal_iteratorIPN7testing8internal13edit_distance8EditTypeEvEC2ERKS5_
FNDA:0,_ZN9__gnu_cxx17__normal_iteratorIPN7testing8internal9TraceInfoESt6vectorIS3_SaIS3_EEEC2ERKS4_
FNDA:52,_ZN9__gnu_cxx17__normal_iteratorIPNSt7__cxx1112basic_stringIcSt11char_traitsIcESaIcEEESt6vectorIS6_SaIS6_EEEC1ERKS7_
FNDA:2,_ZN9__gnu_cxx17__normal_iteratorIPPN7testing11EnvironmentESt6vectorIS3_SaIS3_EEEC2ERKS4_
FNDA:0,_ZN9__gnu_cxx17__normal_iteratorIPPN7testing11EnvironmentEvEC2ERKS4_
FNDA:2,_ZN9__gnu_cxx17__normal_iteratorIPPN7testing17TestEventListenerESt6vectorIS3_SaIS3_EEEC2ERKS4_
FNDA:0,_ZN9__gnu_cxx17__normal_iteratorIPPN7testing17TestEventListenerEvEC2ERKS4_
FNDA:29,_ZN9__gnu_cxx17__normal_iteratorIPPN7testing8TestInfoESt6vectorIS3_SaIS3_EEEC2ERKS4_
FNDA:0,_ZN9__gnu_cxx17__normal_iteratorIPPN7testing8TestInfoEvEC2ERKS4_
FNDA:4,_ZN9__gnu_cxx17__normal_iteratorIPPN7testing8internal30ParameterizedTestSuiteInfoBaseESt6vectorIS4_SaIS4_EEEC2ERKS5_
FNDA:55,_ZN9__gnu_cxx17__normal_iteratorIPPN7testing9TestSuiteESt6vectorIS3_SaIS3_EEEC2ERKS4_
FNDA:0,_ZN9__gnu_cxx17__normal_iteratorIPPN7testing9TestSuiteEvEC2ERKS4_
FNDA:119,_ZN9__gnu_cxx17__normal_iteratorIPcNSt7__cxx1112basic_stringIcSt11char_traitsIcESaIcEEEEC2ERKS1_
FNDA:56,_ZN9__gnu_cxx17__normal_iteratorIPiSt6vectorIiSaIiEEEC2ERKS1_
FNDA:0,_ZN9__gnu_cxx17__normal_iteratorIPivEC2ERKS1_
FNDA:0,_ZN9__gnu_cxx17__normal_iteratorIPmSt6vectorImSaImEEEC2ERKS1_
FNDA:0,_ZN9__gnu_cxx17__normal_iteratorIPmvEC2ERKS1_
FNDA:5,_ZN9__gnu_cxx17__normal_iteratorIPKNSt7__cxx1112basic_stringIcSt11char_traitsIcESaIcEEESt6vectorIS6_SaIS6_EEEC2IPS6_vEERKNS0_IT_SB_EE
FNDA:0,_ZN9__gnu_cxx17__normal_iteratorIPKPN7testing17TestEventListenerESt6vectorIS3_SaIS3_EEEC2IPS3_vEERKNS0_IT_S8_EE
FNDA:0,_ZN9__gnu_cxx17__normal_iteratorIPKPN7testing9TestSuiteESt6vectorIS3_SaIS3_EEEC2IPS3_vEERKNS0_IT_S8_EE
FNDA:2,_ZN9__gnu_cxx17__normal_iteratorIPKcNSt7__cxx1112basic_stringIcSt11char_traitsIcESaIcEEEEC2IPcvEERKNS0_IT_S8_EE
FNDA:0,_ZNK9__gnu_cxx17__normal_iteratorIPKN7testing14TestPartResultESt6vectorIS2_SaIS2_EEEdeEv
FNDA:0,_ZNK9__gnu_cxx17__normal_iteratorIPKN7testing8internal13edit_distance8EditTypeESt6vectorIS4_SaIS4_EEEdeEv
FNDA:88,_ZNK9__gnu_cxx17__normal_iteratorIPKNSt7__cxx1112basic_stringIcSt11char_traitsIcESaIcEEESt6vectorIS6_SaIS6_EEEdeEv
FNDA:0,_ZNK9__gnu_cxx17__normal_iteratorIPKPN7testing11EnvironmentESt6vectorIS3_SaIS3_EEEdeEv
FNDA:1,_ZNK9__gnu_cxx17__normal_iteratorIPKPN7testing17TestEventListenerESt6vectorIS3_SaIS3_EEEdeEv
FNDA:187,_ZNK9__gnu_cxx17__normal_iteratorIPKPN7testing8TestInfoESt6vectorIS3_SaIS3_EEEdeEv
FNDA:6,_ZNK9__gnu_cxx17__normal_iteratorIPKPN7testing9TestSuiteESt6vectorIS3_SaIS3_EEEdeEv
FNDA:66,_ZNK9__gnu_cxx17__normal_iteratorIPKcNSt7__cxx1112basic_stringIcSt11char_traitsIcESaIcEEEEdeEv
FNDA:0,_ZNK9__gnu_cxx17__normal_iteratorIPKdSt6vectorIdSaIdEEEdeEv
FNDA:0,_ZNK9__gnu_cxx17__normal_iteratorIPKiSt6vectorIiSaIiEEEdeEv
FNDA:0,_ZNK9__gnu_cxx17__normal_iteratorIPN7testing12TestPropertyESt6vectorIS2_SaIS2_EEEdeEv
FNDA:0,_ZNK9__gnu_cxx17__normal_iteratorIPN7testing8internal13edit_distance8EditTypeESt6vectorIS4_SaIS4_EEEdeEv
FNDA:0,_ZNK9__gnu_cxx17__normal_iteratorIPN7testing8internal13edit_distance8EditTypeEvEdeEv
FNDA:13,_ZNK9__gnu_cxx17__normal_iteratorIPNSt7__cxx1112basic_stringIcSt11char_traitsIcESaIcEEESt6vectorIS6_SaIS6_EEEdeEv
FNDA:0,_ZNK9__gnu_cxx17__normal_iteratorIPPN7testing11EnvironmentESt6vectorIS3_SaIS3_EEEdeEv
FNDA:0,_ZNK9__gnu_cxx17__normal_iteratorIPPN7testing11EnvironmentEvEdeEv
FNDA:0,_ZNK9__gnu_cxx17__normal_iteratorIPPN7testing17TestEventListenerEvEdeEv
FNDA:123,_ZNK9__gnu_cxx17__normal_iteratorIPPN7testing8TestInfoESt6vectorIS3_SaIS3_EEEdeEv
FNDA:0,_ZNK9__gnu_cxx17__normal_iteratorIPPN7testing8TestInfoEvEdeEv
FNDA:0,_ZNK9__gnu_cxx17__normal_iteratorIPPN7testing8internal30ParameterizedTestSuiteInfoBaseESt6vectorIS4_SaIS4_EEEdeEv
FNDA:33,_ZNK9__gnu_cxx17__normal_iteratorIPPN7testing9TestSuiteESt6vectorIS3_SaIS3_EEEdeEv
FNDA:0,_ZNK9__gnu_cxx17__normal_iteratorIPPN7testing9TestSuiteEvEdeEv
FNDA:60,_ZNK9__gnu_cxx17__normal_iteratorIPcNSt7__cxx1112basic_stringIcSt11char_traitsIcESaIcEEEEdeEv
FNDA:18,_ZNK9__gnu_cxx17__normal_iteratorIPiSt6vectorIiSaIiEEEdeEv
FNDA:0,_ZNK9__gnu_cxx17__normal_iteratorIPivEdeEv
FNDA:0,_ZNK9__gnu_cxx17__normal_iteratorIPmSt6vectorImSaImEEEdeEv
FNDA:0,_ZNK9__gnu_cxx17__normal_iteratorIPmvEdeEv
FNDA:0,_ZNK9__gnu_cxx17__normal_iteratorIPN7testing12TestPropertyESt6vectorIS2_SaIS2_EEEptEv
FNDA:0,_ZN9__gnu_cxx17__normal_iteratorIPKN7testing14TestPartResultESt6vectorIS2_SaIS2_EEEppEv
FNDA:0,_ZN9__gnu_cxx17__normal_iteratorIPKN7testing8internal13edit_distance8EditTypeESt6vectorIS4_SaIS4_EEEppEv
FNDA:71,_ZN9__gnu_cxx17__normal_iteratorIPKNSt7__cxx1112basic_stringIcSt11char_traitsIcESaIcEEESt6vectorIS6_SaIS6_EEEppEv
FNDA:0,_ZN9__gnu_cxx17__normal_iteratorIPKPN7testing11EnvironmentESt6vectorIS3_SaIS3_EEEppEv
FNDA:1,_ZN9__gnu_cxx17__normal_iteratorIPKPN7testing17TestEventListenerESt6vectorIS3_SaIS3_EEEppEv
FNDA:187,_ZN9__gnu_cxx17__normal_iteratorIPKPN7testing8TestInfoESt6vectorIS3_SaIS3_EEEppEv
FNDA:6,_ZN9__gnu_cxx17__normal_iteratorIPKPN7testing9TestSuiteESt6vectorIS3_SaIS3_EEEppEv
FNDA:61,_ZN9__gnu_cxx17__normal_iteratorIPKcNSt7__cxx1112basic_stringIcSt11char_traitsIcESaIcEEEEppEv
FNDA:0,_ZN9__gnu_cxx17__normal_iteratorIPKdSt6vectorIdSaIdEEEppEv
FNDA:0,_ZN9__gnu_cxx17__normal_iteratorIPKiSt6vectorIiSaIiEEEppEv
FNDA:0,_ZN9__gnu_cxx17__normal_iteratorIPN7testing12TestPropertyESt6vectorIS2_SaIS2_EEEppEv
FNDA:0,_ZN9__gnu_cxx17__normal_iteratorIPN7testing8internal13edit_distance8EditTypeESt6vectorIS4_SaIS4_EEEppEv
FNDA:0,_ZN9__gnu_cxx17__normal_iteratorIPN7testing8internal13edit_distance8EditTypeEvEppEv
FNDA:10,_ZN9__gnu_cxx17__normal_iteratorIPNSt7__cxx1112basic_stringIcSt11char_traitsIcESaIcEEESt6vectorIS6_SaIS6_EEEppEv
FNDA:0,_ZN9__gnu_cxx17__normal_iteratorIPPN7testing11EnvironmentEvEppEv
FNDA:0,_ZN9__gnu_cxx17__normal_iteratorIPPN7testing17TestEventListenerEvEppEv
FNDA:27,_ZN9__gnu_cxx17__normal_iteratorIPPN7testing8TestInfoESt6vectorIS3_SaIS3_EEEppEv
FNDA:0,_ZN9__gnu_cxx17__normal_iteratorIPPN7testing8TestInfoEvEppEv
FNDA:0,_ZN9__gnu_cxx17__normal_iteratorIPPN7testing8internal30ParameterizedTestSuiteInfoBaseESt6vectorIS4_SaIS4_EEEppEv
FNDA:1,_ZN9__gnu_cxx17__normal_iteratorIPPN7testing9TestSuiteESt6vectorIS3_SaIS3_EEEppEv
FNDA:0,_ZN9__gnu_cxx17__normal_iteratorIPPN7testing9TestSuiteEvEppEv
FNDA:0,_ZN9__gnu_cxx17__normal_iteratorIPivEppEv
FNDA:0,_ZN9__gnu_cxx17__normal_iteratorIPmvEppEv
FNDA:52,_ZN9__gnu_cxx17__normal_iteratorIPcNSt7__cxx1112basic_stringIcSt11char_traitsIcESaIcEEEEppEi
FNDA:0,_ZN9__gnu_cxx17__normal_iteratorIPN7testing8internal13edit_distance8EditTypeESt6vectorIS4_SaIS4_EEEmmEv
FNDA:0,_ZN9__gnu_cxx17__normal_iteratorIPNSt7__cxx1112basic_stringIcSt11char_traitsIcESaIcEEESt6vectorIS6_SaIS6_EEEmmEv
FNDA:0,_ZN9__gnu_cxx17__normal_iteratorIPPN7testing11EnvironmentESt6vectorIS3_SaIS3_EEEmmEv
FNDA:22,_ZN9__gnu_cxx17__normal_iteratorIPPN7testing8TestInfoESt6vectorIS3_SaIS3_EEEmmEv
FNDA:32,_ZN9__gnu_cxx17__normal_iteratorIPPN7testing9TestSuiteESt6vectorIS3_SaIS3_EEEmmEv
FNDA:0,_ZN9__gnu_cxx17__normal_iteratorIPcNSt7__cxx1112basic_stringIcSt11char_traitsIcESaIcEEEEmmEv
FNDA:2,_ZN9__gnu_cxx17__normal_iteratorIPPN7testing8TestInfoESt6vectorIS3_SaIS3_EEEpLEl
FNDA:8,_ZN9__gnu_cxx17__normal_iteratorIPcNSt7__cxx1112basic_stringIcSt11char_traitsIcESaIcEEEEpLEl
FNDA:0,_ZNK9__gnu_cxx17__normal_iteratorIPKN7testing8internal13edit_distance8EditTypeESt6vectorIS4_SaIS4_EEEplEl
FNDA:0,_ZNK9__gnu_cxx17__normal_iteratorIPNSt7__cxx1112basic_stringIcSt11char_traitsIcESaIcEEESt6vectorIS6_SaIS6_EEEplEl
FNDA:0,_ZNK9__gnu_cxx17__normal_iteratorIPPN7testing17TestEventListenerESt6vectorIS3_SaIS3_EEEplEl
FNDA:15,_ZNK9__gnu_cxx17__normal_iteratorIPPN7testing8TestInfoESt6vectorIS3_SaIS3_EEEplEl
FNDA:0,_ZNK9__gnu_cxx17__normal_iteratorIPPN7testing9TestSuiteESt6vectorIS3_SaIS3_EEEplEl
FNDA:7,_ZNK9__gnu_cxx17__normal_iteratorIPNSt7__cxx1112basic_stringIcSt11char_traitsIcESaIcEEESt6vectorIS6_SaIS6_EEEmiEl
FNDA:0,_ZNK9__gnu_cxx17__normal_iteratorIPPN7testing8TestInfoESt6vectorIS3_SaIS3_EEEmiEl
FNDA:18,_ZNK9__gnu_cxx17__normal_iteratorIPiSt6vectorIiSaIiEEEmiEl
FNDA:0,_ZNK9__gnu_cxx17__normal_iteratorIPmSt6vectorImSaImEEEmiEl
FNDA:244,_ZNK9__gnu_cxx17__normal_iteratorIPKN7testing14TestPartResultESt6vectorIS2_SaIS2_EEE4baseEv
FNDA:0,_ZNK9__gnu_cxx17__normal_iteratorIPKN7testing8internal13edit_distance8EditTypeESt6vectorIS4_SaIS4_EEE4baseEv
FNDA:0,_ZNK9__gnu_cxx17__normal_iteratorIPKN7testing8internal9TraceInfoESt6vectorIS3_SaIS3_EEE4baseEv
FNDA:444,_ZNK9__gnu_cxx17__normal_iteratorIPKNSt7__cxx1112basic_stringIcSt11char_traitsIcESaIcEEESt6vectorIS6_SaIS6_EEE4baseEv
FNDA:4,_ZNK9__gnu_cxx17__normal_iteratorIPKPN7testing11EnvironmentESt6vectorIS3_SaIS3_EEE4baseEv
FNDA:4,_ZNK9__gnu_cxx17__normal_iteratorIPKPN7testing17TestEventListenerESt6vectorIS3_SaIS3_EEE4baseEv
FNDA:396,_ZNK9__gnu_cxx17__normal_iteratorIPKPN7testing8TestInfoESt6vectorIS3_SaIS3_EEE4baseEv
FNDA:24,_ZNK9__gnu_cxx17__normal_iteratorIPKPN7testing9TestSuiteESt6vectorIS3_SaIS3_EEE4baseEv
FNDA:147,_ZNK9__gnu_cxx17__normal_iteratorIPKcNSt7__cxx1112basic_stringIcSt11char_traitsIcESaIcEEEE4baseEv
FNDA:0,_ZNK9__gnu_cxx17__normal_iteratorIPKdSt6vectorIdSaIdEEE4baseEv
FNDA:3,_ZNK9__gnu_cxx17__normal_iteratorIPKiSt6vectorIiSaIiEEE4baseEv
FNDA:0,_ZNK9__gnu_cxx17__normal_iteratorIPN7testing12TestPropertyESt6vectorIS2_SaIS2_EEE4baseEv
FNDA:0,_ZNK9__gnu_cxx17__normal_iteratorIPN7testing14TestPartResultESt6vectorIS2_SaIS2_EEE4baseEv
FNDA:0,_ZNK9__gnu_cxx17__normal_iteratorIPN7testing8internal13edit_distance8EditTypeESt6vectorIS4_SaIS4_EEE4baseEv
FNDA:0,_ZNK9__gnu_cxx17__normal_iteratorIPN7testing8internal13edit_distance8EditTypeEvE4baseEv
FNDA:0,_ZNK9__gnu_cxx17__normal_iteratorIPN7testing8internal9TraceInfoESt6vectorIS3_SaIS3_EEE4baseEv
FNDA:67,_ZNK9__gnu_cxx17__normal_iteratorIPNSt7__cxx1112basic_stringIcSt11char_traitsIcESaIcEEESt6vectorIS6_SaIS6_EEE4baseEv
FNDA:2,_ZNK9__gnu_cxx17__normal_iteratorIPPN7testing11EnvironmentESt6vectorIS3_SaIS3_EEE4baseEv
FNDA:0,_ZNK9__gnu_cxx17__normal_iteratorIPPN7testing11EnvironmentEvE4baseEv
FNDA:4,_ZNK9__gnu_cxx17__normal_iteratorIPPN7testing17TestEventListenerESt6vectorIS3_SaIS3_EEE4baseEv
FNDA:0,_ZNK9__gnu_cxx17__normal_iteratorIPPN7testing17TestEventListenerEvE4baseEv
FNDA:174,_ZNK9__gnu_cxx17__normal_iteratorIPPN7testing8TestInfoESt6vectorIS3_SaIS3_EEE4baseEv
FNDA:0,_ZNK9__gnu_cxx17__normal_iteratorIPPN7testing8TestInfoEvE4baseEv
FNDA:4,_ZNK9__gnu_cxx17__normal_iteratorIPPN7testing8internal30ParameterizedTestSuiteInfoBaseESt6vectorIS4_SaIS4_EEE4baseEv
FNDA:110,_ZNK9__gnu_cxx17__normal_iteratorIPPN7testing9TestSuiteESt6vectorIS3_SaIS3_EEE4baseEv
FNDA:0,_ZNK9__gnu_cxx17__normal_iteratorIPPN7testing9TestSuiteEvE4baseEv
FNDA:75,_ZNK9__gnu_cxx17__normal_iteratorIPcNSt7__cxx1112basic_stringIcSt11char_traitsIcESaIcEEEE4baseEv
FNDA:40,_ZNK9__gnu_cxx17__normal_iteratorIPiSt6vectorIiSaIiEEE4baseEv
FNDA:0,_ZNK9__gnu_cxx17__normal_iteratorIPivE4baseEv
FNDA:0,_ZNK9__gnu_cxx17__normal_iteratorIPmSt6vectorImSaImEEE4baseEv
FNDA:0,_ZNK9__gnu_cxx17__normal_iteratorIPmvE4baseEv
FNDA:0,_ZN9__gnu_cxxeqIPKNSt7__cxx1112basic_stringIcSt11char_traitsIcESaIcEEEPS6_St6vectorIS6_SaIS6_EEEEbRKNS_17__normal_iteratorIT_T1_EERKNSD_IT0_SF_EE
FNDA:0,_ZN9__gnu_cxxeqIPKPN7testing9TestSuiteEPS3_St6vectorIS3_SaIS3_EEEEbRKNS_17__normal_iteratorIT_T1_EERKNSA_IT0_SC_EE
FNDA:54,_ZN9__gnu_cxxeqIPKcPcNSt7__cxx1112basic_stringIcSt11char_traitsIcESaIcEEEEEbRKNS_17__normal_iteratorIT_T1_EERKNSA_IT0_SC_EE
FNDA:122,_ZN9__gnu_cxxeqIPKN7testing14TestPartResultESt6vectorIS2_SaIS2_EEEEbRKNS_17__normal_iteratorIT_T0_EESD_
FNDA:0,_ZN9__gnu_cxxeqIPKN7testing8internal13edit_distance8EditTypeESt6vectorIS4_SaIS4_EEEEbRKNS_17__normal_iteratorIT_T0_EESF_
FNDA:0,_ZN9__gnu_cxxeqIPKN7testing8internal9TraceInfoESt6vectorIS3_SaIS3_EEEEbRKNS_17__normal_iteratorIT_T0_EESE_
FNDA:79,_ZN9__gnu_cxxeqIPKNSt7__cxx1112basic_stringIcSt11char_traitsIcESaIcEEESt6vectorIS6_SaIS6_EEEEbRKNS_17__normal_iteratorIT_T0_EESH_
FNDA:2,_ZN9__gnu_cxxeqIPKPN7testing11EnvironmentESt6vectorIS3_SaIS3_EEEEbRKNS_17__normal_iteratorIT_T0_EESE_
FNDA:2,_ZN9__gnu_cxxeqIPKPN7testing17TestEventListenerESt6vectorIS3_SaIS3_EEEEbRKNS_17__normal_iteratorIT_T0_EESE_
FNDA:198,_ZN9__gnu_cxxeqIPKPN7testing8TestInfoESt6vectorIS3_SaIS3_EEEEbRKNS_17__normal_iteratorIT_T0_EESE_
FNDA:12,_ZN9__gnu_cxxeqIPKPN7testing9TestSuiteESt6vectorIS3_SaIS3_EEEEbRKNS_17__normal_iteratorIT_T0_EESE_
FNDA:5,_ZN9__gnu_cxxeqIPKcNSt7__cxx1112basic_stringIcSt11char_traitsIcESaIcEEEEEbRKNS_17__normal_iteratorIT_T0_EESE_
FNDA:0,_ZN9__gnu_cxxeqIPKdSt6vectorIdSaIdEEEEbRKNS_17__normal_iteratorIT_T0_EESB_
FNDA:0,_ZN9__gnu_cxxeqIPKiSt6vectorIiSaIiEEEEbRKNS_17__normal_iteratorIT_T0_EESB_
FNDA:0,_ZN9__gnu_cxxeqIPN7testing12TestPropertyESt6vectorIS2_SaIS2_EEEEbRKNS_17__normal_iteratorIT_T0_EESC_
FNDA:0,_ZN9__gnu_cxxeqIPN7testing8internal13edit_distance8EditTypeESt6vectorIS4_SaIS4_EEEEbRKNS_17__normal_iteratorIT_T0_EESE_
FNDA:8,_ZN9__gnu_cxxeqIPNSt7__cxx1112basic_stringIcSt11char_traitsIcESaIcEEESt6vectorIS6_SaIS6_EEEEbRKNS_17__normal_iteratorIT_T0_EESG_
FNDA:1,_ZN9__gnu_cxxeqIPPN7testing11EnvironmentESt6vectorIS3_SaIS3_EEEEbRKNS_17__normal_iteratorIT_T0_EESD_
FNDA:0,_ZN9__gnu_cxxeqIPPN7testing17TestEventListenerESt6vectorIS3_SaIS3_EEEEbRKNS_17__normal_iteratorIT_T0_EESD_
FNDA:53,_ZN9__gnu_cxxeqIPPN7testing8TestInfoESt6vectorIS3_SaIS3_EEEEbRKNS_17__normal_iteratorIT_T0_EESD_
FNDA:2,_ZN9__gnu_cxxeqIPPN7testing8internal30ParameterizedTestSuiteInfoBaseESt6vectorIS4_SaIS4_EEEEbRKNS_17__normal_iteratorIT_T0_EESE_
FNDA:19,_ZN9__gnu_cxxeqIPPN7testing9TestSuiteESt6vectorIS3_SaIS3_EEEEbRKNS_17__normal_iteratorIT_T0_EESD_
FNDA:9,_ZN9__gnu_cxxeqIPcNSt7__cxx1112basic_stringIcSt11char_traitsIcESaIcEEEEEbRKNS_17__normal_iteratorIT_T0_EESD_
FNDA:0,_ZN9__gnu_cxxssIPN7testing8internal13edit_distance8EditTypeESt6vectorIS4_SaIS4_EEEEDTclL_ZNSt8__detail11__synth3wayEEcl7declvalIRT_EEcl7declvalISB_EEEERKNS_17__normal_iteratorISA_T0_EESH_
FNDA:0,_ZN9__gnu_cxxmiIPKPN7testing9TestSuiteEPS3_St6vectorIS3_SaIS3_EEEEDTmicldtfp_4baseEcldtfp0_4baseEERKNS_17__normal_iteratorIT_T1_EERKNSB_IT0_SD_EE
FNDA:1,_ZN9__gnu_cxxmiIPKcPcNSt7__cxx1112basic_stringIcSt11char_traitsIcESaIcEEEEEDTmicldtfp_4baseEcldtfp0_4baseEERKNS_17__normal_iteratorIT_T1_EERKNSB_IT0_SD_EE
FNDA:0,_ZN9__gnu_cxxmiIPKN7testing8internal13edit_distance8EditTypeESt6vectorIS4_SaIS4_EEEENS_17__normal_iteratorIT_T0_E15difference_typeERKSD_SG_
FNDA:143,_ZN9__gnu_cxxmiIPKNSt7__cxx1112basic_stringIcSt11char_traitsIcESaIcEEESt6vectorIS6_SaIS6_EEEENS_17__normal_iteratorIT_T0_E15difference_typeERKSF_SI_
FNDA:0,_ZN9__gnu_cxxmiIPKPN7testing17TestEventListenerESt6vectorIS3_SaIS3_EEEENS_17__normal_iteratorIT_T0_E15difference_typeERKSC_SF_
FNDA:0,_ZN9__gnu_cxxmiIPKPN7testing9TestSuiteESt6vectorIS3_SaIS3_EEEENS_17__normal_iteratorIT_T0_E15difference_typeERKSC_SF_
FNDA:24,_ZN9__gnu_cxxmiIPKcNSt7__cxx1112basic_stringIcSt11char_traitsIcESaIcEEEEENS_17__normal_iteratorIT_T0_E15difference_typeERKSC_SF_
FNDA:0,_ZN9__gnu_cxxmiIPN7testing12TestPropertyESt6vectorIS2_SaIS2_EEEENS_17__normal_iteratorIT_T0_E15difference_typeERKSA_SD_
FNDA:0,_ZN9__gnu_cxxmiIPN7testing14TestPartResultESt6vectorIS2_SaIS2_EEEENS_17__normal_iteratorIT_T0_E15difference_typeERKSA_SD_
FNDA:0,_ZN9__gnu_cxxmiIPN7testing8internal13edit_distance8EditTypeESt6vectorIS4_SaIS4_EEEENS_17__normal_iteratorIT_T0_E15difference_typeERKSC_SF_
FNDA:0,_ZN9__gnu_cxxmiIPN7testing8internal9TraceInfoESt6vectorIS3_SaIS3_EEEENS_17__normal_iteratorIT_T0_E15difference_typeERKSB_SE_
FNDA:10,_ZN9__gnu_cxxmiIPNSt7__cxx1112basic_stringIcSt11char_traitsIcESaIcEEESt6vectorIS6_SaIS6_EEEENS_17__normal_iteratorIT_T0_E15difference_typeERKSE_SH_
FNDA:0,_ZN9__gnu_cxxmiIPPN7testing11EnvironmentESt6vectorIS3_SaIS3_EEEENS_17__normal_iteratorIT_T0_E15difference_typeERKSB_SE_
FNDA:1,_ZN9__gnu_cxxmiIPPN7testing17TestEventListenerESt6vectorIS3_SaIS3_EEEENS_17__normal_iteratorIT_T0_E15difference_typeERKSB_SE_
FNDA:19,_ZN9__gnu_cxxmiIPPN7testing8TestInfoESt6vectorIS3_SaIS3_EEEENS_17__normal_iteratorIT_T0_E15difference_typeERKSB_SE_
FNDA:35,_ZN9__gnu_cxxmiIPPN7testing9TestSuiteESt6vectorIS3_SaIS3_EEEENS_17__normal_iteratorIT_T0_E15difference_typeERKSB_SE_
FNDA:10,_ZN9__gnu_cxxmiIPiSt6vectorIiSaIiEEEENS_17__normal_iteratorIT_T0_E15difference_typeERKS8_SB_
FNDA:0,_ZN9__gnu_cxxmiIPmSt6vectorImSaImEEEENS_17__normal_iteratorIT_T0_E15difference_typeERKS8_SB_
FNDA:0,_ZSt12__niter_baseIPKN7testing8internal13edit_distance8EditTypeESt6vectorIS3_SaIS3_EEET_N9__gnu_cxx17__normal_iteratorIS9_T0_EE
FNDA:0,_ZSt12__niter_baseIPKdSt6vectorIdSaIdEEET_N9__gnu_cxx17__normal_iteratorIS5_T0_EE
FNDA:3,_ZSt12__niter_baseIPKiSt6vectorIiSaIiEEET_N9__gnu_cxx17__normal_iteratorIS5_T0_EE
FNDA:12,_ZSt12__niter_baseIPNSt7__cxx1112basic_stringIcSt11char_traitsIcESaIcEEESt6vectorIS5_SaIS5_EEET_N9__gnu_cxx17__normal_iteratorISA_T0_EE
FNDA:0,_ZSt12__niter_baseIPPN7testing17TestEventListenerESt6vectorIS2_SaIS2_EEET_N9__gnu_cxx17__normal_iteratorIS7_T0_EE
FNDA:18,_ZSt12__niter_baseIPPN7testing8TestInfoESt6vectorIS2_SaIS2_EEET_N9__gnu_cxx17__normal_iteratorIS7_T0_EE
FNDA:2,_ZNSt16reverse_iteratorIN9__gnu_cxx17__normal_iteratorIPPN7testing11EnvironmentESt6vectorIS4_SaIS4_EEEEEC2ES9_
FNDA:51,_ZNSt16reverse_iteratorIN9__gnu_cxx17__normal_iteratorIPPN7testing9TestSuiteESt6vectorIS4_SaIS4_EEEEEC2ES9_
FNDA:101,_ZNSt16reverse_iteratorIN9__gnu_cxx17__normal_iteratorIPPN7testing9TestSuiteESt6vectorIS4_SaIS4_EEEEEC2ERKSA_
FNDA:2,_ZNKSt16reverse_iteratorIN9__gnu_cxx17__normal_iteratorIPPN7testing11EnvironmentESt6vectorIS4_SaIS4_EEEEE4baseEv
FNDA:102,_ZNKSt16reverse_iteratorIN9__gnu_cxx17__normal_iteratorIPPN7testing9TestSuiteESt6vectorIS4_SaIS4_EEEEE4baseEv
FNDA:0,_ZNKSt16reverse_iteratorIN9__gnu_cxx17__normal_iteratorIPPN7testing11EnvironmentESt6vectorIS4_SaIS4_EEEEEdeEv
FNDA:32,_ZNKSt16reverse_iteratorIN9__gnu_cxx17__normal_iteratorIPPN7testing9TestSuiteESt6vectorIS4_SaIS4_EEEEEdeEv
FNDA:0,_ZNSt16reverse_iteratorIN9__gnu_cxx17__normal_iteratorIPPN7testing11EnvironmentESt6vectorIS4_SaIS4_EEEEEppEv
FNDA:0,_ZNSt16reverse_iteratorIN9__gnu_cxx17__normal_iteratorIPPN7testing9TestSuiteESt6vectorIS4_SaIS4_EEEEEppEv
FNDA:1,_ZSteqIN9__gnu_cxx17__normal_iteratorIPPN7testing11EnvironmentESt6vectorIS4_SaIS4_EEEEEbRKSt16reverse_iteratorIT_ESE_
FNDA:17,_ZSteqIN9__gnu_cxx17__normal_iteratorIPPN7testing9TestSuiteESt6vectorIS4_SaIS4_EEEEEbRKSt16reverse_iteratorIT_ESE_
FNDA:34,_ZStmiIN9__gnu_cxx17__normal_iteratorIPPN7testing9TestSuiteESt6vectorIS4_SaIS4_EEEES9_EDTmicldtfp0_4baseEcldtfp_4baseEERKSt16reverse_iteratorIT_ERKSB_IT0_E
FNDA:3,_ZNSt15insert_iteratorISt13unordered_setINSt7__cxx1112basic_stringIcSt11char_traitsIcESaIcEEESt4hashIS6_ESt8equal_toIS6_ESaIS6_EEEC2ERSC_NSt8__detail14_Node_iteratorIS6_Lb1ELb1EEE
FNDA:3,_ZNSt15insert_iteratorISt6vectorINSt7__cxx1112basic_stringIcSt11char_traitsIcESaIcEEESaIS6_EEEC2ERS8_N9__gnu_cxx17__normal_iteratorIPS6_S8_EE
FNDA:0,_ZNSt15insert_iteratorISt13unordered_setINSt7__cxx1112basic_stringIcSt11char_traitsIcESaIcEEESt4hashIS6_ESt8equal_toIS6_ESaIS6_EEEaSEOS6_
FNDA:5,_ZNSt15insert_iteratorISt6vectorINSt7__cxx1112basic_stringIcSt11char_traitsIcESaIcEEESaIS6_EEEaSEOS6_
FNDA:0,_ZNSt15insert_iteratorISt13unordered_setINSt7__cxx1112basic_stringIcSt11char_traitsIcESaIcEEESt4hashIS6_ESt8equal_toIS6_ESaIS6_EEEdeEv
FNDA:5,_ZNSt15insert_iteratorISt6vectorINSt7__cxx1112basic_stringIcSt11char_traitsIcESaIcEEESaIS6_EEEdeEv
FNDA:0,_ZNSt15insert_iteratorISt13unordered_setINSt7__cxx1112basic_stringIcSt11char_traitsIcESaIcEEESt4hashIS6_ESt8equal_toIS6_ESaIS6_EEEppEv
FNDA:5,_ZNSt15insert_iteratorISt6vectorINSt7__cxx1112basic_stringIcSt11char_traitsIcESaIcEEESaIS6_EEEppEv
FNF:206
FNH:101
DA:195,53
DA:197,53
DA:198,53
DA:204,101
DA:206,101
DA:207,101
DA:248,104
DA:250,104
DA:264,32
DA:266,32
DA:267,32
DA:296,0
DA:298,0
DA:299,0
DA:593,18
DA:596,18
DA:625,34
DA:628,34
DA:929,6
DA:930,6
DA:975,5
DA:977,5
DA:978,5
DA:979,5
DA:986,5
DA:987,5
DA:992,5
DA:993,5
DA:1020,6
DA:1021,6
DA:1072,0
DA:1073,0
DA:1076,964
DA:1077,964
DA:1083,7
DA:1094,7
DA:1099,595
DA:1100,595
DA:1104,0
DA:1105,0
DA:1109,364
DA:1111,364
DA:1112,364
DA:1117,52
DA:1118,52
DA:1123,54
DA:1125,54
DA:1126,54
DA:1142,10
DA:1143,10
DA:1147,15
DA:1148,15
DA:1157,25
DA:1158,25
DA:1162,1742
DA:1163,1742
DA:1178,54
DA:1184,54
DA:1197,512
DA:1203,512
DA:1208,0
DA:1211,0
DA:1321,1
DA:1329,1
DA:1334,242
DA:1337,242
DA:1357,33
DA:1359,33
LF:68
LH:59
end_of_record
TN:
SF:/usr/include/c++/13/bits/stl_iterator_base_funcs.h
FN:184,196,_ZSt9__advanceIN9__gnu_cxx17__normal_iteratorIPPN7testing8TestInfoESt6vectorIS4_SaIS4_EEEElEvRT_T0_St26random_access_iterator_tag
FN:184,196,_ZSt9__advanceIN9__gnu_cxx17__normal_iteratorIPcNSt7__cxx1112basic_stringIcSt11char_traitsIcESaIcEEEEElEvRT_T0_St26random_access_iterator_tag
FNDA:0,_ZSt9__advanceIN9__gnu_cxx17__normal_iteratorIPPN7testing8TestInfoESt6vectorIS4_SaIS4_EEEElEvRT_T0_St26random_access_iterator_tag
FNDA:8,_ZSt9__advanceIN9__gnu_cxx17__normal_iteratorIPcNSt7__cxx1112basic_stringIcSt11char_traitsIcESaIcEEEEElEvRT_T0_St26random_access_iterator_tag
FNF:2
FNH:1
DA:106,254
DA:151,234
DA:152,254
DA:184,8
DA:195,8
DA:196,8
DA:223,0
DA:224,8
DA:225,8
DA:250,8
DA:251,8
LF:11
LH:10
end_of_record
TN:
SF:/usr/include/c++/13/bits/stl_iterator_base_types.h
FNF:0
FNH:0
DA:240,373
LF:1
LH:1
end_of_record
TN:
SF:/usr/include/c++/13/bits/stl_list.h
FN:1022,1023,_ZNSt7__cxx114listISt4pairIcPKcESaIS4_EE5beginEv
FN:1042,1043,_ZNSt7__cxx114listISt4pairIcPKcESaIS4_EE3endEv
FN:110,111,_ZNSt8__detail17_List_node_headerC2Ev
FN:1143,1144,_ZNKSt7__cxx114listISt4pairIcPKcESaIS4_EE5emptyEv
FN:1310,1311,_ZNSt7__cxx114listISt4pairIcPKcESaIS4_EE9push_backEOS4_
FN:150,156,_ZNSt8__detail17_List_node_header7_M_initEv
FN:1612,1627,_ZNSt7__cxx114listISt4pairIcPKcESaIS4_EE6spliceESt20_List_const_iteratorIS4_EOS6_
FN:1631,1632,_ZNSt7__cxx114listISt4pairIcPKcESaIS4_EE6spliceESt20_List_const_iteratorIS4_ERS6_
FN:1988,1989,_ZNSt7__cxx114listISt4pairIcPKcESaIS4_EE11_M_transferESt14_List_iteratorIS4_ES8_S8_
FN:2003,2008,_ZNSt7__cxx114listISt4pairIcPKcESaIS4_EE9_M_insertIJS4_EEEvSt14_List_iteratorIS4_EDpOT_
FN:2029,2033,_ZNSt7__cxx114listISt4pairIcPKcESaIS4_EE25_M_check_equal_allocatorsERKS6_
FN:238,238,_ZNSt10_List_nodeISt4pairIcPKcEE9_M_valptrEv
FN:239,239,_ZNKSt10_List_nodeISt4pairIcPKcEE9_M_valptrEv
FN:268,269,_ZNSt14_List_iteratorISt4pairIcPKcEEC2EPNSt8__detail15_List_node_baseE
FN:358,359,_ZNSt20_List_const_iteratorISt4pairIcPKcEEC2ERKSt14_List_iteratorIS3_E
FN:362,363,_ZNKSt20_List_const_iteratorISt4pairIcPKcEE13_M_const_castEv
FN:373,374,_ZNKSt20_List_const_iteratorISt4pairIcPKcEEptEv
FN:377,381,_ZNSt20_List_const_iteratorISt4pairIcPKcEEppEv
FN:408,409,_ZSteqRKSt20_List_const_iteratorISt4pairIcPKcEES6_
FN:455,458,_ZNSt7__cxx1110_List_baseISt4pairIcPKcESaIS4_EE10_List_implC2Ev
FN:480,480,_ZNKSt7__cxx1110_List_baseISt4pairIcPKcESaIS4_EE11_M_get_sizeEv
FN:482,482,_ZNSt7__cxx1110_List_baseISt4pairIcPKcESaIS4_EE11_M_set_sizeEm
FN:484,484,_ZNSt7__cxx1110_List_baseISt4pairIcPKcESaIS4_EE11_M_inc_sizeEm
FN:517,518,_ZNSt7__cxx1110_List_baseISt4pairIcPKcESaIS4_EE11_M_get_nodeEv
FN:521,522,_ZNSt7__cxx1110_List_baseISt4pairIcPKcESaIS4_EE11_M_put_nodeEPSt10_List_nodeIS4_E
FN:528,529,_ZNSt7__cxx1110_List_baseISt4pairIcPKcESaIS4_EE21_M_get_Node_allocatorEv
FN:532,533,_ZNKSt7__cxx1110_List_baseISt4pairIcPKcESaIS4_EE21_M_get_Node_allocatorEv
FN:536,536,_ZNSt7__cxx1110_List_baseISt4pairIcPKcESaIS4_EEC2Ev
FN:574,575,_ZNSt7__cxx1110_List_baseISt4pairIcPKcESaIS4_EED2Ev
FN:708,717,_ZNSt7__cxx114listISt4pairIcPKcESaIS4_EE14_M_create_nodeIJS4_EEEPSt10_List_nodeIS4_EDpOT_
FN:749,749,_ZNSt7__cxx114listISt4pairIcPKcESaIS4_EEC2Ev
FN:903,903,_ZNSt7__cxx114listISt4pairIcPKcESaIS4_EED2Ev
FNDA:0,_ZNSt7__cxx114listISt4pairIcPKcESaIS4_EE5beginEv
FNDA:0,_ZNSt7__cxx114listISt4pairIcPKcESaIS4_EE3endEv
FNDA:0,_ZNSt8__detail17_List_node_headerC2Ev
FNDA:0,_ZNKSt7__cxx114listISt4pairIcPKcESaIS4_EE5emptyEv
FNDA:0,_ZNSt7__cxx114listISt4pairIcPKcESaIS4_EE9push_backEOS4_
FNDA:0,_ZNSt8__detail17_List_node_header7_M_initEv
FNDA:0,_ZNSt7__cxx114listISt4pairIcPKcESaIS4_EE6spliceESt20_List_const_iteratorIS4_EOS6_
FNDA:0,_ZNSt7__cxx114listISt4pairIcPKcESaIS4_EE6spliceESt20_List_const_iteratorIS4_ERS6_
FNDA:0,_ZNSt7__cxx114listISt4pairIcPKcESaIS4_EE11_M_transferESt14_List_iteratorIS4_ES8_S8_
FNDA:0,_ZNSt7__cxx114listISt4pairIcPKcESaIS4_EE9_M_insertIJS4_EEEvSt14_List_iteratorIS4_EDpOT_
FNDA:0,_ZNSt7__cxx114listISt4pairIcPKcESaIS4_EE25_M_check_equal_allocatorsERKS6_
FNDA:0,_ZNSt10_List_nodeISt4pairIcPKcEE9_M_valptrEv
FNDA:0,_ZNKSt10_List_nodeISt4pairIcPKcEE9_M_valptrEv
FNDA:0,_ZNSt14_List_iteratorISt4pairIcPKcEEC2EPNSt8__detail15_List_node_baseE
FNDA:0,_ZNSt20_List_const_iteratorISt4pairIcPKcEEC2ERKSt14_List_iteratorIS3_E
FNDA:0,_ZNKSt20_List_const_iteratorISt4pairIcPKcEE13_M_const_castEv
FNDA:0,_ZNKSt20_List_const_iteratorISt4pairIcPKcEEptEv
FNDA:0,_ZNSt20_List_const_iteratorISt4pairIcPKcEEppEv
FNDA:0,_ZSteqRKSt20_List_const_iteratorISt4pairIcPKcEES6_
FNDA:0,_ZNSt7__cxx1110_List_baseISt4pairIcPKcESaIS4_EE10_List_implC2Ev
FNDA:0,_ZNKSt7__cxx1110_List_baseISt4pairIcPKcESaIS4_EE11_M_get_sizeEv
FNDA:0,_ZNSt7__cxx1110_List_baseISt4pairIcPKcESaIS4_EE11_M_set_sizeEm
FNDA:0,_ZNSt7__cxx1110_List_baseISt4pairIcPKcESaIS4_EE11_M_inc_sizeEm
FNDA:0,_ZNSt7__cxx1110_List_baseISt4pairIcPKcESaIS4_EE11_M_get_nodeEv
FNDA:0,_ZNSt7__cxx1110_List_baseISt4pairIcPKcESaIS4_EE11_M_put_nodeEPSt10_List_nodeIS4_E
FNDA:0,_ZNSt7__cxx1110_List_baseISt4pairIcPKcESaIS4_EE21_M_get_Node_allocatorEv
FNDA:0,_ZNKSt7__cxx1110_List_baseISt4pairIcPKcESaIS4_EE21_M_get_Node_allocatorEv
FNDA:0,_ZNSt7__cxx1110_List_baseISt4pairIcPKcESaIS4_EEC2Ev
FNDA:0,_ZNSt7__cxx1110_List_baseISt4pairIcPKcESaIS4_EED2Ev
FNDA:0,_ZNSt7__cxx114listISt4pairIcPKcESaIS4_EE14_M_create_nodeIJS4_EEEPSt10_List_nodeIS4_EDpOT_
FNDA:0,_ZNSt7__cxx114listISt4pairIcPKcESaIS4_EEC2Ev
FNDA:0,_ZNSt7__cxx114listISt4pairIcPKcESaIS4_EED2Ev
FNF:32
FNH:0
DA:110,0
DA:111,0
DA:150,0
DA:152,0
DA:154,0
DA:156,0
DA:238,0
DA:239,0
DA:268,0
DA:269,0
DA:358,0
DA:359,0
DA:362,0
DA:363,0
DA:373,0
DA:374,0
DA:377,0
DA:379,0
DA:380,0
DA:408,0
DA:409,0
DA:455,0
DA:457,0
DA:458,0
DA:480,0
DA:482,0
DA:484,0
DA:517,0
DA:518,0
DA:521,0
DA:522,0
DA:528,0
DA:529,0
DA:532,0
DA:533,0
DA:536,0
DA:574,0
DA:575,0
DA:708,0
DA:710,0
DA:711,0
DA:712,0
DA:713,0
DA:715,0
DA:716,0
DA:717,0
DA:749,0
DA:903,0
DA:1022,0
DA:1023,0
DA:1042,0
DA:1043,0
DA:1143,0
DA:1144,0
DA:1310,0
DA:1311,0
DA:1612,0
DA:1617,0
DA:1619,0
DA:1621,0
DA:1624,0
DA:1625,0
DA:1627,0
DA:1631,0
DA:1632,0
DA:1988,0
DA:1989,0
DA:2003,0
DA:2005,0
DA:2006,0
DA:2007,0
DA:2008,0
DA:2029,0
DA:2031,0
DA:2032,0
DA:2033,0
LF:76
LH:0
end_of_record
TN:
SF:/usr/include/c++/13/bits/stl_map.h
FN:1192,1193,_ZNKSt3mapINSt7__cxx1112basic_stringIcSt11char_traitsIcESaIcEEEN7testing8internal34TypeParameterizedTestSuiteRegistry30TypeParameterizedTestSuiteInfoESt4lessIS5_ESaISt4pairIKS5_S9_EEE8key_compEv
FN:1192,1193,_ZNKSt3mapINSt7__cxx1112basic_stringIcSt11char_traitsIcESaIcEEEmSt4lessIS5_ESaISt4pairIKS5_mEEE8key_compEv
