TN:
SF:/mnt/c/users/t470/desktop/funda/lab11/project2/include/my_lib.hpp
FN:129,129,_ZNK12my_container4ListIiE8IteratoreqERKS2_
FN:130,130,_ZNK12my_container4ListIiE8IteratorneERKS2_
FN:154,154,_ZN12my_container4ListIiE13ConstIteratorC2EPKNS1_4NodeE
FN:156,156,_ZN12my_container4ListIiE13ConstIteratorC2ERKS2_
FN:157,157,_ZNK12my_container4ListIiE13ConstIteratordeEv
FN:158,161,_ZN12my_container4ListIiE13ConstIteratorppEv
FN:162,166,_ZN12my_container4ListIiE13ConstIteratorppEi
FN:204,204,_ZNK12my_container4ListIiE13ConstIteratorneERKS2_
FN:230,230,_ZN12my_container4ListIiE15ReverseIteratorC2EPNS1_4NodeE
FN:232,232,_ZNK12my_container4ListIiE15ReverseIteratordeEv
FN:233,236,_ZN12my_container4ListIiE15ReverseIteratorppEv
FN:279,279,_ZNK12my_container4ListIiE15ReverseIteratorneERKS2_
FN:31,31,_ZN9ContainerIiEC2Ev
FN:37,37,_ZN9ContainerIiED0Ev
FN:37,37,_ZN9ContainerIiED2Ev
FN:386,390,_ZN12my_container4ListIiEC2Ev
FN:391,407,_ZN12my_container4ListIiEC2ERKSt16initializer_listIiE
FN:408,415,_ZN12my_container4ListIiEC2ERKS1_
FN:416,423,_ZN12my_container4ListIiED0Ev
FN:416,423,_ZN12my_container4ListIiED2Ev
FN:425,425,_ZNK12my_container4ListIiE6rbeginEv
FN:427,427,_ZNK12my_container4ListIiE4rendEv
FN:429,429,_ZNK12my_container4ListIiE5beginEv
FN:430,430,_ZNK12my_container4ListIiE3endEv
FN:431,431,_ZNK12my_container4ListIiE6cbeginEv
FN:432,432,_ZNK12my_container4ListIiE4cendEv
FN:434,439,_ZN12my_container4ListIiE5frontEv
FN:440,445,_ZN12my_container4ListIiE4backEv
FN:446,446,_ZNK12my_container4ListIiE5emptyEv
FN:447,447,_ZNK12my_container4ListIiE4sizeEv
FN:448,448,_ZNK12my_container4ListIiE8max_sizeEv
FN:450,466,_ZNK12my_container4ListIiEssERKS1_
FN:467,471,_ZNK12my_container4ListIiEeqERK9ContainerIiE
FN:472,472,_ZNK12my_container4ListIiEneERK9ContainerIiE
FN:473,473,_ZNK12my_container4ListIiEeqERKS1_
FN:474,474,_ZNK12my_container4ListIiEneERKS1_
FN:475,475,_ZNK12my_container4ListIiEltERKS1_
FN:476,476,_ZNK12my_container4ListIiEgtERKS1_
FN:477,477,_ZNK12my_container4ListIiEleERKS1_
FN:478,478,_ZNK12my_container4ListIiEgeERKS1_
FN:480,490,_ZN12my_container4ListIiE5clearEv
FN:49,49,_ZN12my_container4ListIiE4NodeC2Ev
FN:491,501,_ZN12my_container4ListIiE6insertENS1_8IteratorERKi
FN:502,507,_ZN12my_container4ListIiE5eraseENS1_8IteratorE
FN:508,517,_ZN12my_container4ListIiE9push_backERKi
FN:51,51,_ZN12my_container4ListIiE4NodeC2ERKi
FN:518,531,_ZN12my_container4ListIiE8pop_backEv
FN:53,53,_ZN12my_container4ListIiE4NodeC2ERKiRPS2_S6_
FN:532,537,_ZN12my_container4ListIiE10push_frontERKi
FN:538,551,_ZN12my_container4ListIiE9pop_frontEv
FN:54,57,_ZN12my_container4ListIiE4NodeC2ERKiPPS2_S6_
FN:553,568,_ZN12my_container4ListIiE6resizeEm
FN:569,581,_ZN12my_container4ListIiE6resizeEmRKi
FN:583,590,_ZN12my_container4ListIiE4swapERS1_S2_
FN:66,66,_ZNK12my_container4ListIiE6_beginEv
FN:67,67,_ZNK12my_container4ListIiE7_cbeginEv
FN:68,68,_ZNK12my_container4ListIiE4_endEv
FN:69,69,_ZNK12my_container4ListIiE5_cendEv
FN:70,70,_ZNK12my_container4ListIiE5_rendEv
FN:72,72,_ZNK12my_container4ListIiE7_rbeginEv
FN:81,81,_ZN12my_container4ListIiE8IteratorC2EPNS1_4NodeE
FN:82,82,_ZN12my_container4ListIiE8IteratorC2ERKS2_
FN:83,83,_ZNK12my_container4ListIiE8IteratordeEv
FN:84,87,_ZN12my_container4ListIiE8IteratorppEv
FN:88,92,_ZN12my_container4ListIiE8IteratorppEi
FNDA:1,_ZNK12my_container4ListIiE8IteratoreqERKS2_
FNDA:11,_ZNK12my_container4ListIiE8IteratorneERKS2_
FNDA:57,_ZN12my_container4ListIiE13ConstIteratorC2EPKNS1_4NodeE
FNDA:34,_ZN12my_container4ListIiE13ConstIteratorC2ERKS2_
FNDA:69,_ZNK12my_container4ListIiE13ConstIteratordeEv
FNDA:3,_ZN12my_container4ListIiE13ConstIteratorppEv
FNDA:34,_ZN12my_container4ListIiE13ConstIteratorppEi
FNDA:45,_ZNK12my_container4ListIiE13ConstIteratorneERKS2_
FNDA:5,_ZN12my_container4ListIiE15ReverseIteratorC2EPNS1_4NodeE
FNDA:3,_ZNK12my_container4ListIiE15ReverseIteratordeEv
FNDA:3,_ZN12my_container4ListIiE15ReverseIteratorppEv
FNDA:4,_ZNK12my_container4ListIiE15ReverseIteratorneERKS2_
FNDA:23,_ZN9ContainerIiEC2Ev
FNDA:0,_ZN9ContainerIiED0Ev
FNDA:23,_ZN9ContainerIiED2Ev
FNDA:4,_ZN12my_container4ListIiEC2Ev
FNDA:18,_ZN12my_container4ListIiEC2ERKSt16initializer_listIiE
FNDA:1,_ZN12my_container4ListIiEC2ERKS1_
FNDA:0,_ZN12my_container4ListIiED0Ev
FNDA:23,_ZN12my_container4ListIiED2Ev
FNDA:1,_ZNK12my_container4ListIiE6rbeginEv
FNDA:4,_ZNK12my_container4ListIiE4rendEv
FNDA:6,_ZNK12my_container4ListIiE5beginEv
FNDA:11,_ZNK12my_container4ListIiE3endEv
FNDA:12,_ZNK12my_container4ListIiE6cbeginEv
FNDA:45,_ZNK12my_container4ListIiE4cendEv
FNDA:11,_ZN12my_container4ListIiE5frontEv
FNDA:11,_ZN12my_container4ListIiE4backEv
FNDA:4,_ZNK12my_container4ListIiE5emptyEv
FNDA:15,_ZNK12my_container4ListIiE4sizeEv
FNDA:0,_ZNK12my_container4ListIiE8max_sizeEv
FNDA:9,_ZNK12my_container4ListIiEssERKS1_
FNDA:0,_ZNK12my_container4ListIiEeqERK9ContainerIiE
FNDA:0,_ZNK12my_container4ListIiEneERK9ContainerIiE
FNDA:4,_ZNK12my_container4ListIiEeqERKS1_
FNDA:1,_ZNK12my_container4ListIiEneERKS1_
FNDA:3,_ZNK12my_container4ListIiEltERKS1_
FNDA:2,_ZNK12my_container4ListIiEgtERKS1_
FNDA:1,_ZNK12my_container4ListIiEleERKS1_
FNDA:1,_ZNK12my_container4ListIiEgeERKS1_
FNDA:1,_ZN12my_container4ListIiE5clearEv
FNDA:5,_ZN12my_container4ListIiE4NodeC2Ev
FNDA:1,_ZN12my_container4ListIiE6insertENS1_8IteratorERKi
FNDA:1,_ZN12my_container4ListIiE5eraseENS1_8IteratorE
FNDA:8,_ZN12my_container4ListIiE9push_backERKi
FNDA:18,_ZN12my_container4ListIiE4NodeC2ERKi
FNDA:2,_ZN12my_container4ListIiE8pop_backEv
FNDA:1,_ZN12my_container4ListIiE4NodeC2ERKiRPS2_S6_
FNDA:2,_ZN12my_container4ListIiE10push_frontERKi
FNDA:3,_ZN12my_container4ListIiE9pop_frontEv
FNDA:42,_ZN12my_container4ListIiE4NodeC2ERKiPPS2_S6_
FNDA:1,_ZN12my_container4ListIiE6resizeEm
FNDA:1,_ZN12my_container4ListIiE6resizeEmRKi
FNDA:1,_ZN12my_container4ListIiE4swapERS1_S2_
FNDA:10,_ZNK12my_container4ListIiE6_beginEv
FNDA:12,_ZNK12my_container4ListIiE7_cbeginEv
FNDA:11,_ZNK12my_container4ListIiE4_endEv
FNDA:45,_ZNK12my_container4ListIiE5_cendEv
FNDA:4,_ZNK12my_container4ListIiE5_rendEv
FNDA:1,_ZNK12my_container4ListIiE7_rbeginEv
FNDA:18,_ZN12my_container4ListIiE8IteratorC2EPNS1_4NodeE
FNDA:8,_ZN12my_container4ListIiE8IteratorC2ERKS2_
FNDA:10,_ZNK12my_container4ListIiE8IteratordeEv
FNDA:6,_ZN12my_container4ListIiE8IteratorppEv
FNDA:6,_ZN12my_container4ListIiE8IteratorppEi
FNF:65
FNH:60
DA:31,23
DA:37,23
DA:49,5
DA:51,18
DA:53,1
DA:54,42
DA:55,42
DA:56,42
DA:57,42
DA:66,10
DA:67,12
DA:68,11
DA:69,45
DA:70,4
DA:72,1
DA:81,18
DA:82,8
DA:83,10
DA:84,6
DA:85,6
DA:86,6
DA:88,6
DA:89,6
DA:90,6
DA:91,6
DA:129,1
DA:130,11
DA:154,57
DA:156,34
DA:157,69
DA:158,3
DA:159,3
DA:160,3
DA:162,34
DA:163,34
DA:164,34
DA:165,34
DA:204,45
DA:230,5
DA:232,3
DA:233,3
DA:234,3
DA:235,3
DA:279,4
DA:386,4
DA:387,4
DA:388,4
DA:389,4
DA:390,4
DA:391,18
DA:392,18
DA:393,18
DA:394,0
DA:395,0
DA:398,18
DA:399,18
DA:400,18
DA:401,52
DA:402,34
DA:403,34
DA:404,34
DA:407,18
DA:408,1
DA:409,1
DA:410,1
DA:411,1
DA:412,5
DA:413,4
DA:415,1
DA:416,23
DA:417,23
DA:418,81
DA:419,58
DA:420,58
DA:421,58
DA:423,46
DA:425,1
DA:427,4
DA:429,6
DA:430,11
DA:431,12
DA:432,45
DA:434,11
DA:435,11
DA:436,10
DA:438,1
DA:440,11
DA:441,11
DA:442,10
DA:444,1
DA:446,4
DA:447,15
DA:448,0
DA:450,9
DA:451,9
DA:452,3
DA:454,6
DA:455,1
DA:457,20
DA:458,16
DA:459,1
DA:461,15
DA:462,0
DA:465,4
DA:467,0
DA:468,0
DA:469,0
DA:470,0
DA:472,0
DA:473,4
DA:474,1
DA:475,3
DA:476,2
DA:477,1
DA:478,1
DA:480,1
DA:481,1
DA:482,0
DA:484,3
DA:485,2
DA:486,2
DA:487,2
DA:489,1
DA:491,1
DA:492,1
DA:493,1
DA:494,1
DA:495,1
DA:497,1
DA:498,1
DA:499,1
DA:501,1
DA:502,1
DA:503,1
DA:504,1
DA:505,1
DA:506,1
DA:507,1
DA:508,8
DA:509,8
DA:510,2
DA:513,6
DA:514,6
DA:516,8
DA:517,8
DA:518,2
DA:519,2
DA:520,0
DA:522,2
DA:523,0
DA:526,2
DA:527,2
DA:528,2
DA:530,2
DA:531,2
DA:532,2
DA:533,2
DA:534,2
DA:535,2
DA:536,2
DA:537,2
DA:538,3
DA:539,3
DA:540,0
DA:542,3
DA:543,1
DA:546,2
DA:547,2
DA:548,2
DA:549,2
DA:551,3
DA:553,1
DA:554,1
DA:555,0
DA:557,1
DA:558,2
DA:559,1
DA:560,1
DA:561,1
DA:562,1
DA:566,0
DA:569,1
DA:570,1
DA:571,0
DA:573,1
DA:574,0
DA:577,3
DA:578,2
DA:583,1
DA:584,1
DA:585,0
DA:587,4
DA:588,3
LF:193
LH:175
end_of_record
