TN:
SF:/mnt/c/users/t470/desktop/funda/lab2/project3/include/my_lib.hpp
FN:12,33,_Z3fftRSt6vectorISt7complexIdESaIS1_EEb
FN:133,133,_ZN6BigIntC2Ev
FN:139,147,_ZN6BigIntC2Ex
FN:148,163,_ZN6BigIntC2ENSt7__cxx1112basic_stringIcSt11char_traitsIcESaIcEEE
FN:164,164,_ZNK6BigInt6digitsEv
FN:165,165,_ZN6BigInt10set_digitsESt6vectorItSaItEE
FN:166,166,_ZN6BigInt8set_signEs
FN:167,167,_ZNK6BigInt5sign_Ev
FN:176,184,_ZNK6BigInteqERKS_
FN:288,294,_ZlsRSoRK6BigInt
FN:302,310,_ZNK6BigInt12fft_multiplyERKS_
FN:35,69,_Z8multiplyRKSt6vectorItSaItEES3_
FN:76,81,_ZN6BigInt17remove_lead_zerosEv
FNDA:735,_Z3fftRSt6vectorISt7complexIdESaIS1_EEb
FNDA:7,_ZN6BigIntC2Ev
FNDA:15,_ZN6BigIntC2Ex
FNDA:6,_ZN6BigIntC2ENSt7__cxx1112basic_stringIcSt11char_traitsIcESaIcEEE
FNDA:14,_ZNK6BigInt6digitsEv
FNDA:7,_ZN6BigInt10set_digitsESt6vectorItSaItEE
FNDA:7,_ZN6BigInt8set_signEs
FNDA:14,_ZNK6BigInt5sign_Ev
FNDA:7,_ZNK6BigInteqERKS_
FNDA:0,_ZlsRSoRK6BigInt
FNDA:7,_ZNK6BigInt12fft_multiplyERKS_
FNDA:7,_Z8multiplyRKSt6vectorItSaItEES3_
FNDA:6,_ZN6BigInt17remove_lead_zerosEv
FNF:13
FNH:12
DA:12,735
DA:13,735
DA:14,735
DA:15,378
DA:16,1785
DA:17,1272
DA:18,915
DA:19,915
DA:21,357
DA:22,357
DA:24,357
DA:25,357
DA:26,1272
DA:27,915
DA:28,915
DA:29,915
DA:30,305
DA:31,915
DA:33,357
DA:35,7
DA:36,35
DA:37,47
DA:38,40
DA:40,39
DA:41,32
DA:43,7
DA:44,24
DA:45,17
DA:46,7
DA:47,7
DA:49,7
DA:50,7
DA:51,133
DA:52,126
DA:53,7
DA:55,21
DA:56,133
DA:57,126
DA:59,7
DA:60,133
DA:61,126
DA:62,126
DA:63,126
DA:66,71
DA:67,64
DA:68,14
DA:69,7
DA:76,6
DA:77,8
DA:78,2
DA:79,6
DA:80,0
DA:81,6
DA:133,7
DA:139,15
DA:140,15
DA:141,4
DA:142,15
DA:143,69
DA:144,54
DA:145,54
DA:147,15
DA:148,6
DA:149,6
DA:150,0
DA:151,6
DA:152,6
DA:153,88
DA:154,82
DA:155,0
DA:156,82
DA:158,6
DA:159,0
DA:160,0
DA:162,6
DA:163,0
DA:164,14
DA:165,7
DA:166,7
DA:167,14
DA:176,7
DA:177,7
DA:178,0
DA:179,69
DA:180,62
DA:181,0
DA:183,7
DA:288,0
DA:289,0
DA:290,0
DA:291,0
DA:292,0
DA:293,0
DA:302,7
DA:303,7
DA:304,7
DA:305,7
DA:306,7
DA:307,7
DA:308,7
DA:309,14
DA:310,7
LF:102
LH:88
end_of_record
