TN:
SF:/mnt/c/users/t470/desktop/funda/lab2/project1/include/my_lib.hpp
FN:100,100,_ZN6BigInt5sign_Ev
FN:102,108,_ZN6BigIntaSERKS_
FN:109,117,_ZNK6BigInteqERKS_
FN:11,16,_ZN6BigInt17remove_lead_zerosEv
FN:118,118,_ZNK6BigIntneERKS_
FN:119,129,_ZNK6BigIntltERKS_
FN:130,130,_ZNK6BigIntgeERKS_
FN:131,131,_ZNK6BigIntleERKS_
FN:132,132,_ZNK6BigIntgtERKS_
FN:133,133,_ZNK6BigInt7is_nullEv
FN:135,140,_ZNK6BigIntngEv
FN:141,156,_ZNK6BigIntplERKS_
FN:157,160,_ZN6BigIntpLERKS_
FN:161,161,_ZNK6BigIntmiERKS_
FN:162,165,_ZN6BigIntmIERKS_
FN:166,186,_ZNK6BigIntmlERKS_
FN:17,35,_ZNK6BigInt7add_absERKS_
FN:187,190,_ZN6BigIntmLERKS_
FN:191,215,_ZNK6BigIntdvERKS_
FN:216,219,_ZN6BigIntdVERKS_
FN:221,227,_ZlsRSoRK6BigInt
FN:228,233,_ZrsRSiR6BigInt
FN:36,56,_ZNK6BigInt9subtr_absERKS_
FN:57,65,_ZNK6BigInt8less_absERKS_
FN:68,68,_ZN6BigIntC2Ev
FN:69,69,_ZN6BigIntC2ERKS_
FN:70,73,_ZN6BigIntC2EOS_
FN:74,82,_ZN6BigIntC2Ex
FN:83,98,_ZN6BigIntC2ENSt7__cxx1112basic_stringIcSt11char_traitsIcESaIcEEE
FN:99,99,_ZN6BigInt6digitsEv
FNDA:3,_ZN6BigInt5sign_Ev
FNDA:84,_ZN6BigIntaSERKS_
FNDA:65,_ZNK6BigInteqERKS_
FNDA:66,_ZN6BigInt17remove_lead_zerosEv
FNDA:35,_ZNK6BigIntneERKS_
FNDA:40,_ZNK6BigIntltERKS_
FNDA:35,_ZNK6BigIntgeERKS_
FNDA:3,_ZNK6BigIntleERKS_
FNDA:2,_ZNK6BigIntgtERKS_
FNDA:63,_ZNK6BigInt7is_nullEv
FNDA:33,_ZNK6BigIntngEv
FNDA:45,_ZNK6BigIntplERKS_
FNDA:1,_ZN6BigIntpLERKS_
FNDA:32,_ZNK6BigIntmiERKS_
FNDA:28,_ZN6BigIntmIERKS_
FNDA:12,_ZNK6BigIntmlERKS_
FNDA:13,_ZNK6BigInt7add_absERKS_
FNDA:1,_ZN6BigIntmLERKS_
FNDA:7,_ZNK6BigIntdvERKS_
FNDA:1,_ZN6BigIntdVERKS_
FNDA:1,_ZlsRSoRK6BigInt
FNDA:2,_ZrsRSiR6BigInt
FNDA:32,_ZNK6BigInt9subtr_absERKS_
FNDA:38,_ZNK6BigInt8less_absERKS_
FNDA:114,_ZN6BigIntC2Ev
FNDA:40,_ZN6BigIntC2ERKS_
FNDA:17,_ZN6BigIntC2EOS_
FNDA:97,_ZN6BigIntC2Ex
FNDA:6,_ZN6BigIntC2ENSt7__cxx1112basic_stringIcSt11char_traitsIcESaIcEEE
FNDA:5,_ZN6BigInt6digitsEv
FNF:30
FNH:30
DA:11,66
DA:12,91
DA:13,25
DA:14,66
DA:15,12
DA:16,66
DA:17,13
DA:18,13
DA:19,13
DA:20,13
DA:21,13
DA:23,34
DA:24,21
DA:25,21
DA:26,21
DA:27,21
DA:28,21
DA:31,13
DA:32,3
DA:33,13
DA:34,13
DA:35,0
DA:36,32
DA:37,32
DA:38,32
DA:39,32
DA:41,86
DA:42,54
DA:43,54
DA:44,54
DA:45,54
DA:46,17
DA:47,17
DA:50,37
DA:51,54
DA:54,32
DA:55,32
DA:56,0
DA:57,38
DA:58,38
DA:59,19
DA:60,26
DA:61,19
DA:62,12
DA:64,7
DA:68,114
DA:69,40
DA:70,17
DA:71,17
DA:72,17
DA:73,17
DA:74,97
DA:75,97
DA:76,6
DA:77,97
DA:78,240
DA:79,143
DA:80,143
DA:82,97
DA:83,6
DA:84,6
DA:85,0
DA:86,6
DA:87,6
DA:88,18
DA:89,13
DA:90,1
DA:91,12
DA:93,5
DA:94,0
DA:95,0
DA:97,5
DA:98,1
DA:99,5
DA:100,3
DA:102,84
DA:103,84
DA:104,84
DA:105,84
DA:107,84
DA:109,65
DA:110,65
DA:111,5
DA:112,116
DA:113,87
DA:114,31
DA:116,29
DA:118,35
DA:119,40
DA:120,40
DA:121,2
DA:122,38
DA:123,18
DA:124,29
DA:125,22
DA:126,13
DA:128,7
DA:130,35
DA:131,3
DA:132,2
DA:133,63
DA:135,33
DA:136,33
DA:137,33
DA:138,32
DA:139,33
DA:140,0
DA:141,45
DA:142,45
DA:143,45
DA:144,13
DA:145,13
DA:146,13
DA:148,32
DA:149,0
DA:150,0
DA:151,0
DA:153,32
DA:154,32
DA:155,32
DA:156,0
DA:157,1
DA:158,1
DA:159,1
DA:161,64
DA:162,28
DA:163,28
DA:164,28
DA:166,12
DA:167,12
DA:168,1
DA:169,11
DA:170,11
DA:172,17
DA:173,6
DA:174,14
DA:175,8
DA:176,8
DA:177,8
DA:179,6
DA:180,3
DA:183,11
DA:184,11
DA:185,11
DA:186,11
DA:187,1
DA:188,1
DA:189,1
DA:191,7
DA:192,7
DA:193,1
DA:194,6
DA:195,1
DA:197,5
DA:198,5
DA:199,5
DA:200,5
DA:202,12
DA:203,7
DA:204,7
DA:205,34
DA:206,27
DA:207,27
DA:209,7
DA:212,5
DA:213,5
DA:214,5
DA:215,5
DA:216,1
DA:217,1
DA:218,1
DA:221,1
DA:222,1
DA:223,0
DA:224,4
DA:225,3
DA:226,1
DA:228,2
DA:229,2
DA:230,2
DA:231,4
DA:232,1
DA:233,2
LF:183
LH:172
end_of_record
