TN:
SF:/mnt/c/users/t470/desktop/funda/lab11/project4/include/my_lib.hpp
FN:47,47,_ZN12my_container5StackIiED2Ev
FN:48,48,_ZN12my_container5StackIiEC2Ev
FN:49,49,_ZN12my_container5StackIiEC2ERKS1_
FN:50,50,_ZN12my_container5StackIiEC2ESt16initializer_listIiE
FN:51,51,_ZN12my_container5StackIiEC2EOS1_
FN:64,64,_ZN12my_container5StackIiE3topEv
FN:66,66,_ZNK12my_container5StackIiE5emptyEv
FN:67,67,_ZNK12my_container5StackIiE4sizeEv
FN:71,71,_ZN12my_container5StackIiE4pushEOi
FN:72,72,_ZN12my_container5StackIiE3popEv
FN:73,73,_ZN12my_container5StackIiE4swapERS1_
FN:75,79,_ZNK12my_container5StackIiEssERKS1_
FN:80,82,_ZNK12my_container5StackIiEeqERKS1_
FN:83,85,_ZNK12my_container5StackIiEneERKS1_
FN:86,86,_ZNK12my_container5StackIiEgtERKS1_
FN:87,87,_ZNK12my_container5StackIiEgeERKS1_
FN:88,88,_ZNK12my_container5StackIiEltERKS1_
FN:89,89,_ZNK12my_container5StackIiEleERKS1_
FNDA:11,_ZN12my_container5StackIiED2Ev
FNDA:1,_ZN12my_container5StackIiEC2Ev
FNDA:3,_ZN12my_container5StackIiEC2ERKS1_
FNDA:6,_ZN12my_container5StackIiEC2ESt16initializer_listIiE
FNDA:1,_ZN12my_container5StackIiEC2EOS1_
FNDA:9,_ZN12my_container5StackIiE3topEv
FNDA:5,_ZNK12my_container5StackIiE5emptyEv
FNDA:35,_ZNK12my_container5StackIiE4sizeEv
FNDA:4,_ZN12my_container5StackIiE4pushEOi
FNDA:6,_ZN12my_container5StackIiE3popEv
FNDA:1,_ZN12my_container5StackIiE4swapERS1_
FNDA:6,_ZNK12my_container5StackIiEssERKS1_
FNDA:4,_ZNK12my_container5StackIiEeqERKS1_
FNDA:1,_ZNK12my_container5StackIiEneERKS1_
FNDA:1,_ZNK12my_container5StackIiEgtERKS1_
FNDA:1,_ZNK12my_container5StackIiEgeERKS1_
FNDA:1,_ZNK12my_container5StackIiEltERKS1_
FNDA:1,_ZNK12my_container5StackIiEleERKS1_
FNF:18
FNH:18
DA:47,11
DA:48,1
DA:49,3
DA:50,18
DA:51,1
DA:64,9
DA:66,5
DA:67,35
DA:71,4
DA:72,6
DA:73,1
DA:75,6
DA:76,6
DA:77,5
DA:78,1
DA:80,4
DA:81,4
DA:83,1
DA:84,1
DA:86,1
DA:87,1
DA:88,1
DA:89,1
LF:23
LH:23
end_of_record
